EXPORTS 
	??_R0?AU?$checked_array_deleter@E@boost@@@8 	 DATA
	??_R0?AU?$error_info_injector@Vbad_function_call@boost@@@exception_detail@boost@@@8 	 DATA
	??_R0?AV?$_Iosb@H@std@@@8 	 DATA
	??_R0?AV?$_Ref_count@VRobotState@core@moveit@@@std@@@8 	 DATA
	??_R0?AV?$basic_ios@DU?$char_traits@D@std@@@std@@@8 	 DATA
	??_R0?AV?$basic_iostream@DU?$char_traits@D@std@@@std@@@8 	 DATA
	??_R0?AV?$basic_istream@DU?$char_traits@D@std@@@std@@@8 	 DATA
	??_R0?AV?$basic_ostream@DU?$char_traits@D@std@@@std@@@8 	 DATA
	??_R0?AV?$basic_streambuf@DU?$char_traits@D@std@@@std@@@8 	 DATA
	??_R0?AV?$basic_stringbuf@DU?$char_traits@D@std@@V?$allocator@D@2@@std@@@8 	 DATA
	??_R0?AV?$basic_stringstream@DU?$char_traits@D@std@@V?$allocator@D@2@@std@@@8 	 DATA
	??_R0?AV?$bind_t@VSerializedMessage@ros@@P6A?AV12@AEBU?$DisplayRobotState_@V?$allocator@X@std@@@moveit_msgs@@@ZV?$list1@V?$reference_wrapper@$$CBU?$DisplayRobotState_@V?$allocator@X@std@@@moveit_msgs@@@boost@@@_bi@boost@@@_bi@boost@@@8 	 DATA
	??_R0?AV?$bind_t@VSerializedMessage@ros@@P6A?AV12@AEBU?$Marker_@V?$allocator@X@std@@@visualization_msgs@@@ZV?$list1@V?$reference_wrapper@$$CBU?$Marker_@V?$allocator@X@std@@@visualization_msgs@@@boost@@@_bi@boost@@@_bi@boost@@@8 	 DATA
	??_R0?AV?$bind_t@XP6AXPEAVInteractiveRobot@@AEBV?$shared_ptr@$$CBU?$InteractiveMarkerFeedback_@V?$allocator@X@std@@@visualization_msgs@@@boost@@@ZV?$list2@V?$value@PEAVInteractiveRobot@@@_bi@boost@@U?$arg@$00@3@@_bi@3@@_bi@boost@@@8 	 DATA
	??_R0?AV?$bind_t@XV?$mf1@XVInteractiveRobot@@AEBUTimerEvent@ros@@@_mfi@boost@@V?$list2@V?$value@PEAVInteractiveRobot@@@_bi@boost@@U?$arg@$00@3@@_bi@3@@_bi@boost@@@8 	 DATA
	??_R0?AV?$clone_impl@U?$error_info_injector@Vbad_function_call@boost@@@exception_detail@boost@@@exception_detail@boost@@@8 	 DATA
	??_R0?AV?$sp_counted_impl_pd@PEAEU?$checked_array_deleter@E@boost@@@detail@boost@@@8 	 DATA
	??_R0?AVRobotLoadException@InteractiveRobot@@@8 	 DATA
	??_R0?AV_Ref_count_base@std@@@8 	 DATA
	??_R0?AVbad_alloc@std@@@8 	 DATA
	??_R0?AVbad_array_new_length@std@@@8 	 DATA
	??_R0?AVbad_function_call@boost@@@8 	 DATA
	??_R0?AVclone_base@exception_detail@boost@@@8 	 DATA
	??_R0?AVexception@boost@@@8 	 DATA
	??_R0?AVexception@std@@@8 	 DATA
	??_R0?AVios_base@std@@@8 	 DATA
	??_R0?AVruntime_error@std@@@8 	 DATA
	??_R0?AVsp_counted_base@detail@boost@@@8 	 DATA
	?DEFAULT_WORLD_OBJECT_POSE_@InteractiveRobot@@0V?$Transform@N$02$00$0A@@Eigen@@B 	 DATA
	?min_delay_@InteractiveRobot@@0VDuration@ros@@B 	 DATA
	??$?0$$V@?$_Compressed_pair@V?$allocator@D@std@@V?$_String_val@U?$_Simple_types@D@std@@@2@$00@std@@QEAA@U_Zero_then_variadic_args_t@1@@Z
	??$?0$$V@?$_Compressed_pair@V?$allocator@N@std@@V?$_Vector_val@U?$_Simple_types@N@std@@@2@$00@std@@QEAA@U_Zero_then_variadic_args_t@1@@Z
	??$?0$$V@?$_Compressed_pair@V?$allocator@U?$AttachedCollisionObject_@V?$allocator@X@std@@@moveit_msgs@@@std@@V?$_Vector_val@U?$_Simple_types@U?$AttachedCollisionObject_@V?$allocator@X@std@@@moveit_msgs@@@std@@@2@$00@std@@QEAA@U_Zero_then_variadic_args_t@1@@Z
	??$?0$$V@?$_Compressed_pair@V?$allocator@U?$ColorRGBA_@V?$allocator@X@std@@@std_msgs@@@std@@V?$_Vector_val@U?$_Simple_types@U?$ColorRGBA_@V?$allocator@X@std@@@std_msgs@@@std@@@2@$00@std@@QEAA@U_Zero_then_variadic_args_t@1@@Z
	??$?0$$V@?$_Compressed_pair@V?$allocator@U?$InteractiveMarkerControl_@V?$allocator@X@std@@@visualization_msgs@@@std@@V?$_Vector_val@U?$_Simple_types@U?$InteractiveMarkerControl_@V?$allocator@X@std@@@visualization_msgs@@@std@@@2@$00@std@@QEAA@U_Zero_then_variadic_args_t@1@@Z
	??$?0$$V@?$_Compressed_pair@V?$allocator@U?$Marker_@V?$allocator@X@std@@@visualization_msgs@@@std@@V?$_Vector_val@U?$_Simple_types@U?$Marker_@V?$allocator@X@std@@@visualization_msgs@@@std@@@2@$00@std@@QEAA@U_Zero_then_variadic_args_t@1@@Z
	??$?0$$V@?$_Compressed_pair@V?$allocator@U?$MenuEntry_@V?$allocator@X@std@@@visualization_msgs@@@std@@V?$_Vector_val@U?$_Simple_types@U?$MenuEntry_@V?$allocator@X@std@@@visualization_msgs@@@std@@@2@$00@std@@QEAA@U_Zero_then_variadic_args_t@1@@Z
	??$?0$$V@?$_Compressed_pair@V?$allocator@U?$ObjectColor_@V?$allocator@X@std@@@moveit_msgs@@@std@@V?$_Vector_val@U?$_Simple_types@U?$ObjectColor_@V?$allocator@X@std@@@moveit_msgs@@@std@@@2@$00@std@@QEAA@U_Zero_then_variadic_args_t@1@@Z
	??$?0$$V@?$_Compressed_pair@V?$allocator@U?$Point_@V?$allocator@X@std@@@geometry_msgs@@@std@@V?$_Vector_val@U?$_Simple_types@U?$Point_@V?$allocator@X@std@@@geometry_msgs@@@std@@@2@$00@std@@QEAA@U_Zero_then_variadic_args_t@1@@Z
	??$?0$$V@?$_Compressed_pair@V?$allocator@U?$Transform_@V?$allocator@X@std@@@geometry_msgs@@@std@@V?$_Vector_val@U?$_Simple_types@U?$Transform_@V?$allocator@X@std@@@geometry_msgs@@@std@@@2@$00@std@@QEAA@U_Zero_then_variadic_args_t@1@@Z
	??$?0$$V@?$_Compressed_pair@V?$allocator@U?$Twist_@V?$allocator@X@std@@@geometry_msgs@@@std@@V?$_Vector_val@U?$_Simple_types@U?$Twist_@V?$allocator@X@std@@@geometry_msgs@@@std@@@2@$00@std@@QEAA@U_Zero_then_variadic_args_t@1@@Z
	??$?0$$V@?$_Compressed_pair@V?$allocator@U?$Wrench_@V?$allocator@X@std@@@geometry_msgs@@@std@@V?$_Vector_val@U?$_Simple_types@U?$Wrench_@V?$allocator@X@std@@@geometry_msgs@@@std@@@2@$00@std@@QEAA@U_Zero_then_variadic_args_t@1@@Z
	??$?0$$V@?$_Compressed_pair@V?$allocator@U?$_Tree_node@U?$pair@$$CBV?$basic_string@DU?$char_traits@D@std@@V?$allocator@D@2@@std@@V12@@std@@PEAX@std@@@std@@V?$_Tree_val@U?$_Tree_simple_types@U?$pair@$$CBV?$basic_string@DU?$char_traits@D@std@@V?$allocator@D@2@@std@@V12@@std@@@std@@@2@$00@std@@QEAA@U_Zero_then_variadic_args_t@1@@Z
	??$?0$$V@?$_Compressed_pair@V?$allocator@V?$basic_string@DU?$char_traits@D@std@@V?$allocator@D@2@@std@@@std@@V?$_Vector_val@U?$_Simple_types@V?$basic_string@DU?$char_traits@D@std@@V?$allocator@D@2@@std@@@std@@@2@$00@std@@QEAA@U_Zero_then_variadic_args_t@1@@Z
	??$?0AEAV?$allocator@D@std@@$$V@?$_Compressed_pair@V?$allocator@D@std@@V?$_String_val@U?$_Simple_types@D@std@@@2@$00@std@@QEAA@U_One_then_variadic_args_t@1@AEAV?$allocator@D@1@@Z
	??$?0AEBU?$less@V?$basic_string@DU?$char_traits@D@std@@V?$allocator@D@2@@std@@@std@@U_Zero_then_variadic_args_t@1@@?$_Compressed_pair@U?$less@V?$basic_string@DU?$char_traits@D@std@@V?$allocator@D@2@@std@@@std@@V?$_Compressed_pair@V?$allocator@U?$_Tree_node@U?$pair@$$CBV?$basic_string@DU?$char_traits@D@std@@V?$allocator@D@2@@std@@V12@@std@@PEAX@std@@@std@@V?$_Tree_val@U?$_Tree_simple_types@U?$pair@$$CBV?$basic_string@DU?$char_traits@D@std@@V?$allocator@D@2@@std@@V12@@std@@@std@@@2@$00@2@$00@std@@QEAA@U_One_then_variadic_args_t@1@AEBU?$less@V?$basic_string@DU?$char_traits@D@std@@V?$allocator@D@2@@std@@@1@$$QEAU_Zero_then_variadic_args_t@1@@Z
	??$?0AEBV?$allocator@D@std@@$$V@?$_Compressed_pair@V?$allocator@D@std@@V?$_String_val@U?$_Simple_types@D@std@@@2@$00@std@@QEAA@U_One_then_variadic_args_t@1@AEBV?$allocator@D@1@@Z
	??$?0E@?$shared_array@E@boost@@QEAA@PEAE@Z
	??$?0PEAEU?$checked_array_deleter@E@boost@@@shared_count@detail@boost@@QEAA@PEAEU?$checked_array_deleter@E@2@@Z
	??$?0V?$Block@$$CBV?$Matrix@N$03$03$0A@$03$03@Eigen@@$02$00$00@Eigen@@@?$Matrix@N$02$00$0A@$02$00@Eigen@@QEAA@AEBU?$EigenBase@V?$Block@$$CBV?$Matrix@N$03$03$0A@$03$03@Eigen@@$02$00$00@Eigen@@@1@@Z
	??$?0V?$Block@$$CBV?$Matrix@N$03$03$0A@$03$03@Eigen@@$02$00$00@Eigen@@@?$PlainObjectBase@V?$Matrix@N$02$00$0A@$02$00@Eigen@@@Eigen@@IEAA@AEBV?$DenseBase@V?$Block@$$CBV?$Matrix@N$03$03$0A@$03$03@Eigen@@$02$00$00@Eigen@@@1@@Z
	??$?0V?$Block@$$CBV?$Matrix@N$03$03$0A@$03$03@Eigen@@$02$02$0A@@Eigen@@@?$Quaternion@N$0A@@Eigen@@QEAA@AEBV?$MatrixBase@V?$Block@$$CBV?$Matrix@N$03$03$0A@$03$03@Eigen@@$02$02$0A@@Eigen@@@1@@Z
	??$?0V?$Product@V?$Matrix@N$02$00$0A@$02$00@Eigen@@V?$Block@V?$Matrix@N$03$03$0A@$03$03@Eigen@@$00$03$0A@@2@$0A@@Eigen@@@?$Matrix@N$02$03$0A@$02$03@Eigen@@QEAA@AEBV?$Product@V?$Matrix@N$02$00$0A@$02$00@Eigen@@V?$Block@V?$Matrix@N$03$03$0A@$03$03@Eigen@@$00$03$0A@@2@$0A@@1@@Z
	??$?0V?$Quaternion@N$0A@@Eigen@@@?$Transform@N$02$00$0A@@Eigen@@QEAA@AEBV?$RotationBase@V?$Quaternion@N$0A@@Eigen@@$02@1@@Z
	??$?0V?$allocator@D@std@@$$V@?$_Compressed_pair@V?$allocator@D@std@@V?$_String_val@U?$_Simple_types@D@std@@@2@$00@std@@QEAA@U_One_then_variadic_args_t@1@$$QEAV?$allocator@D@1@@Z
	??$?0V?$allocator@U?$ColorRGBA_@V?$allocator@X@std@@@std_msgs@@@std@@$$V@?$_Compressed_pair@V?$allocator@U?$ColorRGBA_@V?$allocator@X@std@@@std_msgs@@@std@@V?$_Vector_val@U?$_Simple_types@U?$ColorRGBA_@V?$allocator@X@std@@@std_msgs@@@std@@@2@$00@std@@QEAA@U_One_then_variadic_args_t@1@$$QEAV?$allocator@U?$ColorRGBA_@V?$allocator@X@std@@@std_msgs@@@1@@Z
	??$?0V?$allocator@U?$ColorRGBA_@V?$allocator@X@std@@@std_msgs@@@std@@PEAU?$ColorRGBA_@V?$allocator@X@std@@@std_msgs@@PEAU23@PEAU23@@?$_Compressed_pair@V?$allocator@U?$ColorRGBA_@V?$allocator@X@std@@@std_msgs@@@std@@V?$_Vector_val@U?$_Simple_types@U?$ColorRGBA_@V?$allocator@X@std@@@std_msgs@@@std@@@2@$00@std@@QEAA@U_One_then_variadic_args_t@1@$$QEAV?$allocator@U?$ColorRGBA_@V?$allocator@X@std@@@std_msgs@@@1@$$QEAPEAU?$ColorRGBA_@V?$allocator@X@std@@@std_msgs@@22@Z
	??$?0V?$allocator@U?$Marker_@V?$allocator@X@std@@@visualization_msgs@@@std@@$$V@?$_Compressed_pair@V?$allocator@U?$Marker_@V?$allocator@X@std@@@visualization_msgs@@@std@@V?$_Vector_val@U?$_Simple_types@U?$Marker_@V?$allocator@X@std@@@visualization_msgs@@@std@@@2@$00@std@@QEAA@U_One_then_variadic_args_t@1@$$QEAV?$allocator@U?$Marker_@V?$allocator@X@std@@@visualization_msgs@@@1@@Z
	??$?0V?$allocator@U?$Marker_@V?$allocator@X@std@@@visualization_msgs@@@std@@PEAU?$Marker_@V?$allocator@X@std@@@visualization_msgs@@PEAU23@PEAU23@@?$_Compressed_pair@V?$allocator@U?$Marker_@V?$allocator@X@std@@@visualization_msgs@@@std@@V?$_Vector_val@U?$_Simple_types@U?$Marker_@V?$allocator@X@std@@@visualization_msgs@@@std@@@2@$00@std@@QEAA@U_One_then_variadic_args_t@1@$$QEAV?$allocator@U?$Marker_@V?$allocator@X@std@@@visualization_msgs@@@1@$$QEAPEAU?$Marker_@V?$allocator@X@std@@@visualization_msgs@@22@Z
	??$?0V?$allocator@U?$Point_@V?$allocator@X@std@@@geometry_msgs@@@std@@$$V@?$_Compressed_pair@V?$allocator@U?$Point_@V?$allocator@X@std@@@geometry_msgs@@@std@@V?$_Vector_val@U?$_Simple_types@U?$Point_@V?$allocator@X@std@@@geometry_msgs@@@std@@@2@$00@std@@QEAA@U_One_then_variadic_args_t@1@$$QEAV?$allocator@U?$Point_@V?$allocator@X@std@@@geometry_msgs@@@1@@Z
	??$?0V?$allocator@U?$Point_@V?$allocator@X@std@@@geometry_msgs@@@std@@PEAU?$Point_@V?$allocator@X@std@@@geometry_msgs@@PEAU23@PEAU23@@?$_Compressed_pair@V?$allocator@U?$Point_@V?$allocator@X@std@@@geometry_msgs@@@std@@V?$_Vector_val@U?$_Simple_types@U?$Point_@V?$allocator@X@std@@@geometry_msgs@@@std@@@2@$00@std@@QEAA@U_One_then_variadic_args_t@1@$$QEAV?$allocator@U?$Point_@V?$allocator@X@std@@@geometry_msgs@@@1@$$QEAPEAU?$Point_@V?$allocator@X@std@@@geometry_msgs@@22@Z
	??$?0V?$bind_t@VSerializedMessage@ros@@P6A?AV12@AEBU?$DisplayRobotState_@V?$allocator@X@std@@@moveit_msgs@@@ZV?$list1@V?$reference_wrapper@$$CBU?$DisplayRobotState_@V?$allocator@X@std@@@moveit_msgs@@@boost@@@_bi@boost@@@_bi@boost@@@?$function0@VSerializedMessage@ros@@@boost@@QEAA@V?$bind_t@VSerializedMessage@ros@@P6A?AV12@AEBU?$DisplayRobotState_@V?$allocator@X@std@@@moveit_msgs@@@ZV?$list1@V?$reference_wrapper@$$CBU?$DisplayRobotState_@V?$allocator@X@std@@@moveit_msgs@@@boost@@@_bi@boost@@@_bi@1@H@Z
	??$?0V?$bind_t@VSerializedMessage@ros@@P6A?AV12@AEBU?$DisplayRobotState_@V?$allocator@X@std@@@moveit_msgs@@@ZV?$list1@V?$reference_wrapper@$$CBU?$DisplayRobotState_@V?$allocator@X@std@@@moveit_msgs@@@boost@@@_bi@boost@@@_bi@boost@@@?$function@$$A6A?AVSerializedMessage@ros@@XZ@boost@@QEAA@V?$bind_t@VSerializedMessage@ros@@P6A?AV12@AEBU?$DisplayRobotState_@V?$allocator@X@std@@@moveit_msgs@@@ZV?$list1@V?$reference_wrapper@$$CBU?$DisplayRobotState_@V?$allocator@X@std@@@moveit_msgs@@@boost@@@_bi@boost@@@_bi@1@H@Z
	??$?0V?$bind_t@VSerializedMessage@ros@@P6A?AV12@AEBU?$Marker_@V?$allocator@X@std@@@visualization_msgs@@@ZV?$list1@V?$reference_wrapper@$$CBU?$Marker_@V?$allocator@X@std@@@visualization_msgs@@@boost@@@_bi@boost@@@_bi@boost@@@?$function0@VSerializedMessage@ros@@@boost@@QEAA@V?$bind_t@VSerializedMessage@ros@@P6A?AV12@AEBU?$Marker_@V?$allocator@X@std@@@visualization_msgs@@@ZV?$list1@V?$reference_wrapper@$$CBU?$Marker_@V?$allocator@X@std@@@visualization_msgs@@@boost@@@_bi@boost@@@_bi@1@H@Z
	??$?0V?$bind_t@VSerializedMessage@ros@@P6A?AV12@AEBU?$Marker_@V?$allocator@X@std@@@visualization_msgs@@@ZV?$list1@V?$reference_wrapper@$$CBU?$Marker_@V?$allocator@X@std@@@visualization_msgs@@@boost@@@_bi@boost@@@_bi@boost@@@?$function@$$A6A?AVSerializedMessage@ros@@XZ@boost@@QEAA@V?$bind_t@VSerializedMessage@ros@@P6A?AV12@AEBU?$Marker_@V?$allocator@X@std@@@visualization_msgs@@@ZV?$list1@V?$reference_wrapper@$$CBU?$Marker_@V?$allocator@X@std@@@visualization_msgs@@@boost@@@_bi@boost@@@_bi@1@H@Z
	??$?0V?$bind_t@XP6AXPEAVInteractiveRobot@@AEBV?$shared_ptr@$$CBU?$InteractiveMarkerFeedback_@V?$allocator@X@std@@@visualization_msgs@@@boost@@@ZV?$list2@V?$value@PEAVInteractiveRobot@@@_bi@boost@@U?$arg@$00@3@@_bi@3@@_bi@boost@@@?$function1@XAEBV?$shared_ptr@$$CBU?$InteractiveMarkerFeedback_@V?$allocator@X@std@@@visualization_msgs@@@boost@@@boost@@QEAA@V?$bind_t@XP6AXPEAVInteractiveRobot@@AEBV?$shared_ptr@$$CBU?$InteractiveMarkerFeedback_@V?$allocator@X@std@@@visualization_msgs@@@boost@@@ZV?$list2@V?$value@PEAVInteractiveRobot@@@_bi@boost@@U?$arg@$00@3@@_bi@3@@_bi@1@H@Z
	??$?0V?$bind_t@XP6AXPEAVInteractiveRobot@@AEBV?$shared_ptr@$$CBU?$InteractiveMarkerFeedback_@V?$allocator@X@std@@@visualization_msgs@@@boost@@@ZV?$list2@V?$value@PEAVInteractiveRobot@@@_bi@boost@@U?$arg@$00@3@@_bi@3@@_bi@boost@@@?$function@$$A6AXAEBV?$shared_ptr@$$CBU?$InteractiveMarkerFeedback_@V?$allocator@X@std@@@visualization_msgs@@@boost@@@Z@boost@@QEAA@V?$bind_t@XP6AXPEAVInteractiveRobot@@AEBV?$shared_ptr@$$CBU?$InteractiveMarkerFeedback_@V?$allocator@X@std@@@visualization_msgs@@@boost@@@ZV?$list2@V?$value@PEAVInteractiveRobot@@@_bi@boost@@U?$arg@$00@3@@_bi@3@@_bi@1@H@Z
	??$?0V?$bind_t@XV?$mf1@XVInteractiveRobot@@AEBUTimerEvent@ros@@@_mfi@boost@@V?$list2@V?$value@PEAVInteractiveRobot@@@_bi@boost@@U?$arg@$00@3@@_bi@3@@_bi@boost@@@?$function1@XAEBUTimerEvent@ros@@@boost@@QEAA@V?$bind_t@XV?$mf1@XVInteractiveRobot@@AEBUTimerEvent@ros@@@_mfi@boost@@V?$list2@V?$value@PEAVInteractiveRobot@@@_bi@boost@@U?$arg@$00@3@@_bi@3@@_bi@1@H@Z
	??$?0V?$bind_t@XV?$mf1@XVInteractiveRobot@@AEBUTimerEvent@ros@@@_mfi@boost@@V?$list2@V?$value@PEAVInteractiveRobot@@@_bi@boost@@U?$arg@$00@3@@_bi@3@@_bi@boost@@@?$function@$$A6AXAEBUTimerEvent@ros@@@Z@boost@@QEAA@V?$bind_t@XV?$mf1@XVInteractiveRobot@@AEBUTimerEvent@ros@@@_mfi@boost@@V?$list2@V?$value@PEAVInteractiveRobot@@@_bi@boost@@U?$arg@$00@3@@_bi@3@@_bi@1@H@Z
	??$?0VRobotModel@core@moveit@@$0A@@?$shared_ptr@$$CBVRobotModel@core@moveit@@@std@@QEAA@AEBV?$shared_ptr@VRobotModel@core@moveit@@@1@@Z
	??$?0VRobotState@core@moveit@@$0A@@?$shared_ptr@VRobotState@core@moveit@@@std@@QEAA@PEAVRobotState@core@moveit@@@Z
	??$?4V?$Block@$$CBV?$Matrix@N$03$03$0A@$03$03@Eigen@@$02$02$0A@@Eigen@@@?$QuaternionBase@V?$Quaternion@N$0A@@Eigen@@@Eigen@@QEAAAEAV?$Quaternion@N$0A@@1@AEBV?$MatrixBase@V?$Block@$$CBV?$Matrix@N$03$03$0A@$03$03@Eigen@@$02$02$0A@@Eigen@@@1@@Z
	??$?4V?$CwiseNullaryOp@U?$scalar_constant_op@N@internal@Eigen@@V?$Matrix@N$00$02$00$00$02@3@@Eigen@@@?$MatrixBase@V?$Block@V?$Matrix@N$03$03$0A@$03$03@Eigen@@$00$02$0A@@Eigen@@@Eigen@@QEAAAEAV?$Block@V?$Matrix@N$03$03$0A@$03$03@Eigen@@$00$02$0A@@1@AEBV?$DenseBase@V?$CwiseNullaryOp@U?$scalar_constant_op@N@internal@Eigen@@V?$Matrix@N$00$02$00$00$02@3@@Eigen@@@1@@Z
	??$?4V?$CwiseNullaryOp@U?$scalar_constant_op@N@internal@Eigen@@V?$Matrix@N$02$00$0A@$02$00@3@@Eigen@@@?$MatrixBase@V?$Block@V?$Matrix@N$03$03$0A@$03$03@Eigen@@$02$00$00@Eigen@@@Eigen@@QEAAAEAV?$Block@V?$Matrix@N$03$03$0A@$03$03@Eigen@@$02$00$00@1@AEBV?$DenseBase@V?$CwiseNullaryOp@U?$scalar_constant_op@N@internal@Eigen@@V?$Matrix@N$02$00$0A@$02$00@3@@Eigen@@@1@@Z
	??$?4V?$CwiseNullaryOp@U?$scalar_identity_op@N@internal@Eigen@@V?$Matrix@N$02$02$0A@$02$02@3@@Eigen@@@?$MatrixBase@V?$Block@V?$Matrix@N$03$03$0A@$03$03@Eigen@@$02$02$0A@@Eigen@@@Eigen@@QEAAAEAV?$Block@V?$Matrix@N$03$03$0A@$03$03@Eigen@@$02$02$0A@@1@AEBV?$DenseBase@V?$CwiseNullaryOp@U?$scalar_identity_op@N@internal@Eigen@@V?$Matrix@N$02$02$0A@$02$02@3@@Eigen@@@1@@Z
	??$?4V?$Matrix@N$02$00$0A@$02$00@Eigen@@@?$MatrixBase@V?$Block@V?$Matrix@N$03$03$0A@$03$03@Eigen@@$02$00$00@Eigen@@@Eigen@@QEAAAEAV?$Block@V?$Matrix@N$03$03$0A@$03$03@Eigen@@$02$00$00@1@AEBV?$DenseBase@V?$Matrix@N$02$00$0A@$02$00@Eigen@@@1@@Z
	??$?4V?$Matrix@N$02$02$0A@$02$02@Eigen@@@?$MatrixBase@V?$Block@V?$Matrix@N$03$03$0A@$03$03@Eigen@@$02$02$0A@@Eigen@@@Eigen@@QEAAAEAV?$Block@V?$Matrix@N$03$03$0A@$03$03@Eigen@@$02$02$0A@@1@AEBV?$DenseBase@V?$Matrix@N$02$02$0A@$02$02@Eigen@@@1@@Z
	??$?4V?$Quaternion@N$0A@@Eigen@@@?$Transform@N$02$00$0A@@Eigen@@QEAAAEAV01@AEBV?$RotationBase@V?$Quaternion@N$0A@@Eigen@@$02@1@@Z
	??$?6DU?$char_traits@D@std@@H@std@@YAAEAV?$basic_ostream@DU?$char_traits@D@std@@@0@AEAV10@AEBU?$_Smanip@H@0@@Z
	??$?6DU?$char_traits@D@std@@V?$allocator@D@1@@std@@YAAEAV?$basic_ostream@DU?$char_traits@D@std@@@0@AEAV10@AEBV?$basic_string@DU?$char_traits@D@std@@V?$allocator@D@2@@0@@Z
	??$?6DU?$char_traits@D@std@@_J@std@@YAAEAV?$basic_ostream@DU?$char_traits@D@std@@@0@AEAV10@AEBU?$_Smanip@_J@0@@Z
	??$?6U?$char_traits@D@std@@@std@@YAAEAV?$basic_ostream@DU?$char_traits@D@std@@@0@AEAV10@PEBD@Z
	??$?8Vstl_type_index@typeindex@boost@@Vtype_info@@@typeindex@boost@@YA_NAEBV?$type_index_facade@Vstl_type_index@typeindex@boost@@Vtype_info@@@01@0@Z
	??$?8Vstl_type_index@typeindex@boost@@Vtype_info@@@typeindex@boost@@YA_NAEBVtype_info@@AEBV?$type_index_facade@Vstl_type_index@typeindex@boost@@Vtype_info@@@01@@Z
	??$?A$$CBU?$DisplayRobotState_@V?$allocator@X@std@@@moveit_msgs@@@list0@_bi@boost@@QEBAAEBU?$DisplayRobotState_@V?$allocator@X@std@@@moveit_msgs@@AEBV?$reference_wrapper@$$CBU?$DisplayRobotState_@V?$allocator@X@std@@@moveit_msgs@@@2@@Z
	??$?A$$CBU?$Marker_@V?$allocator@X@std@@@visualization_msgs@@@list0@_bi@boost@@QEBAAEBU?$Marker_@V?$allocator@X@std@@@visualization_msgs@@AEBV?$reference_wrapper@$$CBU?$Marker_@V?$allocator@X@std@@@visualization_msgs@@@2@@Z
	??$?APEAVInteractiveRobot@@@?$rrlist1@AEBUTimerEvent@ros@@@_bi@boost@@QEBAAEAPEAVInteractiveRobot@@AEAV?$value@PEAVInteractiveRobot@@@12@@Z
	??$?APEAVInteractiveRobot@@@?$rrlist1@AEBV?$shared_ptr@$$CBU?$InteractiveMarkerFeedback_@V?$allocator@X@std@@@visualization_msgs@@@boost@@@_bi@boost@@QEBAAEAPEAVInteractiveRobot@@AEAV?$value@PEAVInteractiveRobot@@@12@@Z
	??$?C$$CBVRobotModel@core@moveit@@$0A@@?$shared_ptr@$$CBVRobotModel@core@moveit@@@std@@QEBAPEBVRobotModel@core@moveit@@XZ
	??$?CVRobotState@core@moveit@@$0A@@?$shared_ptr@VRobotState@core@moveit@@@std@@QEBAPEAVRobotState@core@moveit@@XZ
	??$?D$00$0A@@?$Translation@N$02@Eigen@@QEBA?AV?$Transform@N$02$00$0A@@1@AEBV21@@Z
	??$?DV?$Block@V?$Matrix@N$03$03$0A@$03$03@Eigen@@$00$03$0A@@Eigen@@@?$MatrixBase@V?$Matrix@N$02$00$0A@$02$00@Eigen@@@Eigen@@QEBA?BV?$Product@V?$Matrix@N$02$00$0A@$02$00@Eigen@@V?$Block@V?$Matrix@N$03$03$0A@$03$03@Eigen@@$00$03$0A@@2@$0A@@1@AEBV?$MatrixBase@V?$Block@V?$Matrix@N$03$03$0A@$03$03@Eigen@@$00$03$0A@@Eigen@@@1@@Z
	??$?DV?$Quaternion@N$0A@@Eigen@@@?$Translation@N$02@Eigen@@QEBA?AV?$Transform@N$02$00$0A@@1@AEBV?$RotationBase@V?$Quaternion@N$0A@@Eigen@@$02@1@@Z
	??$?DVRobotState@core@moveit@@$0A@@?$shared_ptr@VRobotState@core@moveit@@@std@@QEBAAEAVRobotState@core@moveit@@XZ
	??$?HDU?$char_traits@D@std@@V?$allocator@D@1@@std@@YA?AV?$basic_string@DU?$char_traits@D@std@@V?$allocator@D@2@@0@$$QEAV10@0@Z
	??$?RAEBUTimerEvent@ros@@@?$bind_t@XV?$mf1@XVInteractiveRobot@@AEBUTimerEvent@ros@@@_mfi@boost@@V?$list2@V?$value@PEAVInteractiveRobot@@@_bi@boost@@U?$arg@$00@3@@_bi@3@@_bi@boost@@QEAAXAEBUTimerEvent@ros@@@Z
	??$?RAEBV?$shared_ptr@$$CBU?$InteractiveMarkerFeedback_@V?$allocator@X@std@@@visualization_msgs@@@boost@@@?$bind_t@XP6AXPEAVInteractiveRobot@@AEBV?$shared_ptr@$$CBU?$InteractiveMarkerFeedback_@V?$allocator@X@std@@@visualization_msgs@@@boost@@@ZV?$list2@V?$value@PEAVInteractiveRobot@@@_bi@boost@@U?$arg@$00@3@@_bi@3@@_bi@boost@@QEAAXAEBV?$shared_ptr@$$CBU?$InteractiveMarkerFeedback_@V?$allocator@X@std@@@visualization_msgs@@@2@@Z
	??$?RP6AXPEAVInteractiveRobot@@AEBV?$shared_ptr@$$CBU?$InteractiveMarkerFeedback_@V?$allocator@X@std@@@visualization_msgs@@@boost@@@ZV?$rrlist1@AEBV?$shared_ptr@$$CBU?$InteractiveMarkerFeedback_@V?$allocator@X@std@@@visualization_msgs@@@boost@@@_bi@2@@?$list2@V?$value@PEAVInteractiveRobot@@@_bi@boost@@U?$arg@$00@3@@_bi@boost@@QEAAXV?$type@X@12@AEAP6AXPEAVInteractiveRobot@@AEBV?$shared_ptr@$$CBU?$InteractiveMarkerFeedback_@V?$allocator@X@std@@@visualization_msgs@@@2@@ZAEAV?$rrlist1@AEBV?$shared_ptr@$$CBU?$InteractiveMarkerFeedback_@V?$allocator@X@std@@@visualization_msgs@@@boost@@@12@H@Z
	??$?RV?$mf1@XVInteractiveRobot@@AEBUTimerEvent@ros@@@_mfi@boost@@V?$rrlist1@AEBUTimerEvent@ros@@@_bi@2@@?$list2@V?$value@PEAVInteractiveRobot@@@_bi@boost@@U?$arg@$00@3@@_bi@boost@@QEAAXV?$type@X@12@AEAV?$mf1@XVInteractiveRobot@@AEBUTimerEvent@ros@@@_mfi@2@AEAV?$rrlist1@AEBUTimerEvent@ros@@@12@H@Z
	??$?RVSerializedMessage@ros@@P6A?AV01@AEBU?$DisplayRobotState_@V?$allocator@X@std@@@moveit_msgs@@@ZVlist0@_bi@boost@@@?$list1@V?$reference_wrapper@$$CBU?$DisplayRobotState_@V?$allocator@X@std@@@moveit_msgs@@@boost@@@_bi@boost@@QEAA?AVSerializedMessage@ros@@V?$type@VSerializedMessage@ros@@@12@AEAP6A?AV34@AEBU?$DisplayRobotState_@V?$allocator@X@std@@@moveit_msgs@@@ZAEAVlist0@12@J@Z
	??$?RVSerializedMessage@ros@@P6A?AV01@AEBU?$Marker_@V?$allocator@X@std@@@visualization_msgs@@@ZVlist0@_bi@boost@@@?$list1@V?$reference_wrapper@$$CBU?$Marker_@V?$allocator@X@std@@@visualization_msgs@@@boost@@@_bi@boost@@QEAA?AVSerializedMessage@ros@@V?$type@VSerializedMessage@ros@@@12@AEAP6A?AV34@AEBU?$Marker_@V?$allocator@X@std@@@visualization_msgs@@@ZAEAVlist0@12@J@Z
	??$?R_J@?$nullary_wrapper@NU?$scalar_constant_op@N@internal@Eigen@@$00$0A@$0A@@internal@Eigen@@QEBANAEBU?$scalar_constant_op@N@12@_J1@Z
	??$?R_J@?$nullary_wrapper@NU?$scalar_identity_op@N@internal@Eigen@@$0A@$0A@$00@internal@Eigen@@QEBANAEBU?$scalar_identity_op@N@12@_J1@Z
	??$?R_J@?$scalar_identity_op@N@internal@Eigen@@QEBA?BN_J0@Z
	??$?YV?$Matrix@N$02$00$0A@$02$00@Eigen@@@?$MatrixBase@V?$Block@V?$Matrix@N$03$03$0A@$03$03@Eigen@@$02$00$00@Eigen@@@Eigen@@QEAAAEAV?$Block@V?$Matrix@N$03$03$0A@$03$03@Eigen@@$02$00$00@1@AEBV?$MatrixBase@V?$Matrix@N$02$00$0A@$02$00@Eigen@@@1@@Z
	??$?YV?$Product@V?$Matrix@N$02$00$0A@$02$00@Eigen@@V?$Block@V?$Matrix@N$03$03$0A@$03$03@Eigen@@$00$03$0A@@2@$0A@@Eigen@@@?$MatrixBase@V?$Block@V?$Matrix@N$03$03$0A@$03$03@Eigen@@$02$03$0A@@Eigen@@@Eigen@@QEAAAEAV?$Block@V?$Matrix@N$03$03$0A@$03$03@Eigen@@$02$03$0A@@1@AEBV?$MatrixBase@V?$Product@V?$Matrix@N$02$00$0A@$02$00@Eigen@@V?$Block@V?$Matrix@N$03$03$0A@$03$03@Eigen@@$00$03$0A@@2@$0A@@Eigen@@@1@@Z
	??$NullaryExpr@U?$scalar_constant_op@N@internal@Eigen@@@?$DenseBase@V?$Block@V?$Matrix@N$03$03$0A@$03$03@Eigen@@$00$02$0A@@Eigen@@@Eigen@@SA?BV?$CwiseNullaryOp@U?$scalar_constant_op@N@internal@Eigen@@V?$Matrix@N$00$02$00$00$02@3@@1@_J0AEBU?$scalar_constant_op@N@internal@1@@Z
	??$NullaryExpr@U?$scalar_constant_op@N@internal@Eigen@@@?$DenseBase@V?$Block@V?$Matrix@N$03$03$0A@$03$03@Eigen@@$02$00$00@Eigen@@@Eigen@@SA?BV?$CwiseNullaryOp@U?$scalar_constant_op@N@internal@Eigen@@V?$Matrix@N$02$00$0A@$02$00@3@@1@_J0AEBU?$scalar_constant_op@N@internal@1@@Z
	??$NullaryExpr@U?$scalar_identity_op@N@internal@Eigen@@@?$DenseBase@V?$Block@V?$Matrix@N$03$03$0A@$03$03@Eigen@@$02$02$0A@@Eigen@@@Eigen@@SA?BV?$CwiseNullaryOp@U?$scalar_identity_op@N@internal@Eigen@@V?$Matrix@N$02$02$0A@$02$02@3@@1@_J0AEBU?$scalar_identity_op@N@internal@1@@Z
	??$_Allocate@$0BA@U_Default_allocate_traits@std@@$0A@@std@@YAPEAX_K@Z
	??$_Allocate_manually_vector_aligned@U_Default_allocate_traits@std@@@std@@YAPEAX_K@Z
	??$_Allocators_equal@V?$allocator@D@std@@@std@@YA_NAEBV?$allocator@D@0@0@Z
	??$_Atomic_address_as@JU?$_Atomic_padded@H@std@@@std@@YAPECJAEAU?$_Atomic_padded@H@0@@Z
	??$_Buyheadnode@V?$allocator@U?$_Tree_node@U?$pair@$$CBV?$basic_string@DU?$char_traits@D@std@@V?$allocator@D@2@@std@@V12@@std@@PEAX@std@@@std@@@?$_Tree_node@U?$pair@$$CBV?$basic_string@DU?$char_traits@D@std@@V?$allocator@D@2@@std@@V12@@std@@PEAX@std@@SAPEAU01@AEAV?$allocator@U?$_Tree_node@U?$pair@$$CBV?$basic_string@DU?$char_traits@D@std@@V?$allocator@D@2@@std@@V12@@std@@PEAX@std@@@1@@Z
	??$_Construct_in_place@PEADAEBQEAD@std@@YAXAEAPEADAEBQEAD@Z
	??$_Construct_in_place@PEAU?$_Tree_node@U?$pair@$$CBV?$basic_string@DU?$char_traits@D@std@@V?$allocator@D@2@@std@@V12@@std@@PEAX@std@@AEBQEAU12@@std@@YAXAEAPEAU?$_Tree_node@U?$pair@$$CBV?$basic_string@DU?$char_traits@D@std@@V?$allocator@D@2@@std@@V12@@std@@PEAX@0@AEBQEAU10@@Z
	??$_Convert_size@_K@std@@YA_K_K@Z
	??$_Copy_construct_from@VRobotModel@core@moveit@@@?$_Ptr_base@$$CBVRobotModel@core@moveit@@@std@@IEAAXAEBV?$shared_ptr@VRobotModel@core@moveit@@@1@@Z
	??$_Copy_construct_from@VRobotModel@core@moveit@@@?$_Ptr_base@VRobotModel@core@moveit@@@std@@IEAAXAEBV?$shared_ptr@VRobotModel@core@moveit@@@1@@Z
	??$_Deallocate@$0BA@$0A@@std@@YAXPEAX_K@Z
	??$_Destroy_in_place@PEAD@std@@YAXAEAPEAD@Z
	??$_Destroy_in_place@PEAU?$_Tree_node@U?$pair@$$CBV?$basic_string@DU?$char_traits@D@std@@V?$allocator@D@2@@std@@V12@@std@@PEAX@std@@@std@@YAXAEAPEAU?$_Tree_node@U?$pair@$$CBV?$basic_string@DU?$char_traits@D@std@@V?$allocator@D@2@@std@@V12@@std@@PEAX@0@@Z
	??$_Destroy_range@V?$allocator@N@std@@@std@@YAXPEANQEANAEAV?$allocator@N@0@@Z
	??$_Destroy_range@V?$allocator@U?$AttachedCollisionObject_@V?$allocator@X@std@@@moveit_msgs@@@std@@@std@@YAXPEAU?$AttachedCollisionObject_@V?$allocator@X@std@@@moveit_msgs@@QEAU12@AEAV?$allocator@U?$AttachedCollisionObject_@V?$allocator@X@std@@@moveit_msgs@@@0@@Z
	??$_Destroy_range@V?$allocator@U?$ColorRGBA_@V?$allocator@X@std@@@std_msgs@@@std@@@std@@YAXPEAU?$ColorRGBA_@V?$allocator@X@std@@@std_msgs@@QEAU12@AEAV?$allocator@U?$ColorRGBA_@V?$allocator@X@std@@@std_msgs@@@0@@Z
	??$_Destroy_range@V?$allocator@U?$InteractiveMarkerControl_@V?$allocator@X@std@@@visualization_msgs@@@std@@@std@@YAXPEAU?$InteractiveMarkerControl_@V?$allocator@X@std@@@visualization_msgs@@QEAU12@AEAV?$allocator@U?$InteractiveMarkerControl_@V?$allocator@X@std@@@visualization_msgs@@@0@@Z
	??$_Destroy_range@V?$allocator@U?$JointTrajectoryPoint_@V?$allocator@X@std@@@trajectory_msgs@@@std@@@std@@YAXPEAU?$JointTrajectoryPoint_@V?$allocator@X@std@@@trajectory_msgs@@QEAU12@AEAV?$allocator@U?$JointTrajectoryPoint_@V?$allocator@X@std@@@trajectory_msgs@@@0@@Z
	??$_Destroy_range@V?$allocator@U?$Marker_@V?$allocator@X@std@@@visualization_msgs@@@std@@@std@@YAXPEAU?$Marker_@V?$allocator@X@std@@@visualization_msgs@@QEAU12@AEAV?$allocator@U?$Marker_@V?$allocator@X@std@@@visualization_msgs@@@0@@Z
	??$_Destroy_range@V?$allocator@U?$MenuEntry_@V?$allocator@X@std@@@visualization_msgs@@@std@@@std@@YAXPEAU?$MenuEntry_@V?$allocator@X@std@@@visualization_msgs@@QEAU12@AEAV?$allocator@U?$MenuEntry_@V?$allocator@X@std@@@visualization_msgs@@@0@@Z
	??$_Destroy_range@V?$allocator@U?$MeshTriangle_@V?$allocator@X@std@@@shape_msgs@@@std@@@std@@YAXPEAU?$MeshTriangle_@V?$allocator@X@std@@@shape_msgs@@QEAU12@AEAV?$allocator@U?$MeshTriangle_@V?$allocator@X@std@@@shape_msgs@@@0@@Z
	??$_Destroy_range@V?$allocator@U?$Mesh_@V?$allocator@X@std@@@shape_msgs@@@std@@@std@@YAXPEAU?$Mesh_@V?$allocator@X@std@@@shape_msgs@@QEAU12@AEAV?$allocator@U?$Mesh_@V?$allocator@X@std@@@shape_msgs@@@0@@Z
	??$_Destroy_range@V?$allocator@U?$ObjectColor_@V?$allocator@X@std@@@moveit_msgs@@@std@@@std@@YAXPEAU?$ObjectColor_@V?$allocator@X@std@@@moveit_msgs@@QEAU12@AEAV?$allocator@U?$ObjectColor_@V?$allocator@X@std@@@moveit_msgs@@@0@@Z
	??$_Destroy_range@V?$allocator@U?$Plane_@V?$allocator@X@std@@@shape_msgs@@@std@@@std@@YAXPEAU?$Plane_@V?$allocator@X@std@@@shape_msgs@@QEAU12@AEAV?$allocator@U?$Plane_@V?$allocator@X@std@@@shape_msgs@@@0@@Z
	??$_Destroy_range@V?$allocator@U?$Point_@V?$allocator@X@std@@@geometry_msgs@@@std@@@std@@YAXPEAU?$Point_@V?$allocator@X@std@@@geometry_msgs@@QEAU12@AEAV?$allocator@U?$Point_@V?$allocator@X@std@@@geometry_msgs@@@0@@Z
	??$_Destroy_range@V?$allocator@U?$Pose_@V?$allocator@X@std@@@geometry_msgs@@@std@@@std@@YAXPEAU?$Pose_@V?$allocator@X@std@@@geometry_msgs@@QEAU12@AEAV?$allocator@U?$Pose_@V?$allocator@X@std@@@geometry_msgs@@@0@@Z
	??$_Destroy_range@V?$allocator@U?$SolidPrimitive_@V?$allocator@X@std@@@shape_msgs@@@std@@@std@@YAXPEAU?$SolidPrimitive_@V?$allocator@X@std@@@shape_msgs@@QEAU12@AEAV?$allocator@U?$SolidPrimitive_@V?$allocator@X@std@@@shape_msgs@@@0@@Z
	??$_Destroy_range@V?$allocator@U?$Transform_@V?$allocator@X@std@@@geometry_msgs@@@std@@@std@@YAXPEAU?$Transform_@V?$allocator@X@std@@@geometry_msgs@@QEAU12@AEAV?$allocator@U?$Transform_@V?$allocator@X@std@@@geometry_msgs@@@0@@Z
	??$_Destroy_range@V?$allocator@U?$Twist_@V?$allocator@X@std@@@geometry_msgs@@@std@@@std@@YAXPEAU?$Twist_@V?$allocator@X@std@@@geometry_msgs@@QEAU12@AEAV?$allocator@U?$Twist_@V?$allocator@X@std@@@geometry_msgs@@@0@@Z
	??$_Destroy_range@V?$allocator@U?$Wrench_@V?$allocator@X@std@@@geometry_msgs@@@std@@@std@@YAXPEAU?$Wrench_@V?$allocator@X@std@@@geometry_msgs@@QEAU12@AEAV?$allocator@U?$Wrench_@V?$allocator@X@std@@@geometry_msgs@@@0@@Z
	??$_Destroy_range@V?$allocator@V?$basic_string@DU?$char_traits@D@std@@V?$allocator@D@2@@std@@@std@@@std@@YAXPEAV?$basic_string@DU?$char_traits@D@std@@V?$allocator@D@2@@0@QEAV10@AEAV?$allocator@V?$basic_string@DU?$char_traits@D@std@@V?$allocator@D@2@@std@@@0@@Z
	??$_Emplace_back@AEAU?$ColorRGBA_@V?$allocator@X@std@@@std_msgs@@@?$_Uninitialized_backout_al@V?$allocator@U?$ColorRGBA_@V?$allocator@X@std@@@std_msgs@@@std@@@std@@QEAAXAEAU?$ColorRGBA_@V?$allocator@X@std@@@std_msgs@@@Z
	??$_Emplace_back@AEAU?$Marker_@V?$allocator@X@std@@@visualization_msgs@@@?$_Uninitialized_backout_al@V?$allocator@U?$Marker_@V?$allocator@X@std@@@visualization_msgs@@@std@@@std@@QEAAXAEAU?$Marker_@V?$allocator@X@std@@@visualization_msgs@@@Z
	??$_Emplace_back@AEAU?$Point_@V?$allocator@X@std@@@geometry_msgs@@@?$_Uninitialized_backout_al@V?$allocator@U?$Point_@V?$allocator@X@std@@@geometry_msgs@@@std@@@std@@QEAAXAEAU?$Point_@V?$allocator@X@std@@@geometry_msgs@@@Z
	??$_Emplace_back@U?$InteractiveMarkerControl_@V?$allocator@X@std@@@visualization_msgs@@@?$_Uninitialized_backout_al@V?$allocator@U?$InteractiveMarkerControl_@V?$allocator@X@std@@@visualization_msgs@@@std@@@std@@QEAAX$$QEAU?$InteractiveMarkerControl_@V?$allocator@X@std@@@visualization_msgs@@@Z
	??$_Emplace_back@U?$Marker_@V?$allocator@X@std@@@visualization_msgs@@@?$_Uninitialized_backout_al@V?$allocator@U?$Marker_@V?$allocator@X@std@@@visualization_msgs@@@std@@@std@@QEAAX$$QEAU?$Marker_@V?$allocator@X@std@@@visualization_msgs@@@Z
	??$_Emplace_back_with_unused_capacity@AEBU?$InteractiveMarkerControl_@V?$allocator@X@std@@@visualization_msgs@@@?$vector@U?$InteractiveMarkerControl_@V?$allocator@X@std@@@visualization_msgs@@V?$allocator@U?$InteractiveMarkerControl_@V?$allocator@X@std@@@visualization_msgs@@@std@@@std@@AEAAXAEBU?$InteractiveMarkerControl_@V?$allocator@X@std@@@visualization_msgs@@@Z
	??$_Emplace_back_with_unused_capacity@U?$Marker_@V?$allocator@X@std@@@visualization_msgs@@@?$vector@U?$Marker_@V?$allocator@X@std@@@visualization_msgs@@V?$allocator@U?$Marker_@V?$allocator@X@std@@@visualization_msgs@@@std@@@std@@AEAAX$$QEAU?$Marker_@V?$allocator@X@std@@@visualization_msgs@@@Z
	??$_Emplace_reallocate@AEBU?$InteractiveMarkerControl_@V?$allocator@X@std@@@visualization_msgs@@@?$vector@U?$InteractiveMarkerControl_@V?$allocator@X@std@@@visualization_msgs@@V?$allocator@U?$InteractiveMarkerControl_@V?$allocator@X@std@@@visualization_msgs@@@std@@@std@@QEAAPEAU?$InteractiveMarkerControl_@V?$allocator@X@std@@@visualization_msgs@@QEAU23@AEBU23@@Z
	??$_Emplace_reallocate@U?$Marker_@V?$allocator@X@std@@@visualization_msgs@@@?$vector@U?$Marker_@V?$allocator@X@std@@@visualization_msgs@@V?$allocator@U?$Marker_@V?$allocator@X@std@@@visualization_msgs@@@std@@@std@@QEAAPEAU?$Marker_@V?$allocator@X@std@@@visualization_msgs@@QEAU23@$$QEAU23@@Z
	??$_Erase_head@V?$allocator@U?$_Tree_node@U?$pair@$$CBV?$basic_string@DU?$char_traits@D@std@@V?$allocator@D@2@@std@@V12@@std@@PEAX@std@@@std@@@?$_Tree_val@U?$_Tree_simple_types@U?$pair@$$CBV?$basic_string@DU?$char_traits@D@std@@V?$allocator@D@2@@std@@V12@@std@@@std@@@std@@QEAAXAEAV?$allocator@U?$_Tree_node@U?$pair@$$CBV?$basic_string@DU?$char_traits@D@std@@V?$allocator@D@2@@std@@V12@@std@@PEAX@std@@@1@@Z
	??$_Erase_tree@V?$allocator@U?$_Tree_node@U?$pair@$$CBV?$basic_string@DU?$char_traits@D@std@@V?$allocator@D@2@@std@@V12@@std@@PEAX@std@@@std@@@?$_Tree_val@U?$_Tree_simple_types@U?$pair@$$CBV?$basic_string@DU?$char_traits@D@std@@V?$allocator@D@2@@std@@V12@@std@@@std@@@std@@QEAAXAEAV?$allocator@U?$_Tree_node@U?$pair@$$CBV?$basic_string@DU?$char_traits@D@std@@V?$allocator@D@2@@std@@V12@@std@@PEAX@std@@@1@PEAU?$_Tree_node@U?$pair@$$CBV?$basic_string@DU?$char_traits@D@std@@V?$allocator@D@2@@std@@V12@@std@@PEAX@1@@Z
	??$_Freenode0@V?$allocator@U?$_Tree_node@U?$pair@$$CBV?$basic_string@DU?$char_traits@D@std@@V?$allocator@D@2@@std@@V12@@std@@PEAX@std@@@std@@@?$_Tree_node@U?$pair@$$CBV?$basic_string@DU?$char_traits@D@std@@V?$allocator@D@2@@std@@V12@@std@@PEAX@std@@SAXAEAV?$allocator@U?$_Tree_node@U?$pair@$$CBV?$basic_string@DU?$char_traits@D@std@@V?$allocator@D@2@@std@@V12@@std@@PEAX@std@@@1@PEAU01@@Z
	??$_Freenode@V?$allocator@U?$_Tree_node@U?$pair@$$CBV?$basic_string@DU?$char_traits@D@std@@V?$allocator@D@2@@std@@V12@@std@@PEAX@std@@@std@@@?$_Tree_node@U?$pair@$$CBV?$basic_string@DU?$char_traits@D@std@@V?$allocator@D@2@@std@@V12@@std@@PEAX@std@@SAXAEAV?$allocator@U?$_Tree_node@U?$pair@$$CBV?$basic_string@DU?$char_traits@D@std@@V?$allocator@D@2@@std@@V12@@std@@PEAX@std@@@1@PEAU01@@Z
	??$_Get_size_of_n@$00@std@@YA_K_K@Z
	??$_Get_size_of_n@$0BA@@std@@YA_K_K@Z
	??$_Get_size_of_n@$0BEI@@std@@YA_K_K@Z
	??$_Get_size_of_n@$0BI@@std@@YA_K_K@Z
	??$_Get_size_of_n@$0GA@@std@@YA_K_K@Z
	??$_Get_size_of_n@$0II@@std@@YA_K_K@Z
	??$_Get_unwrapped@AEBQEAU?$ColorRGBA_@V?$allocator@X@std@@@std_msgs@@@std@@YAPEAU?$ColorRGBA_@V?$allocator@X@std@@@std_msgs@@AEBQEAU12@@Z
	??$_Get_unwrapped@AEBQEAU?$InteractiveMarkerControl_@V?$allocator@X@std@@@visualization_msgs@@@std@@YAPEAU?$InteractiveMarkerControl_@V?$allocator@X@std@@@visualization_msgs@@AEBQEAU12@@Z
	??$_Get_unwrapped@AEBQEAU?$Marker_@V?$allocator@X@std@@@visualization_msgs@@@std@@YAPEAU?$Marker_@V?$allocator@X@std@@@visualization_msgs@@AEBQEAU12@@Z
	??$_Get_unwrapped@AEBQEAU?$Point_@V?$allocator@X@std@@@geometry_msgs@@@std@@YAPEAU?$Point_@V?$allocator@X@std@@@geometry_msgs@@AEBQEAU12@@Z
	??$_Getvals@_W@?$time_get@DV?$istreambuf_iterator@DU?$char_traits@D@std@@@std@@@std@@IEAAX_WAEBV_Locinfo@1@@Z
	??$_Getvals@_W@?$time_get@_WV?$istreambuf_iterator@_WU?$char_traits@_W@std@@@std@@@std@@IEAAX_WAEBV_Locinfo@1@@Z
	??$_Insert_string@DU?$char_traits@D@std@@_K@std@@YAAEAV?$basic_ostream@DU?$char_traits@D@std@@@0@AEAV10@QEBD_K@Z
	??$_Maklocstr@D@std@@YAPEADPEBDPEADAEBU_Cvtvec@@@Z
	??$_Maklocstr@_W@std@@YAPEA_WPEBDPEA_WAEBU_Cvtvec@@@Z
	??$_Pocca@V?$allocator@D@std@@@std@@YAXAEAV?$allocator@D@0@AEBV10@@Z
	??$_Pocma@V?$allocator@D@std@@@std@@YAXAEAV?$allocator@D@0@0@Z
	??$_Reallocate_for@V<lambda_138c3d7c38c85abb84c7fc7bfe5747b7>@@D@?$basic_string@DU?$char_traits@D@std@@V?$allocator@D@2@@std@@AEAAAEAV01@_KV<lambda_138c3d7c38c85abb84c7fc7bfe5747b7>@@D@Z
	??$_Reallocate_for@V<lambda_66f57f934f28d61049862f64df852ff0>@@PEBD@?$basic_string@DU?$char_traits@D@std@@V?$allocator@D@2@@std@@AEAAAEAV01@_KV<lambda_66f57f934f28d61049862f64df852ff0>@@PEBD@Z
	??$_Set_ptr_rep_and_enable_shared@VRobotState@core@moveit@@@?$shared_ptr@VRobotState@core@moveit@@@std@@AEAAXQEAVRobotState@core@moveit@@QEAV_Ref_count_base@1@@Z
	??$_Ucopy@PEAU?$ColorRGBA_@V?$allocator@X@std@@@std_msgs@@@?$vector@U?$ColorRGBA_@V?$allocator@X@std@@@std_msgs@@V?$allocator@U?$ColorRGBA_@V?$allocator@X@std@@@std_msgs@@@std@@@std@@AEAAPEAU?$ColorRGBA_@V?$allocator@X@std@@@std_msgs@@PEAU23@00@Z
	??$_Ucopy@PEAU?$Marker_@V?$allocator@X@std@@@visualization_msgs@@@?$vector@U?$Marker_@V?$allocator@X@std@@@visualization_msgs@@V?$allocator@U?$Marker_@V?$allocator@X@std@@@visualization_msgs@@@std@@@std@@AEAAPEAU?$Marker_@V?$allocator@X@std@@@visualization_msgs@@PEAU23@00@Z
	??$_Ucopy@PEAU?$Point_@V?$allocator@X@std@@@geometry_msgs@@@?$vector@U?$Point_@V?$allocator@X@std@@@geometry_msgs@@V?$allocator@U?$Point_@V?$allocator@X@std@@@geometry_msgs@@@std@@@std@@AEAAPEAU?$Point_@V?$allocator@X@std@@@geometry_msgs@@PEAU23@00@Z
	??$_Unfancy@D@std@@YAPEADPEAD@Z
	??$_Unfancy@U?$AttachedCollisionObject_@V?$allocator@X@std@@@moveit_msgs@@@std@@YAPEAU?$AttachedCollisionObject_@V?$allocator@X@std@@@moveit_msgs@@PEAU12@@Z
	??$_Unfancy@U?$ColorRGBA_@V?$allocator@X@std@@@std_msgs@@@std@@YAPEAU?$ColorRGBA_@V?$allocator@X@std@@@std_msgs@@PEAU12@@Z
	??$_Unfancy@U?$InteractiveMarkerControl_@V?$allocator@X@std@@@visualization_msgs@@@std@@YAPEAU?$InteractiveMarkerControl_@V?$allocator@X@std@@@visualization_msgs@@PEAU12@@Z
	??$_Unfancy@U?$JointTrajectoryPoint_@V?$allocator@X@std@@@trajectory_msgs@@@std@@YAPEAU?$JointTrajectoryPoint_@V?$allocator@X@std@@@trajectory_msgs@@PEAU12@@Z
	??$_Unfancy@U?$Marker_@V?$allocator@X@std@@@visualization_msgs@@@std@@YAPEAU?$Marker_@V?$allocator@X@std@@@visualization_msgs@@PEAU12@@Z
	??$_Unfancy@U?$MenuEntry_@V?$allocator@X@std@@@visualization_msgs@@@std@@YAPEAU?$MenuEntry_@V?$allocator@X@std@@@visualization_msgs@@PEAU12@@Z
	??$_Unfancy@U?$Mesh_@V?$allocator@X@std@@@shape_msgs@@@std@@YAPEAU?$Mesh_@V?$allocator@X@std@@@shape_msgs@@PEAU12@@Z
	??$_Unfancy@U?$ObjectColor_@V?$allocator@X@std@@@moveit_msgs@@@std@@YAPEAU?$ObjectColor_@V?$allocator@X@std@@@moveit_msgs@@PEAU12@@Z
	??$_Unfancy@U?$Point_@V?$allocator@X@std@@@geometry_msgs@@@std@@YAPEAU?$Point_@V?$allocator@X@std@@@geometry_msgs@@PEAU12@@Z
	??$_Unfancy@U?$SolidPrimitive_@V?$allocator@X@std@@@shape_msgs@@@std@@YAPEAU?$SolidPrimitive_@V?$allocator@X@std@@@shape_msgs@@PEAU12@@Z
	??$_Unfancy@V?$basic_string@DU?$char_traits@D@std@@V?$allocator@D@2@@std@@@std@@YAPEAV?$basic_string@DU?$char_traits@D@std@@V?$allocator@D@2@@0@PEAV10@@Z
	??$_Uninitialized_copy@PEAU?$ColorRGBA_@V?$allocator@X@std@@@std_msgs@@V?$allocator@U?$ColorRGBA_@V?$allocator@X@std@@@std_msgs@@@std@@@std@@YAPEAU?$ColorRGBA_@V?$allocator@X@std@@@std_msgs@@QEAU12@0PEAU12@AEAV?$allocator@U?$ColorRGBA_@V?$allocator@X@std@@@std_msgs@@@0@@Z
	??$_Uninitialized_copy@PEAU?$Marker_@V?$allocator@X@std@@@visualization_msgs@@V?$allocator@U?$Marker_@V?$allocator@X@std@@@visualization_msgs@@@std@@@std@@YAPEAU?$Marker_@V?$allocator@X@std@@@visualization_msgs@@QEAU12@0PEAU12@AEAV?$allocator@U?$Marker_@V?$allocator@X@std@@@visualization_msgs@@@0@@Z
	??$_Uninitialized_copy@PEAU?$Point_@V?$allocator@X@std@@@geometry_msgs@@V?$allocator@U?$Point_@V?$allocator@X@std@@@geometry_msgs@@@std@@@std@@YAPEAU?$Point_@V?$allocator@X@std@@@geometry_msgs@@QEAU12@0PEAU12@AEAV?$allocator@U?$Point_@V?$allocator@X@std@@@geometry_msgs@@@0@@Z
	??$_Uninitialized_move@PEAU?$InteractiveMarkerControl_@V?$allocator@X@std@@@visualization_msgs@@V?$allocator@U?$InteractiveMarkerControl_@V?$allocator@X@std@@@visualization_msgs@@@std@@@std@@YAPEAU?$InteractiveMarkerControl_@V?$allocator@X@std@@@visualization_msgs@@QEAU12@0PEAU12@AEAV?$allocator@U?$InteractiveMarkerControl_@V?$allocator@X@std@@@visualization_msgs@@@0@@Z
	??$_Uninitialized_move@PEAU?$Marker_@V?$allocator@X@std@@@visualization_msgs@@V?$allocator@U?$Marker_@V?$allocator@X@std@@@visualization_msgs@@@std@@@std@@YAPEAU?$Marker_@V?$allocator@X@std@@@visualization_msgs@@QEAU12@0PEAU12@AEAV?$allocator@U?$Marker_@V?$allocator@X@std@@@visualization_msgs@@@0@@Z
	??$_Voidify_iter@PEAPEAD@std@@YAPEAXPEAPEAD@Z
	??$_Voidify_iter@PEAPEAU?$_Tree_node@U?$pair@$$CBV?$basic_string@DU?$char_traits@D@std@@V?$allocator@D@2@@std@@V12@@std@@PEAX@std@@@std@@YAPEAXPEAPEAU?$_Tree_node@U?$pair@$$CBV?$basic_string@DU?$char_traits@D@std@@V?$allocator@D@2@@std@@V12@@std@@PEAX@0@@Z
	??$_init1@V?$Product@V?$Matrix@N$02$00$0A@$02$00@Eigen@@V?$Block@V?$Matrix@N$03$03$0A@$03$03@Eigen@@$00$03$0A@@2@$0A@@Eigen@@V12@@?$PlainObjectBase@V?$Matrix@N$02$03$0A@$02$03@Eigen@@@Eigen@@IEAAXAEBV?$DenseBase@V?$Product@V?$Matrix@N$02$00$0A@$02$00@Eigen@@V?$Block@V?$Matrix@N$03$03$0A@$03$03@Eigen@@$00$03$0A@@2@$0A@@Eigen@@@1@@Z
	??$_set@V?$Matrix@N$03$03$0A@$03$03@Eigen@@@?$PlainObjectBase@V?$Matrix@N$03$03$0A@$03$03@Eigen@@@Eigen@@IEAAAEAV?$Matrix@N$03$03$0A@$03$03@1@AEBV?$DenseBase@V?$Matrix@N$03$03$0A@$03$03@Eigen@@@1@@Z
	??$_set_noalias@V?$Block@$$CBV?$Matrix@N$03$03$0A@$03$03@Eigen@@$02$00$00@Eigen@@@?$PlainObjectBase@V?$Matrix@N$02$00$0A@$02$00@Eigen@@@Eigen@@IEAAAEAV?$Matrix@N$02$00$0A@$02$00@1@AEBV?$DenseBase@V?$Block@$$CBV?$Matrix@N$03$03$0A@$03$03@Eigen@@$02$00$00@Eigen@@@1@@Z
	??$_set_noalias@V?$Matrix@N$02$02$0A@$02$02@Eigen@@@?$PlainObjectBase@V?$Matrix@N$02$02$0A@$02$02@Eigen@@@Eigen@@IEAAAEAV?$Matrix@N$02$02$0A@$02$02@1@AEBV?$DenseBase@V?$Matrix@N$02$02$0A@$02$02@Eigen@@@1@@Z
	??$_set_noalias@V?$Product@V?$Matrix@N$02$00$0A@$02$00@Eigen@@V?$Block@V?$Matrix@N$03$03$0A@$03$03@Eigen@@$00$03$0A@@2@$0A@@Eigen@@@?$PlainObjectBase@V?$Matrix@N$02$03$0A@$02$03@Eigen@@@Eigen@@IEAAAEAV?$Matrix@N$02$03$0A@$02$03@1@AEBV?$DenseBase@V?$Product@V?$Matrix@N$02$00$0A@$02$00@Eigen@@V?$Block@V?$Matrix@N$03$03$0A@$03$03@Eigen@@$00$03$0A@@2@$0A@@Eigen@@@1@@Z
	??$addressof@$$CBU?$DisplayRobotState_@V?$allocator@X@std@@@moveit_msgs@@@boost@@YAPEBU?$DisplayRobotState_@V?$allocator@X@std@@@moveit_msgs@@AEBU12@@Z
	??$addressof@$$CBU?$Marker_@V?$allocator@X@std@@@visualization_msgs@@@boost@@YAPEBU?$Marker_@V?$allocator@X@std@@@visualization_msgs@@AEBU12@@Z
	??$addressof@$$CBV?$_String_val@U?$_Simple_types@D@std@@@std@@@std@@YAPEBV?$_String_val@U?$_Simple_types@D@std@@@0@AEBV10@@Z
	??$addressof@$$CBV?$_Vector_val@U?$_Simple_types@U?$AttachedCollisionObject_@V?$allocator@X@std@@@moveit_msgs@@@std@@@std@@@std@@YAPEBV?$_Vector_val@U?$_Simple_types@U?$AttachedCollisionObject_@V?$allocator@X@std@@@moveit_msgs@@@std@@@0@AEBV10@@Z
	??$addressof@$$CBV?$_Vector_val@U?$_Simple_types@U?$ColorRGBA_@V?$allocator@X@std@@@std_msgs@@@std@@@std@@@std@@YAPEBV?$_Vector_val@U?$_Simple_types@U?$ColorRGBA_@V?$allocator@X@std@@@std_msgs@@@std@@@0@AEBV10@@Z
	??$addressof@$$CBV?$_Vector_val@U?$_Simple_types@U?$JointTrajectoryPoint_@V?$allocator@X@std@@@trajectory_msgs@@@std@@@std@@@std@@YAPEBV?$_Vector_val@U?$_Simple_types@U?$JointTrajectoryPoint_@V?$allocator@X@std@@@trajectory_msgs@@@std@@@0@AEBV10@@Z
	??$addressof@$$CBV?$_Vector_val@U?$_Simple_types@U?$MeshTriangle_@V?$allocator@X@std@@@shape_msgs@@@std@@@std@@@std@@YAPEBV?$_Vector_val@U?$_Simple_types@U?$MeshTriangle_@V?$allocator@X@std@@@shape_msgs@@@std@@@0@AEBV10@@Z
	??$addressof@$$CBV?$_Vector_val@U?$_Simple_types@U?$Mesh_@V?$allocator@X@std@@@shape_msgs@@@std@@@std@@@std@@YAPEBV?$_Vector_val@U?$_Simple_types@U?$Mesh_@V?$allocator@X@std@@@shape_msgs@@@std@@@0@AEBV10@@Z
	??$addressof@$$CBV?$_Vector_val@U?$_Simple_types@U?$ObjectColor_@V?$allocator@X@std@@@moveit_msgs@@@std@@@std@@@std@@YAPEBV?$_Vector_val@U?$_Simple_types@U?$ObjectColor_@V?$allocator@X@std@@@moveit_msgs@@@std@@@0@AEBV10@@Z
	??$addressof@$$CBV?$_Vector_val@U?$_Simple_types@U?$Plane_@V?$allocator@X@std@@@shape_msgs@@@std@@@std@@@std@@YAPEBV?$_Vector_val@U?$_Simple_types@U?$Plane_@V?$allocator@X@std@@@shape_msgs@@@std@@@0@AEBV10@@Z
	??$addressof@$$CBV?$_Vector_val@U?$_Simple_types@U?$Point_@V?$allocator@X@std@@@geometry_msgs@@@std@@@std@@@std@@YAPEBV?$_Vector_val@U?$_Simple_types@U?$Point_@V?$allocator@X@std@@@geometry_msgs@@@std@@@0@AEBV10@@Z
	??$addressof@$$CBV?$_Vector_val@U?$_Simple_types@U?$Pose_@V?$allocator@X@std@@@geometry_msgs@@@std@@@std@@@std@@YAPEBV?$_Vector_val@U?$_Simple_types@U?$Pose_@V?$allocator@X@std@@@geometry_msgs@@@std@@@0@AEBV10@@Z
	??$addressof@$$CBV?$_Vector_val@U?$_Simple_types@U?$SolidPrimitive_@V?$allocator@X@std@@@shape_msgs@@@std@@@std@@@std@@YAPEBV?$_Vector_val@U?$_Simple_types@U?$SolidPrimitive_@V?$allocator@X@std@@@shape_msgs@@@std@@@0@AEBV10@@Z
	??$addressof@$$CBV?$_Vector_val@U?$_Simple_types@U?$Transform_@V?$allocator@X@std@@@geometry_msgs@@@std@@@std@@@std@@YAPEBV?$_Vector_val@U?$_Simple_types@U?$Transform_@V?$allocator@X@std@@@geometry_msgs@@@std@@@0@AEBV10@@Z
	??$addressof@$$CBV?$_Vector_val@U?$_Simple_types@U?$Twist_@V?$allocator@X@std@@@geometry_msgs@@@std@@@std@@@std@@YAPEBV?$_Vector_val@U?$_Simple_types@U?$Twist_@V?$allocator@X@std@@@geometry_msgs@@@std@@@0@AEBV10@@Z
	??$addressof@$$CBV?$_Vector_val@U?$_Simple_types@U?$Wrench_@V?$allocator@X@std@@@geometry_msgs@@@std@@@std@@@std@@YAPEBV?$_Vector_val@U?$_Simple_types@U?$Wrench_@V?$allocator@X@std@@@geometry_msgs@@@std@@@0@AEBV10@@Z
	??$addressof@$$CBV?$_Vector_val@U?$_Simple_types@V?$basic_string@DU?$char_traits@D@std@@V?$allocator@D@2@@std@@@std@@@std@@@std@@YAPEBV?$_Vector_val@U?$_Simple_types@V?$basic_string@DU?$char_traits@D@std@@V?$allocator@D@2@@std@@@std@@@0@AEBV10@@Z
	??$addressof@$$CBV?$basic_string@DU?$char_traits@D@std@@V?$allocator@D@2@@std@@@std@@YAPEBV?$basic_string@DU?$char_traits@D@std@@V?$allocator@D@2@@0@AEBV10@@Z
	??$addressof@D@std@@YAPEADAEAD@Z
	??$addressof@PEAD@std@@YAPEAPEADAEAPEAD@Z
	??$addressof@PEAU?$_Tree_node@U?$pair@$$CBV?$basic_string@DU?$char_traits@D@std@@V?$allocator@D@2@@std@@V12@@std@@PEAX@std@@@std@@YAPEAPEAU?$_Tree_node@U?$pair@$$CBV?$basic_string@DU?$char_traits@D@std@@V?$allocator@D@2@@std@@V12@@std@@PEAX@0@AEAPEAU10@@Z
	??$addressof@U?$checked_array_deleter@E@boost@@@boost@@YAPEAU?$checked_array_deleter@E@0@AEAU10@@Z
	??$addressof@U?$pair@$$CBV?$basic_string@DU?$char_traits@D@std@@V?$allocator@D@2@@std@@V12@@std@@@std@@YAPEAU?$pair@$$CBV?$basic_string@DU?$char_traits@D@std@@V?$allocator@D@2@@std@@V12@@0@AEAU10@@Z
	??$addressof@V?$_String_val@U?$_Simple_types@D@std@@@std@@@std@@YAPEAV?$_String_val@U?$_Simple_types@D@std@@@0@AEAV10@@Z
	??$addressof@V?$_Tree_val@U?$_Tree_simple_types@U?$pair@$$CBV?$basic_string@DU?$char_traits@D@std@@V?$allocator@D@2@@std@@V12@@std@@@std@@@std@@@std@@YAPEAV?$_Tree_val@U?$_Tree_simple_types@U?$pair@$$CBV?$basic_string@DU?$char_traits@D@std@@V?$allocator@D@2@@std@@V12@@std@@@std@@@0@AEAV10@@Z
	??$addressof@V?$basic_string@DU?$char_traits@D@std@@V?$allocator@D@2@@std@@@std@@YAPEAV?$basic_string@DU?$char_traits@D@std@@V?$allocator@D@2@@0@AEAV10@@Z
	??$addressof@V?$basic_stringbuf@DU?$char_traits@D@std@@V?$allocator@D@2@@std@@@std@@YAPEAV?$basic_stringbuf@DU?$char_traits@D@std@@V?$allocator@D@2@@0@AEAV10@@Z
	??$addressof@V?$bind_t@VSerializedMessage@ros@@P6A?AV12@AEBU?$DisplayRobotState_@V?$allocator@X@std@@@moveit_msgs@@@ZV?$list1@V?$reference_wrapper@$$CBU?$DisplayRobotState_@V?$allocator@X@std@@@moveit_msgs@@@boost@@@_bi@boost@@@_bi@boost@@@boost@@YAPEAV?$bind_t@VSerializedMessage@ros@@P6A?AV12@AEBU?$DisplayRobotState_@V?$allocator@X@std@@@moveit_msgs@@@ZV?$list1@V?$reference_wrapper@$$CBU?$DisplayRobotState_@V?$allocator@X@std@@@moveit_msgs@@@boost@@@_bi@boost@@@_bi@0@AEAV120@@Z
	??$addressof@V?$bind_t@VSerializedMessage@ros@@P6A?AV12@AEBU?$Marker_@V?$allocator@X@std@@@visualization_msgs@@@ZV?$list1@V?$reference_wrapper@$$CBU?$Marker_@V?$allocator@X@std@@@visualization_msgs@@@boost@@@_bi@boost@@@_bi@boost@@@boost@@YAPEAV?$bind_t@VSerializedMessage@ros@@P6A?AV12@AEBU?$Marker_@V?$allocator@X@std@@@visualization_msgs@@@ZV?$list1@V?$reference_wrapper@$$CBU?$Marker_@V?$allocator@X@std@@@visualization_msgs@@@boost@@@_bi@boost@@@_bi@0@AEAV120@@Z
	??$addressof@V?$bind_t@XP6AXPEAVInteractiveRobot@@AEBV?$shared_ptr@$$CBU?$InteractiveMarkerFeedback_@V?$allocator@X@std@@@visualization_msgs@@@boost@@@ZV?$list2@V?$value@PEAVInteractiveRobot@@@_bi@boost@@U?$arg@$00@3@@_bi@3@@_bi@boost@@@boost@@YAPEAV?$bind_t@XP6AXPEAVInteractiveRobot@@AEBV?$shared_ptr@$$CBU?$InteractiveMarkerFeedback_@V?$allocator@X@std@@@visualization_msgs@@@boost@@@ZV?$list2@V?$value@PEAVInteractiveRobot@@@_bi@boost@@U?$arg@$00@3@@_bi@3@@_bi@0@AEAV120@@Z
	??$addressof@V?$bind_t@XV?$mf1@XVInteractiveRobot@@AEBUTimerEvent@ros@@@_mfi@boost@@V?$list2@V?$value@PEAVInteractiveRobot@@@_bi@boost@@U?$arg@$00@3@@_bi@3@@_bi@boost@@@boost@@YAPEAV?$bind_t@XV?$mf1@XVInteractiveRobot@@AEBUTimerEvent@ros@@@_mfi@boost@@V?$list2@V?$value@PEAVInteractiveRobot@@@_bi@boost@@U?$arg@$00@3@@_bi@3@@_bi@0@AEAV120@@Z
	??$advertise@U?$DisplayRobotState_@V?$allocator@X@std@@@moveit_msgs@@@NodeHandle@ros@@QEAA?AVPublisher@1@AEBV?$basic_string@DU?$char_traits@D@std@@V?$allocator@D@2@@std@@I_N@Z
	??$advertise@U?$Marker_@V?$allocator@X@std@@@visualization_msgs@@@NodeHandle@ros@@QEAA?AVPublisher@1@AEBV?$basic_string@DU?$char_traits@D@std@@V?$allocator@D@2@@std@@I_N@Z
	??$allInOne@ULStream@serialization@ros@@AEBU?$AttachedCollisionObject_@V?$allocator@X@std@@@moveit_msgs@@@?$Serializer@U?$AttachedCollisionObject_@V?$allocator@X@std@@@moveit_msgs@@@serialization@ros@@SAXAEAULStream@12@AEBU?$AttachedCollisionObject_@V?$allocator@X@std@@@moveit_msgs@@@Z
	??$allInOne@ULStream@serialization@ros@@AEBU?$CollisionObject_@V?$allocator@X@std@@@moveit_msgs@@@?$Serializer@U?$CollisionObject_@V?$allocator@X@std@@@moveit_msgs@@@serialization@ros@@SAXAEAULStream@12@AEBU?$CollisionObject_@V?$allocator@X@std@@@moveit_msgs@@@Z
	??$allInOne@ULStream@serialization@ros@@AEBU?$ColorRGBA_@V?$allocator@X@std@@@std_msgs@@@?$Serializer@U?$ColorRGBA_@V?$allocator@X@std@@@std_msgs@@@serialization@ros@@SAXAEAULStream@12@AEBU?$ColorRGBA_@V?$allocator@X@std@@@std_msgs@@@Z
	??$allInOne@ULStream@serialization@ros@@AEBU?$DisplayRobotState_@V?$allocator@X@std@@@moveit_msgs@@@?$Serializer@U?$DisplayRobotState_@V?$allocator@X@std@@@moveit_msgs@@@serialization@ros@@SAXAEAULStream@12@AEBU?$DisplayRobotState_@V?$allocator@X@std@@@moveit_msgs@@@Z
	??$allInOne@ULStream@serialization@ros@@AEBU?$Header_@V?$allocator@X@std@@@std_msgs@@@?$Serializer@U?$Header_@V?$allocator@X@std@@@std_msgs@@@serialization@ros@@SAXAEAULStream@12@AEBU?$Header_@V?$allocator@X@std@@@std_msgs@@@Z
	??$allInOne@ULStream@serialization@ros@@AEBU?$JointState_@V?$allocator@X@std@@@sensor_msgs@@@?$Serializer@U?$JointState_@V?$allocator@X@std@@@sensor_msgs@@@serialization@ros@@SAXAEAULStream@12@AEBU?$JointState_@V?$allocator@X@std@@@sensor_msgs@@@Z
	??$allInOne@ULStream@serialization@ros@@AEBU?$JointTrajectoryPoint_@V?$allocator@X@std@@@trajectory_msgs@@@?$Serializer@U?$JointTrajectoryPoint_@V?$allocator@X@std@@@trajectory_msgs@@@serialization@ros@@SAXAEAULStream@12@AEBU?$JointTrajectoryPoint_@V?$allocator@X@std@@@trajectory_msgs@@@Z
	??$allInOne@ULStream@serialization@ros@@AEBU?$JointTrajectory_@V?$allocator@X@std@@@trajectory_msgs@@@?$Serializer@U?$JointTrajectory_@V?$allocator@X@std@@@trajectory_msgs@@@serialization@ros@@SAXAEAULStream@12@AEBU?$JointTrajectory_@V?$allocator@X@std@@@trajectory_msgs@@@Z
	??$allInOne@ULStream@serialization@ros@@AEBU?$Marker_@V?$allocator@X@std@@@visualization_msgs@@@?$Serializer@U?$Marker_@V?$allocator@X@std@@@visualization_msgs@@@serialization@ros@@SAXAEAULStream@12@AEBU?$Marker_@V?$allocator@X@std@@@visualization_msgs@@@Z
	??$allInOne@ULStream@serialization@ros@@AEBU?$MeshTriangle_@V?$allocator@X@std@@@shape_msgs@@@?$Serializer@U?$MeshTriangle_@V?$allocator@X@std@@@shape_msgs@@@serialization@ros@@SAXAEAULStream@12@AEBU?$MeshTriangle_@V?$allocator@X@std@@@shape_msgs@@@Z
	??$allInOne@ULStream@serialization@ros@@AEBU?$Mesh_@V?$allocator@X@std@@@shape_msgs@@@?$Serializer@U?$Mesh_@V?$allocator@X@std@@@shape_msgs@@@serialization@ros@@SAXAEAULStream@12@AEBU?$Mesh_@V?$allocator@X@std@@@shape_msgs@@@Z
	??$allInOne@ULStream@serialization@ros@@AEBU?$MultiDOFJointState_@V?$allocator@X@std@@@sensor_msgs@@@?$Serializer@U?$MultiDOFJointState_@V?$allocator@X@std@@@sensor_msgs@@@serialization@ros@@SAXAEAULStream@12@AEBU?$MultiDOFJointState_@V?$allocator@X@std@@@sensor_msgs@@@Z
	??$allInOne@ULStream@serialization@ros@@AEBU?$ObjectColor_@V?$allocator@X@std@@@moveit_msgs@@@?$Serializer@U?$ObjectColor_@V?$allocator@X@std@@@moveit_msgs@@@serialization@ros@@SAXAEAULStream@12@AEBU?$ObjectColor_@V?$allocator@X@std@@@moveit_msgs@@@Z
	??$allInOne@ULStream@serialization@ros@@AEBU?$ObjectType_@V?$allocator@X@std@@@object_recognition_msgs@@@?$Serializer@U?$ObjectType_@V?$allocator@X@std@@@object_recognition_msgs@@@serialization@ros@@SAXAEAULStream@12@AEBU?$ObjectType_@V?$allocator@X@std@@@object_recognition_msgs@@@Z
	??$allInOne@ULStream@serialization@ros@@AEBU?$Plane_@V?$allocator@X@std@@@shape_msgs@@@?$Serializer@U?$Plane_@V?$allocator@X@std@@@shape_msgs@@@serialization@ros@@SAXAEAULStream@12@AEBU?$Plane_@V?$allocator@X@std@@@shape_msgs@@@Z
	??$allInOne@ULStream@serialization@ros@@AEBU?$Point_@V?$allocator@X@std@@@geometry_msgs@@@?$Serializer@U?$Point_@V?$allocator@X@std@@@geometry_msgs@@@serialization@ros@@SAXAEAULStream@12@AEBU?$Point_@V?$allocator@X@std@@@geometry_msgs@@@Z
	??$allInOne@ULStream@serialization@ros@@AEBU?$Pose_@V?$allocator@X@std@@@geometry_msgs@@@?$Serializer@U?$Pose_@V?$allocator@X@std@@@geometry_msgs@@@serialization@ros@@SAXAEAULStream@12@AEBU?$Pose_@V?$allocator@X@std@@@geometry_msgs@@@Z
	??$allInOne@ULStream@serialization@ros@@AEBU?$Quaternion_@V?$allocator@X@std@@@geometry_msgs@@@?$Serializer@U?$Quaternion_@V?$allocator@X@std@@@geometry_msgs@@@serialization@ros@@SAXAEAULStream@12@AEBU?$Quaternion_@V?$allocator@X@std@@@geometry_msgs@@@Z
	??$allInOne@ULStream@serialization@ros@@AEBU?$RobotState_@V?$allocator@X@std@@@moveit_msgs@@@?$Serializer@U?$RobotState_@V?$allocator@X@std@@@moveit_msgs@@@serialization@ros@@SAXAEAULStream@12@AEBU?$RobotState_@V?$allocator@X@std@@@moveit_msgs@@@Z
	??$allInOne@ULStream@serialization@ros@@AEBU?$SolidPrimitive_@V?$allocator@X@std@@@shape_msgs@@@?$Serializer@U?$SolidPrimitive_@V?$allocator@X@std@@@shape_msgs@@@serialization@ros@@SAXAEAULStream@12@AEBU?$SolidPrimitive_@V?$allocator@X@std@@@shape_msgs@@@Z
	??$allInOne@ULStream@serialization@ros@@AEBU?$Transform_@V?$allocator@X@std@@@geometry_msgs@@@?$Serializer@U?$Transform_@V?$allocator@X@std@@@geometry_msgs@@@serialization@ros@@SAXAEAULStream@12@AEBU?$Transform_@V?$allocator@X@std@@@geometry_msgs@@@Z
	??$allInOne@ULStream@serialization@ros@@AEBU?$Twist_@V?$allocator@X@std@@@geometry_msgs@@@?$Serializer@U?$Twist_@V?$allocator@X@std@@@geometry_msgs@@@serialization@ros@@SAXAEAULStream@12@AEBU?$Twist_@V?$allocator@X@std@@@geometry_msgs@@@Z
	??$allInOne@ULStream@serialization@ros@@AEBU?$Vector3_@V?$allocator@X@std@@@geometry_msgs@@@?$Serializer@U?$Vector3_@V?$allocator@X@std@@@geometry_msgs@@@serialization@ros@@SAXAEAULStream@12@AEBU?$Vector3_@V?$allocator@X@std@@@geometry_msgs@@@Z
	??$allInOne@ULStream@serialization@ros@@AEBU?$Wrench_@V?$allocator@X@std@@@geometry_msgs@@@?$Serializer@U?$Wrench_@V?$allocator@X@std@@@geometry_msgs@@@serialization@ros@@SAXAEAULStream@12@AEBU?$Wrench_@V?$allocator@X@std@@@geometry_msgs@@@Z
	??$allInOne@UOStream@serialization@ros@@AEBU?$AttachedCollisionObject_@V?$allocator@X@std@@@moveit_msgs@@@?$Serializer@U?$AttachedCollisionObject_@V?$allocator@X@std@@@moveit_msgs@@@serialization@ros@@SAXAEAUOStream@12@AEBU?$AttachedCollisionObject_@V?$allocator@X@std@@@moveit_msgs@@@Z
	??$allInOne@UOStream@serialization@ros@@AEBU?$CollisionObject_@V?$allocator@X@std@@@moveit_msgs@@@?$Serializer@U?$CollisionObject_@V?$allocator@X@std@@@moveit_msgs@@@serialization@ros@@SAXAEAUOStream@12@AEBU?$CollisionObject_@V?$allocator@X@std@@@moveit_msgs@@@Z
	??$allInOne@UOStream@serialization@ros@@AEBU?$ColorRGBA_@V?$allocator@X@std@@@std_msgs@@@?$Serializer@U?$ColorRGBA_@V?$allocator@X@std@@@std_msgs@@@serialization@ros@@SAXAEAUOStream@12@AEBU?$ColorRGBA_@V?$allocator@X@std@@@std_msgs@@@Z
	??$allInOne@UOStream@serialization@ros@@AEBU?$DisplayRobotState_@V?$allocator@X@std@@@moveit_msgs@@@?$Serializer@U?$DisplayRobotState_@V?$allocator@X@std@@@moveit_msgs@@@serialization@ros@@SAXAEAUOStream@12@AEBU?$DisplayRobotState_@V?$allocator@X@std@@@moveit_msgs@@@Z
	??$allInOne@UOStream@serialization@ros@@AEBU?$Header_@V?$allocator@X@std@@@std_msgs@@@?$Serializer@U?$Header_@V?$allocator@X@std@@@std_msgs@@@serialization@ros@@SAXAEAUOStream@12@AEBU?$Header_@V?$allocator@X@std@@@std_msgs@@@Z
	??$allInOne@UOStream@serialization@ros@@AEBU?$JointState_@V?$allocator@X@std@@@sensor_msgs@@@?$Serializer@U?$JointState_@V?$allocator@X@std@@@sensor_msgs@@@serialization@ros@@SAXAEAUOStream@12@AEBU?$JointState_@V?$allocator@X@std@@@sensor_msgs@@@Z
	??$allInOne@UOStream@serialization@ros@@AEBU?$JointTrajectoryPoint_@V?$allocator@X@std@@@trajectory_msgs@@@?$Serializer@U?$JointTrajectoryPoint_@V?$allocator@X@std@@@trajectory_msgs@@@serialization@ros@@SAXAEAUOStream@12@AEBU?$JointTrajectoryPoint_@V?$allocator@X@std@@@trajectory_msgs@@@Z
	??$allInOne@UOStream@serialization@ros@@AEBU?$JointTrajectory_@V?$allocator@X@std@@@trajectory_msgs@@@?$Serializer@U?$JointTrajectory_@V?$allocator@X@std@@@trajectory_msgs@@@serialization@ros@@SAXAEAUOStream@12@AEBU?$JointTrajectory_@V?$allocator@X@std@@@trajectory_msgs@@@Z
	??$allInOne@UOStream@serialization@ros@@AEBU?$Marker_@V?$allocator@X@std@@@visualization_msgs@@@?$Serializer@U?$Marker_@V?$allocator@X@std@@@visualization_msgs@@@serialization@ros@@SAXAEAUOStream@12@AEBU?$Marker_@V?$allocator@X@std@@@visualization_msgs@@@Z
	??$allInOne@UOStream@serialization@ros@@AEBU?$MeshTriangle_@V?$allocator@X@std@@@shape_msgs@@@?$Serializer@U?$MeshTriangle_@V?$allocator@X@std@@@shape_msgs@@@serialization@ros@@SAXAEAUOStream@12@AEBU?$MeshTriangle_@V?$allocator@X@std@@@shape_msgs@@@Z
	??$allInOne@UOStream@serialization@ros@@AEBU?$Mesh_@V?$allocator@X@std@@@shape_msgs@@@?$Serializer@U?$Mesh_@V?$allocator@X@std@@@shape_msgs@@@serialization@ros@@SAXAEAUOStream@12@AEBU?$Mesh_@V?$allocator@X@std@@@shape_msgs@@@Z
	??$allInOne@UOStream@serialization@ros@@AEBU?$MultiDOFJointState_@V?$allocator@X@std@@@sensor_msgs@@@?$Serializer@U?$MultiDOFJointState_@V?$allocator@X@std@@@sensor_msgs@@@serialization@ros@@SAXAEAUOStream@12@AEBU?$MultiDOFJointState_@V?$allocator@X@std@@@sensor_msgs@@@Z
	??$allInOne@UOStream@serialization@ros@@AEBU?$ObjectColor_@V?$allocator@X@std@@@moveit_msgs@@@?$Serializer@U?$ObjectColor_@V?$allocator@X@std@@@moveit_msgs@@@serialization@ros@@SAXAEAUOStream@12@AEBU?$ObjectColor_@V?$allocator@X@std@@@moveit_msgs@@@Z
	??$allInOne@UOStream@serialization@ros@@AEBU?$ObjectType_@V?$allocator@X@std@@@object_recognition_msgs@@@?$Serializer@U?$ObjectType_@V?$allocator@X@std@@@object_recognition_msgs@@@serialization@ros@@SAXAEAUOStream@12@AEBU?$ObjectType_@V?$allocator@X@std@@@object_recognition_msgs@@@Z
	??$allInOne@UOStream@serialization@ros@@AEBU?$Plane_@V?$allocator@X@std@@@shape_msgs@@@?$Serializer@U?$Plane_@V?$allocator@X@std@@@shape_msgs@@@serialization@ros@@SAXAEAUOStream@12@AEBU?$Plane_@V?$allocator@X@std@@@shape_msgs@@@Z
	??$allInOne@UOStream@serialization@ros@@AEBU?$Point_@V?$allocator@X@std@@@geometry_msgs@@@?$Serializer@U?$Point_@V?$allocator@X@std@@@geometry_msgs@@@serialization@ros@@SAXAEAUOStream@12@AEBU?$Point_@V?$allocator@X@std@@@geometry_msgs@@@Z
	??$allInOne@UOStream@serialization@ros@@AEBU?$Pose_@V?$allocator@X@std@@@geometry_msgs@@@?$Serializer@U?$Pose_@V?$allocator@X@std@@@geometry_msgs@@@serialization@ros@@SAXAEAUOStream@12@AEBU?$Pose_@V?$allocator@X@std@@@geometry_msgs@@@Z
	??$allInOne@UOStream@serialization@ros@@AEBU?$Quaternion_@V?$allocator@X@std@@@geometry_msgs@@@?$Serializer@U?$Quaternion_@V?$allocator@X@std@@@geometry_msgs@@@serialization@ros@@SAXAEAUOStream@12@AEBU?$Quaternion_@V?$allocator@X@std@@@geometry_msgs@@@Z
	??$allInOne@UOStream@serialization@ros@@AEBU?$RobotState_@V?$allocator@X@std@@@moveit_msgs@@@?$Serializer@U?$RobotState_@V?$allocator@X@std@@@moveit_msgs@@@serialization@ros@@SAXAEAUOStream@12@AEBU?$RobotState_@V?$allocator@X@std@@@moveit_msgs@@@Z
	??$allInOne@UOStream@serialization@ros@@AEBU?$SolidPrimitive_@V?$allocator@X@std@@@shape_msgs@@@?$Serializer@U?$SolidPrimitive_@V?$allocator@X@std@@@shape_msgs@@@serialization@ros@@SAXAEAUOStream@12@AEBU?$SolidPrimitive_@V?$allocator@X@std@@@shape_msgs@@@Z
	??$allInOne@UOStream@serialization@ros@@AEBU?$Transform_@V?$allocator@X@std@@@geometry_msgs@@@?$Serializer@U?$Transform_@V?$allocator@X@std@@@geometry_msgs@@@serialization@ros@@SAXAEAUOStream@12@AEBU?$Transform_@V?$allocator@X@std@@@geometry_msgs@@@Z
	??$allInOne@UOStream@serialization@ros@@AEBU?$Twist_@V?$allocator@X@std@@@geometry_msgs@@@?$Serializer@U?$Twist_@V?$allocator@X@std@@@geometry_msgs@@@serialization@ros@@SAXAEAUOStream@12@AEBU?$Twist_@V?$allocator@X@std@@@geometry_msgs@@@Z
	??$allInOne@UOStream@serialization@ros@@AEBU?$Vector3_@V?$allocator@X@std@@@geometry_msgs@@@?$Serializer@U?$Vector3_@V?$allocator@X@std@@@geometry_msgs@@@serialization@ros@@SAXAEAUOStream@12@AEBU?$Vector3_@V?$allocator@X@std@@@geometry_msgs@@@Z
	??$allInOne@UOStream@serialization@ros@@AEBU?$Wrench_@V?$allocator@X@std@@@geometry_msgs@@@?$Serializer@U?$Wrench_@V?$allocator@X@std@@@geometry_msgs@@@serialization@ros@@SAXAEAUOStream@12@AEBU?$Wrench_@V?$allocator@X@std@@@geometry_msgs@@@Z
	??$assignPacket@$0A@$0A@U__m128d@@@?$generic_dense_assignment_kernel@U?$evaluator@V?$Block@V?$Matrix@N$03$03$0A@$03$03@Eigen@@$02$02$0A@@Eigen@@@internal@Eigen@@U?$evaluator@V?$Matrix@N$02$02$0A@$02$02@Eigen@@@23@U?$assign_op@NN@23@$0A@@internal@Eigen@@QEAAX_J0@Z
	??$assignPacket@$0A@$0A@U__m128d@@@?$generic_dense_assignment_kernel@U?$evaluator@V?$Block@V?$Matrix@N$03$03$0A@$03$03@Eigen@@$02$03$0A@@Eigen@@@internal@Eigen@@U?$evaluator@V?$Matrix@N$02$03$0A@$02$03@Eigen@@@23@U?$add_assign_op@NN@23@$0A@@internal@Eigen@@QEAAX_J0@Z
	??$assignPacket@$0A@$0A@U__m128d@@@?$generic_dense_assignment_kernel@U?$evaluator@V?$Matrix@N$02$02$0A@$02$02@Eigen@@@internal@Eigen@@U123@U?$assign_op@NN@23@$0A@@internal@Eigen@@QEAAX_J0@Z
	??$assignPacket@$0A@$0A@U__m128d@@@?$generic_dense_assignment_kernel@U?$evaluator@V?$Matrix@N$02$03$0A@$02$03@Eigen@@@internal@Eigen@@U?$evaluator@V?$Product@V?$Matrix@N$02$00$0A@$02$00@Eigen@@V?$Block@V?$Matrix@N$03$03$0A@$03$03@Eigen@@$00$03$0A@@2@$00@Eigen@@@23@U?$assign_op@NN@23@$0A@@internal@Eigen@@QEAAX_J0@Z
	??$assignPacket@$0A@$0BA@U__m128d@@@?$generic_dense_assignment_kernel@U?$evaluator@V?$Matrix@N$02$00$0A@$02$00@Eigen@@@internal@Eigen@@U?$evaluator@V?$Block@$$CBV?$Matrix@N$03$03$0A@$03$03@Eigen@@$02$00$00@Eigen@@@23@U?$assign_op@NN@23@$0A@@internal@Eigen@@QEAAX_J0@Z
	??$assignPacket@$0A@U__m128d@@@?$add_assign_op@NN@internal@Eigen@@QEBAXPEANAEBU__m128d@@@Z
	??$assignPacket@$0A@U__m128d@@@?$assign_op@NN@internal@Eigen@@QEBAXPEANAEBU__m128d@@@Z
	??$assignPacket@$0BA@$0A@U__m128d@@@?$generic_dense_assignment_kernel@U?$evaluator@V?$Block@V?$Matrix@N$03$03$0A@$03$03@Eigen@@$02$00$00@Eigen@@@internal@Eigen@@U?$evaluator@V?$Matrix@N$02$00$0A@$02$00@Eigen@@@23@U?$add_assign_op@NN@23@$0A@@internal@Eigen@@QEAAX_J0@Z
	??$assignPacket@$0BA@$0A@U__m128d@@@?$generic_dense_assignment_kernel@U?$evaluator@V?$Block@V?$Matrix@N$03$03$0A@$03$03@Eigen@@$02$00$00@Eigen@@@internal@Eigen@@U?$evaluator@V?$Matrix@N$02$00$0A@$02$00@Eigen@@@23@U?$assign_op@NN@23@$0A@@internal@Eigen@@QEAAX_J0@Z
	??$assignPacket@$0BA@$0BA@U__m128d@@@?$generic_dense_assignment_kernel@U?$evaluator@V?$Block@V?$Matrix@N$03$03$0A@$03$03@Eigen@@$02$00$00@Eigen@@@internal@Eigen@@U?$evaluator@V?$CwiseNullaryOp@U?$scalar_constant_op@N@internal@Eigen@@V?$Matrix@N$02$00$0A@$02$00@3@@Eigen@@@23@U?$assign_op@NN@23@$0A@@internal@Eigen@@QEAAX_J0@Z
	??$assignPacket@$0BA@$0BA@U__m128d@@@?$generic_dense_assignment_kernel@U?$evaluator@V?$Matrix@N$03$03$0A@$03$03@Eigen@@@internal@Eigen@@U123@U?$assign_op@NN@23@$0A@@internal@Eigen@@QEAAX_J0@Z
	??$assignPacket@$0BA@U__m128d@@@?$add_assign_op@NN@internal@Eigen@@QEBAXPEANAEBU__m128d@@@Z
	??$assignPacket@$0BA@U__m128d@@@?$assign_op@NN@internal@Eigen@@QEBAXPEANAEBU__m128d@@@Z
	??$assignPacketByOuterInner@$0A@$0A@U__m128d@@@?$generic_dense_assignment_kernel@U?$evaluator@V?$Block@V?$Matrix@N$03$03$0A@$03$03@Eigen@@$02$02$0A@@Eigen@@@internal@Eigen@@U?$evaluator@V?$Matrix@N$02$02$0A@$02$02@Eigen@@@23@U?$assign_op@NN@23@$0A@@internal@Eigen@@QEAAX_J0@Z
	??$assignPacketByOuterInner@$0A@$0A@U__m128d@@@?$generic_dense_assignment_kernel@U?$evaluator@V?$Block@V?$Matrix@N$03$03$0A@$03$03@Eigen@@$02$03$0A@@Eigen@@@internal@Eigen@@U?$evaluator@V?$Matrix@N$02$03$0A@$02$03@Eigen@@@23@U?$add_assign_op@NN@23@$0A@@internal@Eigen@@QEAAX_J0@Z
	??$assignPacketByOuterInner@$0A@$0A@U__m128d@@@?$generic_dense_assignment_kernel@U?$evaluator@V?$Matrix@N$02$02$0A@$02$02@Eigen@@@internal@Eigen@@U123@U?$assign_op@NN@23@$0A@@internal@Eigen@@QEAAX_J0@Z
	??$assignPacketByOuterInner@$0A@$0A@U__m128d@@@?$generic_dense_assignment_kernel@U?$evaluator@V?$Matrix@N$02$03$0A@$02$03@Eigen@@@internal@Eigen@@U?$evaluator@V?$Product@V?$Matrix@N$02$00$0A@$02$00@Eigen@@V?$Block@V?$Matrix@N$03$03$0A@$03$03@Eigen@@$00$03$0A@@2@$00@Eigen@@@23@U?$assign_op@NN@23@$0A@@internal@Eigen@@QEAAX_J0@Z
	??$assignPacketByOuterInner@$0A@$0BA@U__m128d@@@?$generic_dense_assignment_kernel@U?$evaluator@V?$Matrix@N$02$00$0A@$02$00@Eigen@@@internal@Eigen@@U?$evaluator@V?$Block@$$CBV?$Matrix@N$03$03$0A@$03$03@Eigen@@$02$00$00@Eigen@@@23@U?$assign_op@NN@23@$0A@@internal@Eigen@@QEAAX_J0@Z
	??$assignPacketByOuterInner@$0BA@$0A@U__m128d@@@?$generic_dense_assignment_kernel@U?$evaluator@V?$Block@V?$Matrix@N$03$03$0A@$03$03@Eigen@@$02$00$00@Eigen@@@internal@Eigen@@U?$evaluator@V?$Matrix@N$02$00$0A@$02$00@Eigen@@@23@U?$add_assign_op@NN@23@$0A@@internal@Eigen@@QEAAX_J0@Z
	??$assignPacketByOuterInner@$0BA@$0A@U__m128d@@@?$generic_dense_assignment_kernel@U?$evaluator@V?$Block@V?$Matrix@N$03$03$0A@$03$03@Eigen@@$02$00$00@Eigen@@@internal@Eigen@@U?$evaluator@V?$Matrix@N$02$00$0A@$02$00@Eigen@@@23@U?$assign_op@NN@23@$0A@@internal@Eigen@@QEAAX_J0@Z
	??$assignPacketByOuterInner@$0BA@$0BA@U__m128d@@@?$generic_dense_assignment_kernel@U?$evaluator@V?$Block@V?$Matrix@N$03$03$0A@$03$03@Eigen@@$02$00$00@Eigen@@@internal@Eigen@@U?$evaluator@V?$CwiseNullaryOp@U?$scalar_constant_op@N@internal@Eigen@@V?$Matrix@N$02$00$0A@$02$00@3@@Eigen@@@23@U?$assign_op@NN@23@$0A@@internal@Eigen@@QEAAX_J0@Z
	??$assignPacketByOuterInner@$0BA@$0BA@U__m128d@@@?$generic_dense_assignment_kernel@U?$evaluator@V?$Matrix@N$03$03$0A@$03$03@Eigen@@@internal@Eigen@@U123@U?$assign_op@NN@23@$0A@@internal@Eigen@@QEAAX_J0@Z
	??$assign_functor@V?$bind_t@VSerializedMessage@ros@@P6A?AV12@AEBU?$DisplayRobotState_@V?$allocator@X@std@@@moveit_msgs@@@ZV?$list1@V?$reference_wrapper@$$CBU?$DisplayRobotState_@V?$allocator@X@std@@@moveit_msgs@@@boost@@@_bi@boost@@@_bi@boost@@@?$basic_vtable0@VSerializedMessage@ros@@@function@detail@boost@@AEBAXV?$bind_t@VSerializedMessage@ros@@P6A?AV12@AEBU?$DisplayRobotState_@V?$allocator@X@std@@@moveit_msgs@@@ZV?$list1@V?$reference_wrapper@$$CBU?$DisplayRobotState_@V?$allocator@X@std@@@moveit_msgs@@@boost@@@_bi@boost@@@_bi@3@AEATfunction_buffer@123@U?$bool_@$00@mpl@3@@Z
	??$assign_functor@V?$bind_t@VSerializedMessage@ros@@P6A?AV12@AEBU?$Marker_@V?$allocator@X@std@@@visualization_msgs@@@ZV?$list1@V?$reference_wrapper@$$CBU?$Marker_@V?$allocator@X@std@@@visualization_msgs@@@boost@@@_bi@boost@@@_bi@boost@@@?$basic_vtable0@VSerializedMessage@ros@@@function@detail@boost@@AEBAXV?$bind_t@VSerializedMessage@ros@@P6A?AV12@AEBU?$Marker_@V?$allocator@X@std@@@visualization_msgs@@@ZV?$list1@V?$reference_wrapper@$$CBU?$Marker_@V?$allocator@X@std@@@visualization_msgs@@@boost@@@_bi@boost@@@_bi@3@AEATfunction_buffer@123@U?$bool_@$00@mpl@3@@Z
	??$assign_functor@V?$bind_t@XP6AXPEAVInteractiveRobot@@AEBV?$shared_ptr@$$CBU?$InteractiveMarkerFeedback_@V?$allocator@X@std@@@visualization_msgs@@@boost@@@ZV?$list2@V?$value@PEAVInteractiveRobot@@@_bi@boost@@U?$arg@$00@3@@_bi@3@@_bi@boost@@@?$basic_vtable1@XAEBV?$shared_ptr@$$CBU?$InteractiveMarkerFeedback_@V?$allocator@X@std@@@visualization_msgs@@@boost@@@function@detail@boost@@AEBAXV?$bind_t@XP6AXPEAVInteractiveRobot@@AEBV?$shared_ptr@$$CBU?$InteractiveMarkerFeedback_@V?$allocator@X@std@@@visualization_msgs@@@boost@@@ZV?$list2@V?$value@PEAVInteractiveRobot@@@_bi@boost@@U?$arg@$00@3@@_bi@3@@_bi@3@AEATfunction_buffer@123@U?$bool_@$00@mpl@3@@Z
	??$assign_functor@V?$bind_t@XV?$mf1@XVInteractiveRobot@@AEBUTimerEvent@ros@@@_mfi@boost@@V?$list2@V?$value@PEAVInteractiveRobot@@@_bi@boost@@U?$arg@$00@3@@_bi@3@@_bi@boost@@@?$basic_vtable1@XAEBUTimerEvent@ros@@@function@detail@boost@@AEBAXV?$bind_t@XV?$mf1@XVInteractiveRobot@@AEBUTimerEvent@ros@@@_mfi@boost@@V?$list2@V?$value@PEAVInteractiveRobot@@@_bi@boost@@U?$arg@$00@3@@_bi@3@@_bi@3@AEATfunction_buffer@123@U?$bool_@$00@mpl@3@@Z
	??$assign_to@V?$bind_t@VSerializedMessage@ros@@P6A?AV12@AEBU?$DisplayRobotState_@V?$allocator@X@std@@@moveit_msgs@@@ZV?$list1@V?$reference_wrapper@$$CBU?$DisplayRobotState_@V?$allocator@X@std@@@moveit_msgs@@@boost@@@_bi@boost@@@_bi@boost@@@?$basic_vtable0@VSerializedMessage@ros@@@function@detail@boost@@AEBA_NV?$bind_t@VSerializedMessage@ros@@P6A?AV12@AEBU?$DisplayRobotState_@V?$allocator@X@std@@@moveit_msgs@@@ZV?$list1@V?$reference_wrapper@$$CBU?$DisplayRobotState_@V?$allocator@X@std@@@moveit_msgs@@@boost@@@_bi@boost@@@_bi@3@AEATfunction_buffer@123@Ufunction_obj_tag@123@@Z
	??$assign_to@V?$bind_t@VSerializedMessage@ros@@P6A?AV12@AEBU?$DisplayRobotState_@V?$allocator@X@std@@@moveit_msgs@@@ZV?$list1@V?$reference_wrapper@$$CBU?$DisplayRobotState_@V?$allocator@X@std@@@moveit_msgs@@@boost@@@_bi@boost@@@_bi@boost@@@?$basic_vtable0@VSerializedMessage@ros@@@function@detail@boost@@QEBA_NV?$bind_t@VSerializedMessage@ros@@P6A?AV12@AEBU?$DisplayRobotState_@V?$allocator@X@std@@@moveit_msgs@@@ZV?$list1@V?$reference_wrapper@$$CBU?$DisplayRobotState_@V?$allocator@X@std@@@moveit_msgs@@@boost@@@_bi@boost@@@_bi@3@AEATfunction_buffer@123@@Z
	??$assign_to@V?$bind_t@VSerializedMessage@ros@@P6A?AV12@AEBU?$DisplayRobotState_@V?$allocator@X@std@@@moveit_msgs@@@ZV?$list1@V?$reference_wrapper@$$CBU?$DisplayRobotState_@V?$allocator@X@std@@@moveit_msgs@@@boost@@@_bi@boost@@@_bi@boost@@@?$function0@VSerializedMessage@ros@@@boost@@AEAAXV?$bind_t@VSerializedMessage@ros@@P6A?AV12@AEBU?$DisplayRobotState_@V?$allocator@X@std@@@moveit_msgs@@@ZV?$list1@V?$reference_wrapper@$$CBU?$DisplayRobotState_@V?$allocator@X@std@@@moveit_msgs@@@boost@@@_bi@boost@@@_bi@1@@Z
	??$assign_to@V?$bind_t@VSerializedMessage@ros@@P6A?AV12@AEBU?$Marker_@V?$allocator@X@std@@@visualization_msgs@@@ZV?$list1@V?$reference_wrapper@$$CBU?$Marker_@V?$allocator@X@std@@@visualization_msgs@@@boost@@@_bi@boost@@@_bi@boost@@@?$basic_vtable0@VSerializedMessage@ros@@@function@detail@boost@@AEBA_NV?$bind_t@VSerializedMessage@ros@@P6A?AV12@AEBU?$Marker_@V?$allocator@X@std@@@visualization_msgs@@@ZV?$list1@V?$reference_wrapper@$$CBU?$Marker_@V?$allocator@X@std@@@visualization_msgs@@@boost@@@_bi@boost@@@_bi@3@AEATfunction_buffer@123@Ufunction_obj_tag@123@@Z
	??$assign_to@V?$bind_t@VSerializedMessage@ros@@P6A?AV12@AEBU?$Marker_@V?$allocator@X@std@@@visualization_msgs@@@ZV?$list1@V?$reference_wrapper@$$CBU?$Marker_@V?$allocator@X@std@@@visualization_msgs@@@boost@@@_bi@boost@@@_bi@boost@@@?$basic_vtable0@VSerializedMessage@ros@@@function@detail@boost@@QEBA_NV?$bind_t@VSerializedMessage@ros@@P6A?AV12@AEBU?$Marker_@V?$allocator@X@std@@@visualization_msgs@@@ZV?$list1@V?$reference_wrapper@$$CBU?$Marker_@V?$allocator@X@std@@@visualization_msgs@@@boost@@@_bi@boost@@@_bi@3@AEATfunction_buffer@123@@Z
	??$assign_to@V?$bind_t@VSerializedMessage@ros@@P6A?AV12@AEBU?$Marker_@V?$allocator@X@std@@@visualization_msgs@@@ZV?$list1@V?$reference_wrapper@$$CBU?$Marker_@V?$allocator@X@std@@@visualization_msgs@@@boost@@@_bi@boost@@@_bi@boost@@@?$function0@VSerializedMessage@ros@@@boost@@AEAAXV?$bind_t@VSerializedMessage@ros@@P6A?AV12@AEBU?$Marker_@V?$allocator@X@std@@@visualization_msgs@@@ZV?$list1@V?$reference_wrapper@$$CBU?$Marker_@V?$allocator@X@std@@@visualization_msgs@@@boost@@@_bi@boost@@@_bi@1@@Z
	??$assign_to@V?$bind_t@XP6AXPEAVInteractiveRobot@@AEBV?$shared_ptr@$$CBU?$InteractiveMarkerFeedback_@V?$allocator@X@std@@@visualization_msgs@@@boost@@@ZV?$list2@V?$value@PEAVInteractiveRobot@@@_bi@boost@@U?$arg@$00@3@@_bi@3@@_bi@boost@@@?$basic_vtable1@XAEBV?$shared_ptr@$$CBU?$InteractiveMarkerFeedback_@V?$allocator@X@std@@@visualization_msgs@@@boost@@@function@detail@boost@@AEBA_NV?$bind_t@XP6AXPEAVInteractiveRobot@@AEBV?$shared_ptr@$$CBU?$InteractiveMarkerFeedback_@V?$allocator@X@std@@@visualization_msgs@@@boost@@@ZV?$list2@V?$value@PEAVInteractiveRobot@@@_bi@boost@@U?$arg@$00@3@@_bi@3@@_bi@3@AEATfunction_buffer@123@Ufunction_obj_tag@123@@Z
	??$assign_to@V?$bind_t@XP6AXPEAVInteractiveRobot@@AEBV?$shared_ptr@$$CBU?$InteractiveMarkerFeedback_@V?$allocator@X@std@@@visualization_msgs@@@boost@@@ZV?$list2@V?$value@PEAVInteractiveRobot@@@_bi@boost@@U?$arg@$00@3@@_bi@3@@_bi@boost@@@?$basic_vtable1@XAEBV?$shared_ptr@$$CBU?$InteractiveMarkerFeedback_@V?$allocator@X@std@@@visualization_msgs@@@boost@@@function@detail@boost@@QEBA_NV?$bind_t@XP6AXPEAVInteractiveRobot@@AEBV?$shared_ptr@$$CBU?$InteractiveMarkerFeedback_@V?$allocator@X@std@@@visualization_msgs@@@boost@@@ZV?$list2@V?$value@PEAVInteractiveRobot@@@_bi@boost@@U?$arg@$00@3@@_bi@3@@_bi@3@AEATfunction_buffer@123@@Z
	??$assign_to@V?$bind_t@XP6AXPEAVInteractiveRobot@@AEBV?$shared_ptr@$$CBU?$InteractiveMarkerFeedback_@V?$allocator@X@std@@@visualization_msgs@@@boost@@@ZV?$list2@V?$value@PEAVInteractiveRobot@@@_bi@boost@@U?$arg@$00@3@@_bi@3@@_bi@boost@@@?$function1@XAEBV?$shared_ptr@$$CBU?$InteractiveMarkerFeedback_@V?$allocator@X@std@@@visualization_msgs@@@boost@@@boost@@AEAAXV?$bind_t@XP6AXPEAVInteractiveRobot@@AEBV?$shared_ptr@$$CBU?$InteractiveMarkerFeedback_@V?$allocator@X@std@@@visualization_msgs@@@boost@@@ZV?$list2@V?$value@PEAVInteractiveRobot@@@_bi@boost@@U?$arg@$00@3@@_bi@3@@_bi@1@@Z
	??$assign_to@V?$bind_t@XV?$mf1@XVInteractiveRobot@@AEBUTimerEvent@ros@@@_mfi@boost@@V?$list2@V?$value@PEAVInteractiveRobot@@@_bi@boost@@U?$arg@$00@3@@_bi@3@@_bi@boost@@@?$basic_vtable1@XAEBUTimerEvent@ros@@@function@detail@boost@@AEBA_NV?$bind_t@XV?$mf1@XVInteractiveRobot@@AEBUTimerEvent@ros@@@_mfi@boost@@V?$list2@V?$value@PEAVInteractiveRobot@@@_bi@boost@@U?$arg@$00@3@@_bi@3@@_bi@3@AEATfunction_buffer@123@Ufunction_obj_tag@123@@Z
	??$assign_to@V?$bind_t@XV?$mf1@XVInteractiveRobot@@AEBUTimerEvent@ros@@@_mfi@boost@@V?$list2@V?$value@PEAVInteractiveRobot@@@_bi@boost@@U?$arg@$00@3@@_bi@3@@_bi@boost@@@?$basic_vtable1@XAEBUTimerEvent@ros@@@function@detail@boost@@QEBA_NV?$bind_t@XV?$mf1@XVInteractiveRobot@@AEBUTimerEvent@ros@@@_mfi@boost@@V?$list2@V?$value@PEAVInteractiveRobot@@@_bi@boost@@U?$arg@$00@3@@_bi@3@@_bi@3@AEATfunction_buffer@123@@Z
	??$assign_to@V?$bind_t@XV?$mf1@XVInteractiveRobot@@AEBUTimerEvent@ros@@@_mfi@boost@@V?$list2@V?$value@PEAVInteractiveRobot@@@_bi@boost@@U?$arg@$00@3@@_bi@3@@_bi@boost@@@?$function1@XAEBUTimerEvent@ros@@@boost@@AEAAXV?$bind_t@XV?$mf1@XVInteractiveRobot@@AEBUTimerEvent@ros@@@_mfi@boost@@V?$list2@V?$value@PEAVInteractiveRobot@@@_bi@boost@@U?$arg@$00@3@@_bi@3@@_bi@1@@Z
	??$bind@VSerializedMessage@ros@@AEBU?$DisplayRobotState_@V?$allocator@X@std@@@moveit_msgs@@V?$reference_wrapper@$$CBU?$DisplayRobotState_@V?$allocator@X@std@@@moveit_msgs@@@boost@@@boost@@YA?AV?$bind_t@VSerializedMessage@ros@@P6A?AV12@AEBU?$DisplayRobotState_@V?$allocator@X@std@@@moveit_msgs@@@ZV?$list1@V?$reference_wrapper@$$CBU?$DisplayRobotState_@V?$allocator@X@std@@@moveit_msgs@@@boost@@@_bi@boost@@@_bi@0@P6A?AVSerializedMessage@ros@@AEBU?$DisplayRobotState_@V?$allocator@X@std@@@moveit_msgs@@@ZV?$reference_wrapper@$$CBU?$DisplayRobotState_@V?$allocator@X@std@@@moveit_msgs@@@0@@Z
	??$bind@VSerializedMessage@ros@@AEBU?$Marker_@V?$allocator@X@std@@@visualization_msgs@@V?$reference_wrapper@$$CBU?$Marker_@V?$allocator@X@std@@@visualization_msgs@@@boost@@@boost@@YA?AV?$bind_t@VSerializedMessage@ros@@P6A?AV12@AEBU?$Marker_@V?$allocator@X@std@@@visualization_msgs@@@ZV?$list1@V?$reference_wrapper@$$CBU?$Marker_@V?$allocator@X@std@@@visualization_msgs@@@boost@@@_bi@boost@@@_bi@0@P6A?AVSerializedMessage@ros@@AEBU?$Marker_@V?$allocator@X@std@@@visualization_msgs@@@ZV?$reference_wrapper@$$CBU?$Marker_@V?$allocator@X@std@@@visualization_msgs@@@0@@Z
	??$bind@XPEAVInteractiveRobot@@AEBV?$shared_ptr@$$CBU?$InteractiveMarkerFeedback_@V?$allocator@X@std@@@visualization_msgs@@@boost@@PEAV1@U?$arg@$00@3@@boost@@YA?AV?$bind_t@XP6AXPEAVInteractiveRobot@@AEBV?$shared_ptr@$$CBU?$InteractiveMarkerFeedback_@V?$allocator@X@std@@@visualization_msgs@@@boost@@@ZV?$list2@V?$value@PEAVInteractiveRobot@@@_bi@boost@@U?$arg@$00@3@@_bi@3@@_bi@0@P6AXPEAVInteractiveRobot@@AEBV?$shared_ptr@$$CBU?$InteractiveMarkerFeedback_@V?$allocator@X@std@@@visualization_msgs@@@0@@Z0U?$arg@$00@0@@Z
	??$bind@XVInteractiveRobot@@AEBUTimerEvent@ros@@PEAV1@U?$arg@$00@boost@@@boost@@YA?AV?$bind_t@XV?$mf1@XVInteractiveRobot@@AEBUTimerEvent@ros@@@_mfi@boost@@V?$list2@V?$value@PEAVInteractiveRobot@@@_bi@boost@@U?$arg@$00@3@@_bi@3@@_bi@0@P8InteractiveRobot@@EAAXAEBUTimerEvent@ros@@@ZPEAV3@U?$arg@$00@0@@Z
	??$block@$00$02@?$DenseBase@V?$Matrix@N$03$03$0A@$03$03@Eigen@@@Eigen@@QEAA?AV?$Block@V?$Matrix@N$03$03$0A@$03$03@Eigen@@$00$02$0A@@1@_J0@Z
	??$block@$02$03@?$DenseBase@V?$Matrix@N$03$03$0A@$03$03@Eigen@@@Eigen@@QEAA?AV?$Block@V?$Matrix@N$03$03$0A@$03$03@Eigen@@$02$03$0A@@1@_J0@Z
	??$call_assignment@V?$Block@V?$Matrix@N$03$03$0A@$03$03@Eigen@@$00$02$0A@@Eigen@@V?$CwiseNullaryOp@U?$scalar_constant_op@N@internal@Eigen@@V?$Matrix@N$00$02$00$00$02@3@@2@@internal@Eigen@@YAXAEAV?$Block@V?$Matrix@N$03$03$0A@$03$03@Eigen@@$00$02$0A@@1@AEBV?$CwiseNullaryOp@U?$scalar_constant_op@N@internal@Eigen@@V?$Matrix@N$00$02$00$00$02@3@@1@@Z
	??$call_assignment@V?$Block@V?$Matrix@N$03$03$0A@$03$03@Eigen@@$00$02$0A@@Eigen@@V?$CwiseNullaryOp@U?$scalar_constant_op@N@internal@Eigen@@V?$Matrix@N$00$02$00$00$02@3@@2@U?$assign_op@NN@internal@2@@internal@Eigen@@YAXAEAV?$Block@V?$Matrix@N$03$03$0A@$03$03@Eigen@@$00$02$0A@@1@AEBV?$CwiseNullaryOp@U?$scalar_constant_op@N@internal@Eigen@@V?$Matrix@N$00$02$00$00$02@3@@1@AEBU?$assign_op@NN@01@PEAX@Z
	??$call_assignment@V?$Block@V?$Matrix@N$03$03$0A@$03$03@Eigen@@$02$00$00@Eigen@@V?$CwiseNullaryOp@U?$scalar_constant_op@N@internal@Eigen@@V?$Matrix@N$02$00$0A@$02$00@3@@2@@internal@Eigen@@YAXAEAV?$Block@V?$Matrix@N$03$03$0A@$03$03@Eigen@@$02$00$00@1@AEBV?$CwiseNullaryOp@U?$scalar_constant_op@N@internal@Eigen@@V?$Matrix@N$02$00$0A@$02$00@3@@1@@Z
	??$call_assignment@V?$Block@V?$Matrix@N$03$03$0A@$03$03@Eigen@@$02$00$00@Eigen@@V?$CwiseNullaryOp@U?$scalar_constant_op@N@internal@Eigen@@V?$Matrix@N$02$00$0A@$02$00@3@@2@U?$assign_op@NN@internal@2@@internal@Eigen@@YAXAEAV?$Block@V?$Matrix@N$03$03$0A@$03$03@Eigen@@$02$00$00@1@AEBV?$CwiseNullaryOp@U?$scalar_constant_op@N@internal@Eigen@@V?$Matrix@N$02$00$0A@$02$00@3@@1@AEBU?$assign_op@NN@01@PEAX@Z
	??$call_assignment@V?$Block@V?$Matrix@N$03$03$0A@$03$03@Eigen@@$02$00$00@Eigen@@V?$Matrix@N$02$00$0A@$02$00@2@@internal@Eigen@@YAXAEAV?$Block@V?$Matrix@N$03$03$0A@$03$03@Eigen@@$02$00$00@1@AEBV?$Matrix@N$02$00$0A@$02$00@1@@Z
	??$call_assignment@V?$Block@V?$Matrix@N$03$03$0A@$03$03@Eigen@@$02$00$00@Eigen@@V?$Matrix@N$02$00$0A@$02$00@2@U?$add_assign_op@NN@internal@2@@internal@Eigen@@YAXAEAV?$Block@V?$Matrix@N$03$03$0A@$03$03@Eigen@@$02$00$00@1@AEBV?$Matrix@N$02$00$0A@$02$00@1@AEBU?$add_assign_op@NN@01@PEAX@Z
	??$call_assignment@V?$Block@V?$Matrix@N$03$03$0A@$03$03@Eigen@@$02$00$00@Eigen@@V?$Matrix@N$02$00$0A@$02$00@2@U?$assign_op@NN@internal@2@@internal@Eigen@@YAXAEAV?$Block@V?$Matrix@N$03$03$0A@$03$03@Eigen@@$02$00$00@1@AEBV?$Matrix@N$02$00$0A@$02$00@1@AEBU?$assign_op@NN@01@PEAX@Z
	??$call_assignment@V?$Block@V?$Matrix@N$03$03$0A@$03$03@Eigen@@$02$02$0A@@Eigen@@V?$CwiseNullaryOp@U?$scalar_identity_op@N@internal@Eigen@@V?$Matrix@N$02$02$0A@$02$02@3@@2@@internal@Eigen@@YAXAEAV?$Block@V?$Matrix@N$03$03$0A@$03$03@Eigen@@$02$02$0A@@1@AEBV?$CwiseNullaryOp@U?$scalar_identity_op@N@internal@Eigen@@V?$Matrix@N$02$02$0A@$02$02@3@@1@@Z
	??$call_assignment@V?$Block@V?$Matrix@N$03$03$0A@$03$03@Eigen@@$02$02$0A@@Eigen@@V?$CwiseNullaryOp@U?$scalar_identity_op@N@internal@Eigen@@V?$Matrix@N$02$02$0A@$02$02@3@@2@U?$assign_op@NN@internal@2@@internal@Eigen@@YAXAEAV?$Block@V?$Matrix@N$03$03$0A@$03$03@Eigen@@$02$02$0A@@1@AEBV?$CwiseNullaryOp@U?$scalar_identity_op@N@internal@Eigen@@V?$Matrix@N$02$02$0A@$02$02@3@@1@AEBU?$assign_op@NN@01@PEAX@Z
	??$call_assignment@V?$Block@V?$Matrix@N$03$03$0A@$03$03@Eigen@@$02$02$0A@@Eigen@@V?$Matrix@N$02$02$0A@$02$02@2@@internal@Eigen@@YAXAEAV?$Block@V?$Matrix@N$03$03$0A@$03$03@Eigen@@$02$02$0A@@1@AEBV?$Matrix@N$02$02$0A@$02$02@1@@Z
	??$call_assignment@V?$Block@V?$Matrix@N$03$03$0A@$03$03@Eigen@@$02$02$0A@@Eigen@@V?$Matrix@N$02$02$0A@$02$02@2@U?$assign_op@NN@internal@2@@internal@Eigen@@YAXAEAV?$Block@V?$Matrix@N$03$03$0A@$03$03@Eigen@@$02$02$0A@@1@AEBV?$Matrix@N$02$02$0A@$02$02@1@AEBU?$assign_op@NN@01@PEAX@Z
	??$call_assignment@V?$Block@V?$Matrix@N$03$03$0A@$03$03@Eigen@@$02$03$0A@@Eigen@@V?$Product@V?$Matrix@N$02$00$0A@$02$00@Eigen@@V?$Block@V?$Matrix@N$03$03$0A@$03$03@Eigen@@$00$03$0A@@2@$0A@@2@U?$add_assign_op@NN@internal@2@@internal@Eigen@@YAXAEAV?$Block@V?$Matrix@N$03$03$0A@$03$03@Eigen@@$02$03$0A@@1@AEBV?$Product@V?$Matrix@N$02$00$0A@$02$00@Eigen@@V?$Block@V?$Matrix@N$03$03$0A@$03$03@Eigen@@$00$03$0A@@2@$0A@@1@AEBU?$add_assign_op@NN@01@PEAX@Z
	??$call_assignment@V?$Matrix@N$03$03$0A@$03$03@Eigen@@V12@@internal@Eigen@@YAXAEAV?$Matrix@N$03$03$0A@$03$03@1@AEBV21@@Z
	??$call_assignment@V?$Matrix@N$03$03$0A@$03$03@Eigen@@V12@U?$assign_op@NN@internal@2@@internal@Eigen@@YAXAEAV?$Matrix@N$03$03$0A@$03$03@1@AEBV21@AEBU?$assign_op@NN@01@PEAX@Z
	??$call_assignment_no_alias@V?$Block@V?$Matrix@N$03$03$0A@$03$03@Eigen@@$00$02$0A@@Eigen@@V?$CwiseNullaryOp@U?$scalar_constant_op@N@internal@Eigen@@V?$Matrix@N$00$02$00$00$02@3@@2@U?$assign_op@NN@internal@2@@internal@Eigen@@YAXAEAV?$Block@V?$Matrix@N$03$03$0A@$03$03@Eigen@@$00$02$0A@@1@AEBV?$CwiseNullaryOp@U?$scalar_constant_op@N@internal@Eigen@@V?$Matrix@N$00$02$00$00$02@3@@1@AEBU?$assign_op@NN@01@@Z
	??$call_assignment_no_alias@V?$Block@V?$Matrix@N$03$03$0A@$03$03@Eigen@@$02$00$00@Eigen@@V?$CwiseNullaryOp@U?$scalar_constant_op@N@internal@Eigen@@V?$Matrix@N$02$00$0A@$02$00@3@@2@U?$assign_op@NN@internal@2@@internal@Eigen@@YAXAEAV?$Block@V?$Matrix@N$03$03$0A@$03$03@Eigen@@$02$00$00@1@AEBV?$CwiseNullaryOp@U?$scalar_constant_op@N@internal@Eigen@@V?$Matrix@N$02$00$0A@$02$00@3@@1@AEBU?$assign_op@NN@01@@Z
	??$call_assignment_no_alias@V?$Block@V?$Matrix@N$03$03$0A@$03$03@Eigen@@$02$00$00@Eigen@@V?$Matrix@N$02$00$0A@$02$00@2@U?$add_assign_op@NN@internal@2@@internal@Eigen@@YAXAEAV?$Block@V?$Matrix@N$03$03$0A@$03$03@Eigen@@$02$00$00@1@AEBV?$Matrix@N$02$00$0A@$02$00@1@AEBU?$add_assign_op@NN@01@@Z
	??$call_assignment_no_alias@V?$Block@V?$Matrix@N$03$03$0A@$03$03@Eigen@@$02$00$00@Eigen@@V?$Matrix@N$02$00$0A@$02$00@2@U?$assign_op@NN@internal@2@@internal@Eigen@@YAXAEAV?$Block@V?$Matrix@N$03$03$0A@$03$03@Eigen@@$02$00$00@1@AEBV?$Matrix@N$02$00$0A@$02$00@1@AEBU?$assign_op@NN@01@@Z
	??$call_assignment_no_alias@V?$Block@V?$Matrix@N$03$03$0A@$03$03@Eigen@@$02$02$0A@@Eigen@@V?$CwiseNullaryOp@U?$scalar_identity_op@N@internal@Eigen@@V?$Matrix@N$02$02$0A@$02$02@3@@2@U?$assign_op@NN@internal@2@@internal@Eigen@@YAXAEAV?$Block@V?$Matrix@N$03$03$0A@$03$03@Eigen@@$02$02$0A@@1@AEBV?$CwiseNullaryOp@U?$scalar_identity_op@N@internal@Eigen@@V?$Matrix@N$02$02$0A@$02$02@3@@1@AEBU?$assign_op@NN@01@@Z
	??$call_assignment_no_alias@V?$Block@V?$Matrix@N$03$03$0A@$03$03@Eigen@@$02$02$0A@@Eigen@@V?$Matrix@N$02$02$0A@$02$02@2@U?$assign_op@NN@internal@2@@internal@Eigen@@YAXAEAV?$Block@V?$Matrix@N$03$03$0A@$03$03@Eigen@@$02$02$0A@@1@AEBV?$Matrix@N$02$02$0A@$02$02@1@AEBU?$assign_op@NN@01@@Z
	??$call_assignment_no_alias@V?$Block@V?$Matrix@N$03$03$0A@$03$03@Eigen@@$02$03$0A@@Eigen@@V?$Matrix@N$02$03$0A@$02$03@2@U?$add_assign_op@NN@internal@2@@internal@Eigen@@YAXAEAV?$Block@V?$Matrix@N$03$03$0A@$03$03@Eigen@@$02$03$0A@@1@AEBV?$Matrix@N$02$03$0A@$02$03@1@AEBU?$add_assign_op@NN@01@@Z
	??$call_assignment_no_alias@V?$Matrix@N$02$00$0A@$02$00@Eigen@@V?$Block@$$CBV?$Matrix@N$03$03$0A@$03$03@Eigen@@$02$00$00@2@U?$assign_op@NN@internal@2@@internal@Eigen@@YAXAEAV?$Matrix@N$02$00$0A@$02$00@1@AEBV?$Block@$$CBV?$Matrix@N$03$03$0A@$03$03@Eigen@@$02$00$00@1@AEBU?$assign_op@NN@01@@Z
	??$call_assignment_no_alias@V?$Matrix@N$02$02$0A@$02$02@Eigen@@V12@U?$assign_op@NN@internal@2@@internal@Eigen@@YAXAEAV?$Matrix@N$02$02$0A@$02$02@1@AEBV21@AEBU?$assign_op@NN@01@@Z
	??$call_assignment_no_alias@V?$Matrix@N$02$03$0A@$02$03@Eigen@@V?$Product@V?$Matrix@N$02$00$0A@$02$00@Eigen@@V?$Block@V?$Matrix@N$03$03$0A@$03$03@Eigen@@$00$03$0A@@2@$00@2@U?$assign_op@NN@internal@2@@internal@Eigen@@YAXAEAV?$Matrix@N$02$03$0A@$02$03@1@AEBV?$Product@V?$Matrix@N$02$00$0A@$02$00@Eigen@@V?$Block@V?$Matrix@N$03$03$0A@$03$03@Eigen@@$00$03$0A@@2@$00@1@AEBU?$assign_op@NN@01@@Z
	??$call_assignment_no_alias@V?$Matrix@N$02$03$0A@$02$03@Eigen@@V?$Product@V?$Matrix@N$02$00$0A@$02$00@Eigen@@V?$Block@V?$Matrix@N$03$03$0A@$03$03@Eigen@@$00$03$0A@@2@$0A@@2@U?$assign_op@NN@internal@2@@internal@Eigen@@YAXAEAV?$Matrix@N$02$03$0A@$02$03@1@AEBV?$Product@V?$Matrix@N$02$00$0A@$02$00@Eigen@@V?$Block@V?$Matrix@N$03$03$0A@$03$03@Eigen@@$00$03$0A@@2@$0A@@1@AEBU?$assign_op@NN@01@@Z
	??$call_assignment_no_alias@V?$Matrix@N$03$03$0A@$03$03@Eigen@@V12@U?$assign_op@NN@internal@2@@internal@Eigen@@YAXAEAV?$Matrix@N$03$03$0A@$03$03@1@AEBV21@AEBU?$assign_op@NN@01@@Z
	??$call_dense_assignment_loop@V?$Block@V?$Matrix@N$03$03$0A@$03$03@Eigen@@$00$02$0A@@Eigen@@V?$CwiseNullaryOp@U?$scalar_constant_op@N@internal@Eigen@@V?$Matrix@N$00$02$00$00$02@3@@2@U?$assign_op@NN@internal@2@@internal@Eigen@@YAXAEAV?$Block@V?$Matrix@N$03$03$0A@$03$03@Eigen@@$00$02$0A@@1@AEBV?$CwiseNullaryOp@U?$scalar_constant_op@N@internal@Eigen@@V?$Matrix@N$00$02$00$00$02@3@@1@AEBU?$assign_op@NN@01@@Z
	??$call_dense_assignment_loop@V?$Block@V?$Matrix@N$03$03$0A@$03$03@Eigen@@$02$00$00@Eigen@@V?$CwiseNullaryOp@U?$scalar_constant_op@N@internal@Eigen@@V?$Matrix@N$02$00$0A@$02$00@3@@2@U?$assign_op@NN@internal@2@@internal@Eigen@@YAXAEAV?$Block@V?$Matrix@N$03$03$0A@$03$03@Eigen@@$02$00$00@1@AEBV?$CwiseNullaryOp@U?$scalar_constant_op@N@internal@Eigen@@V?$Matrix@N$02$00$0A@$02$00@3@@1@AEBU?$assign_op@NN@01@@Z
	??$call_dense_assignment_loop@V?$Block@V?$Matrix@N$03$03$0A@$03$03@Eigen@@$02$00$00@Eigen@@V?$Matrix@N$02$00$0A@$02$00@2@U?$add_assign_op@NN@internal@2@@internal@Eigen@@YAXAEAV?$Block@V?$Matrix@N$03$03$0A@$03$03@Eigen@@$02$00$00@1@AEBV?$Matrix@N$02$00$0A@$02$00@1@AEBU?$add_assign_op@NN@01@@Z
	??$call_dense_assignment_loop@V?$Block@V?$Matrix@N$03$03$0A@$03$03@Eigen@@$02$00$00@Eigen@@V?$Matrix@N$02$00$0A@$02$00@2@U?$assign_op@NN@internal@2@@internal@Eigen@@YAXAEAV?$Block@V?$Matrix@N$03$03$0A@$03$03@Eigen@@$02$00$00@1@AEBV?$Matrix@N$02$00$0A@$02$00@1@AEBU?$assign_op@NN@01@@Z
	??$call_dense_assignment_loop@V?$Block@V?$Matrix@N$03$03$0A@$03$03@Eigen@@$02$02$0A@@Eigen@@V?$CwiseNullaryOp@U?$scalar_identity_op@N@internal@Eigen@@V?$Matrix@N$02$02$0A@$02$02@3@@2@U?$assign_op@NN@internal@2@@internal@Eigen@@YAXAEAV?$Block@V?$Matrix@N$03$03$0A@$03$03@Eigen@@$02$02$0A@@1@AEBV?$CwiseNullaryOp@U?$scalar_identity_op@N@internal@Eigen@@V?$Matrix@N$02$02$0A@$02$02@3@@1@AEBU?$assign_op@NN@01@@Z
	??$call_dense_assignment_loop@V?$Block@V?$Matrix@N$03$03$0A@$03$03@Eigen@@$02$02$0A@@Eigen@@V?$Matrix@N$02$02$0A@$02$02@2@U?$assign_op@NN@internal@2@@internal@Eigen@@YAXAEAV?$Block@V?$Matrix@N$03$03$0A@$03$03@Eigen@@$02$02$0A@@1@AEBV?$Matrix@N$02$02$0A@$02$02@1@AEBU?$assign_op@NN@01@@Z
	??$call_dense_assignment_loop@V?$Block@V?$Matrix@N$03$03$0A@$03$03@Eigen@@$02$03$0A@@Eigen@@V?$Matrix@N$02$03$0A@$02$03@2@U?$add_assign_op@NN@internal@2@@internal@Eigen@@YAXAEAV?$Block@V?$Matrix@N$03$03$0A@$03$03@Eigen@@$02$03$0A@@1@AEBV?$Matrix@N$02$03$0A@$02$03@1@AEBU?$add_assign_op@NN@01@@Z
	??$call_dense_assignment_loop@V?$Matrix@N$02$00$0A@$02$00@Eigen@@V?$Block@$$CBV?$Matrix@N$03$03$0A@$03$03@Eigen@@$02$00$00@2@U?$assign_op@NN@internal@2@@internal@Eigen@@YAXAEAV?$Matrix@N$02$00$0A@$02$00@1@AEBV?$Block@$$CBV?$Matrix@N$03$03$0A@$03$03@Eigen@@$02$00$00@1@AEBU?$assign_op@NN@01@@Z
	??$call_dense_assignment_loop@V?$Matrix@N$02$02$0A@$02$02@Eigen@@V12@U?$assign_op@NN@internal@2@@internal@Eigen@@YAXAEAV?$Matrix@N$02$02$0A@$02$02@1@AEBV21@AEBU?$assign_op@NN@01@@Z
	??$call_dense_assignment_loop@V?$Matrix@N$02$03$0A@$02$03@Eigen@@V?$Product@V?$Matrix@N$02$00$0A@$02$00@Eigen@@V?$Block@V?$Matrix@N$03$03$0A@$03$03@Eigen@@$00$03$0A@@2@$00@2@U?$assign_op@NN@internal@2@@internal@Eigen@@YAXAEAV?$Matrix@N$02$03$0A@$02$03@1@AEBV?$Product@V?$Matrix@N$02$00$0A@$02$00@Eigen@@V?$Block@V?$Matrix@N$03$03$0A@$03$03@Eigen@@$00$03$0A@@2@$00@1@AEBU?$assign_op@NN@01@@Z
	??$call_dense_assignment_loop@V?$Matrix@N$03$03$0A@$03$03@Eigen@@V12@U?$assign_op@NN@internal@2@@internal@Eigen@@YAXAEAV?$Matrix@N$03$03$0A@$03$03@1@AEBV21@AEBU?$assign_op@NN@01@@Z
	??$checkSanity@V?$Block@$$CBV?$Block@V?$Matrix@N$03$03$0A@$03$03@Eigen@@$00$03$0A@@Eigen@@$00$00$0A@@Eigen@@@?$MapBase@V?$Block@$$CBV?$Block@V?$Matrix@N$03$03$0A@$03$03@Eigen@@$00$03$0A@@Eigen@@$00$00$0A@@Eigen@@$0A@@Eigen@@IEBAXPEAX@Z
	??$checkSanity@V?$Block@$$CBV?$Matrix@N$02$00$0A@$02$00@Eigen@@$00$00$0A@@Eigen@@@?$MapBase@V?$Block@$$CBV?$Matrix@N$02$00$0A@$02$00@Eigen@@$00$00$0A@@Eigen@@$0A@@Eigen@@IEBAXPEAX@Z
	??$checkSanity@V?$Block@$$CBV?$Matrix@N$03$03$0A@$03$03@Eigen@@$02$00$00@Eigen@@@?$MapBase@V?$Block@$$CBV?$Matrix@N$03$03$0A@$03$03@Eigen@@$02$00$00@Eigen@@$0A@@Eigen@@IEBAXPEAX@Z
	??$checkSanity@V?$Block@$$CBV?$Matrix@N$03$03$0A@$03$03@Eigen@@$02$02$0A@@Eigen@@@?$MapBase@V?$Block@$$CBV?$Matrix@N$03$03$0A@$03$03@Eigen@@$02$02$0A@@Eigen@@$0A@@Eigen@@IEBAXPEAX@Z
	??$checkSanity@V?$Block@V?$Matrix@N$03$03$0A@$03$03@Eigen@@$00$02$0A@@Eigen@@@?$MapBase@V?$Block@V?$Matrix@N$03$03$0A@$03$03@Eigen@@$00$02$0A@@Eigen@@$0A@@Eigen@@IEBAXPEAX@Z
	??$checkSanity@V?$Block@V?$Matrix@N$03$03$0A@$03$03@Eigen@@$00$03$0A@@Eigen@@@?$MapBase@V?$Block@V?$Matrix@N$03$03$0A@$03$03@Eigen@@$00$03$0A@@Eigen@@$0A@@Eigen@@IEBAXPEAX@Z
	??$checkSanity@V?$Block@V?$Matrix@N$03$03$0A@$03$03@Eigen@@$02$00$00@Eigen@@@?$MapBase@V?$Block@V?$Matrix@N$03$03$0A@$03$03@Eigen@@$02$00$00@Eigen@@$0A@@Eigen@@IEBAXPEAX@Z
	??$checkSanity@V?$Block@V?$Matrix@N$03$03$0A@$03$03@Eigen@@$02$02$0A@@Eigen@@@?$MapBase@V?$Block@V?$Matrix@N$03$03$0A@$03$03@Eigen@@$02$02$0A@@Eigen@@$0A@@Eigen@@IEBAXPEAX@Z
	??$checkSanity@V?$Block@V?$Matrix@N$03$03$0A@$03$03@Eigen@@$02$03$0A@@Eigen@@@?$MapBase@V?$Block@V?$Matrix@N$03$03$0A@$03$03@Eigen@@$02$03$0A@@Eigen@@$0A@@Eigen@@IEBAXPEAX@Z
	??$check_static_allocation_size@N$02@internal@Eigen@@YAXXZ
	??$check_static_allocation_size@N$03@internal@Eigen@@YAXXZ
	??$check_static_allocation_size@N$08@internal@Eigen@@YAXXZ
	??$check_static_allocation_size@N$0BA@@internal@Eigen@@YAXXZ
	??$check_static_allocation_size@N$0M@@internal@Eigen@@YAXXZ
	??$checked_array_delete@E@boost@@YAXPEAE@Z
	??$coeff@_J@?$evaluator@V?$CwiseNullaryOp@U?$scalar_constant_op@N@internal@Eigen@@V?$Matrix@N$00$02$00$00$02@3@@Eigen@@@internal@Eigen@@QEBAN_J@Z
	??$coeff@_J@?$evaluator@V?$CwiseNullaryOp@U?$scalar_constant_op@N@internal@Eigen@@V?$Matrix@N$02$00$0A@$02$00@3@@Eigen@@@internal@Eigen@@QEBAN_J0@Z
	??$coeff@_J@?$evaluator@V?$CwiseNullaryOp@U?$scalar_identity_op@N@internal@Eigen@@V?$Matrix@N$02$02$0A@$02$02@3@@Eigen@@@internal@Eigen@@QEBAN_J0@Z
	??$construct@U?$ColorRGBA_@V?$allocator@X@std@@@std_msgs@@AEAU12@@?$_Default_allocator_traits@V?$allocator@U?$ColorRGBA_@V?$allocator@X@std@@@std_msgs@@@std@@@std@@SAXAEAV?$allocator@U?$ColorRGBA_@V?$allocator@X@std@@@std_msgs@@@1@QEAU?$ColorRGBA_@V?$allocator@X@std@@@std_msgs@@AEAU34@@Z
	??$construct@U?$InteractiveMarkerControl_@V?$allocator@X@std@@@visualization_msgs@@AEBU12@@?$_Default_allocator_traits@V?$allocator@U?$InteractiveMarkerControl_@V?$allocator@X@std@@@visualization_msgs@@@std@@@std@@SAXAEAV?$allocator@U?$InteractiveMarkerControl_@V?$allocator@X@std@@@visualization_msgs@@@1@QEAU?$InteractiveMarkerControl_@V?$allocator@X@std@@@visualization_msgs@@AEBU34@@Z
	??$construct@U?$InteractiveMarkerControl_@V?$allocator@X@std@@@visualization_msgs@@U12@@?$_Default_allocator_traits@V?$allocator@U?$InteractiveMarkerControl_@V?$allocator@X@std@@@visualization_msgs@@@std@@@std@@SAXAEAV?$allocator@U?$InteractiveMarkerControl_@V?$allocator@X@std@@@visualization_msgs@@@1@QEAU?$InteractiveMarkerControl_@V?$allocator@X@std@@@visualization_msgs@@$$QEAU34@@Z
	??$construct@U?$Marker_@V?$allocator@X@std@@@visualization_msgs@@AEAU12@@?$_Default_allocator_traits@V?$allocator@U?$Marker_@V?$allocator@X@std@@@visualization_msgs@@@std@@@std@@SAXAEAV?$allocator@U?$Marker_@V?$allocator@X@std@@@visualization_msgs@@@1@QEAU?$Marker_@V?$allocator@X@std@@@visualization_msgs@@AEAU34@@Z
	??$construct@U?$Marker_@V?$allocator@X@std@@@visualization_msgs@@U12@@?$_Default_allocator_traits@V?$allocator@U?$Marker_@V?$allocator@X@std@@@visualization_msgs@@@std@@@std@@SAXAEAV?$allocator@U?$Marker_@V?$allocator@X@std@@@visualization_msgs@@@1@QEAU?$Marker_@V?$allocator@X@std@@@visualization_msgs@@$$QEAU34@@Z
	??$construct@U?$Point_@V?$allocator@X@std@@@geometry_msgs@@AEAU12@@?$_Default_allocator_traits@V?$allocator@U?$Point_@V?$allocator@X@std@@@geometry_msgs@@@std@@@std@@SAXAEAV?$allocator@U?$Point_@V?$allocator@X@std@@@geometry_msgs@@@1@QEAU?$Point_@V?$allocator@X@std@@@geometry_msgs@@AEAU34@@Z
	??$createTimer@VInteractiveRobot@@@NodeHandle@ros@@QEBA?AVTimer@1@VDuration@1@P8InteractiveRobot@@EAAXAEBUTimerEvent@1@@ZPEAV4@_N4@Z
	??$cwiseProduct@V?$Block@$$CBV?$Block@V?$Matrix@N$03$03$0A@$03$03@Eigen@@$00$03$0A@@Eigen@@$00$00$0A@@Eigen@@@?$MatrixBase@V?$Transpose@$$CBV?$Block@$$CBV?$Matrix@N$02$00$0A@$02$00@Eigen@@$00$00$0A@@Eigen@@@Eigen@@@Eigen@@QEBA?BV?$CwiseBinaryOp@U?$scalar_product_op@NN@internal@Eigen@@$$CBV?$Transpose@$$CBV?$Block@$$CBV?$Matrix@N$02$00$0A@$02$00@Eigen@@$00$00$0A@@Eigen@@@3@$$CBV?$Block@$$CBV?$Block@V?$Matrix@N$03$03$0A@$03$03@Eigen@@$00$03$0A@@Eigen@@$00$00$0A@@3@@1@AEBV?$MatrixBase@V?$Block@$$CBV?$Block@V?$Matrix@N$03$03$0A@$03$03@Eigen@@$00$03$0A@@Eigen@@$00$00$0A@@Eigen@@@1@@Z
	??$datatype@U?$DisplayRobotState_@V?$allocator@X@std@@@moveit_msgs@@@message_traits@ros@@YAPEBDXZ
	??$datatype@U?$Marker_@V?$allocator@X@std@@@visualization_msgs@@@message_traits@ros@@YAPEBDXZ
	??$definition@U?$DisplayRobotState_@V?$allocator@X@std@@@moveit_msgs@@@message_traits@ros@@YAPEBDXZ
	??$definition@U?$Marker_@V?$allocator@X@std@@@visualization_msgs@@@message_traits@ros@@YAPEBDXZ
	??$destroy@U?$AttachedCollisionObject_@V?$allocator@X@std@@@moveit_msgs@@@?$_Default_allocator_traits@V?$allocator@U?$AttachedCollisionObject_@V?$allocator@X@std@@@moveit_msgs@@@std@@@std@@SAXAEAV?$allocator@U?$AttachedCollisionObject_@V?$allocator@X@std@@@moveit_msgs@@@1@QEAU?$AttachedCollisionObject_@V?$allocator@X@std@@@moveit_msgs@@@Z
	??$destroy@U?$InteractiveMarkerControl_@V?$allocator@X@std@@@visualization_msgs@@@?$_Default_allocator_traits@V?$allocator@U?$InteractiveMarkerControl_@V?$allocator@X@std@@@visualization_msgs@@@std@@@std@@SAXAEAV?$allocator@U?$InteractiveMarkerControl_@V?$allocator@X@std@@@visualization_msgs@@@1@QEAU?$InteractiveMarkerControl_@V?$allocator@X@std@@@visualization_msgs@@@Z
	??$destroy@U?$JointTrajectoryPoint_@V?$allocator@X@std@@@trajectory_msgs@@@?$_Default_allocator_traits@V?$allocator@U?$JointTrajectoryPoint_@V?$allocator@X@std@@@trajectory_msgs@@@std@@@std@@SAXAEAV?$allocator@U?$JointTrajectoryPoint_@V?$allocator@X@std@@@trajectory_msgs@@@1@QEAU?$JointTrajectoryPoint_@V?$allocator@X@std@@@trajectory_msgs@@@Z
	??$destroy@U?$Marker_@V?$allocator@X@std@@@visualization_msgs@@@?$_Default_allocator_traits@V?$allocator@U?$Marker_@V?$allocator@X@std@@@visualization_msgs@@@std@@@std@@SAXAEAV?$allocator@U?$Marker_@V?$allocator@X@std@@@visualization_msgs@@@1@QEAU?$Marker_@V?$allocator@X@std@@@visualization_msgs@@@Z
	??$destroy@U?$MenuEntry_@V?$allocator@X@std@@@visualization_msgs@@@?$_Default_allocator_traits@V?$allocator@U?$MenuEntry_@V?$allocator@X@std@@@visualization_msgs@@@std@@@std@@SAXAEAV?$allocator@U?$MenuEntry_@V?$allocator@X@std@@@visualization_msgs@@@1@QEAU?$MenuEntry_@V?$allocator@X@std@@@visualization_msgs@@@Z
	??$destroy@U?$Mesh_@V?$allocator@X@std@@@shape_msgs@@@?$_Default_allocator_traits@V?$allocator@U?$Mesh_@V?$allocator@X@std@@@shape_msgs@@@std@@@std@@SAXAEAV?$allocator@U?$Mesh_@V?$allocator@X@std@@@shape_msgs@@@1@QEAU?$Mesh_@V?$allocator@X@std@@@shape_msgs@@@Z
	??$destroy@U?$ObjectColor_@V?$allocator@X@std@@@moveit_msgs@@@?$_Default_allocator_traits@V?$allocator@U?$ObjectColor_@V?$allocator@X@std@@@moveit_msgs@@@std@@@std@@SAXAEAV?$allocator@U?$ObjectColor_@V?$allocator@X@std@@@moveit_msgs@@@1@QEAU?$ObjectColor_@V?$allocator@X@std@@@moveit_msgs@@@Z
	??$destroy@U?$SolidPrimitive_@V?$allocator@X@std@@@shape_msgs@@@?$_Default_allocator_traits@V?$allocator@U?$SolidPrimitive_@V?$allocator@X@std@@@shape_msgs@@@std@@@std@@SAXAEAV?$allocator@U?$SolidPrimitive_@V?$allocator@X@std@@@shape_msgs@@@1@QEAU?$SolidPrimitive_@V?$allocator@X@std@@@shape_msgs@@@Z
	??$destroy@U?$pair@$$CBV?$basic_string@DU?$char_traits@D@std@@V?$allocator@D@2@@std@@V12@@std@@@?$_Default_allocator_traits@V?$allocator@U?$_Tree_node@U?$pair@$$CBV?$basic_string@DU?$char_traits@D@std@@V?$allocator@D@2@@std@@V12@@std@@PEAX@std@@@std@@@std@@SAXAEAV?$allocator@U?$_Tree_node@U?$pair@$$CBV?$basic_string@DU?$char_traits@D@std@@V?$allocator@D@2@@std@@V12@@std@@PEAX@std@@@1@QEAU?$pair@$$CBV?$basic_string@DU?$char_traits@D@std@@V?$allocator@D@2@@std@@V12@@1@@Z
	??$destroy@V?$basic_string@DU?$char_traits@D@std@@V?$allocator@D@2@@std@@@?$_Default_allocator_traits@V?$allocator@V?$basic_string@DU?$char_traits@D@std@@V?$allocator@D@2@@std@@@std@@@std@@SAXAEAV?$allocator@V?$basic_string@DU?$char_traits@D@std@@V?$allocator@D@2@@std@@@1@QEAV?$basic_string@DU?$char_traits@D@std@@V?$allocator@D@2@@1@@Z
	??$emplace_back@AEBU?$InteractiveMarkerControl_@V?$allocator@X@std@@@visualization_msgs@@@?$vector@U?$InteractiveMarkerControl_@V?$allocator@X@std@@@visualization_msgs@@V?$allocator@U?$InteractiveMarkerControl_@V?$allocator@X@std@@@visualization_msgs@@@std@@@std@@QEAAXAEBU?$InteractiveMarkerControl_@V?$allocator@X@std@@@visualization_msgs@@@Z
	??$emplace_back@U?$Marker_@V?$allocator@X@std@@@visualization_msgs@@@?$vector@U?$Marker_@V?$allocator@X@std@@@visualization_msgs@@V?$allocator@U?$Marker_@V?$allocator@X@std@@@visualization_msgs@@@std@@@std@@QEAAX$$QEAU?$Marker_@V?$allocator@X@std@@@visualization_msgs@@@Z
	??$enable_current_exception@U?$error_info_injector@Vbad_function_call@boost@@@exception_detail@boost@@@boost@@YA?AV?$clone_impl@U?$error_info_injector@Vbad_function_call@boost@@@exception_detail@boost@@@exception_detail@0@AEBU?$error_info_injector@Vbad_function_call@boost@@@20@@Z
	??$enable_error_info@Vbad_function_call@boost@@@boost@@YA?AU?$error_info_injector@Vbad_function_call@boost@@@exception_detail@0@AEBVbad_function_call@0@@Z
	??$evalTo@V?$Matrix@N$02$03$0A@$02$03@Eigen@@@?$generic_product_impl@V?$Matrix@N$02$00$0A@$02$00@Eigen@@V?$Block@V?$Matrix@N$03$03$0A@$03$03@Eigen@@$00$03$0A@@2@UDenseShape@2@U42@$02@internal@Eigen@@SAXAEAV?$Matrix@N$02$03$0A@$02$03@2@AEBV?$Matrix@N$02$00$0A@$02$00@2@AEBV?$Block@V?$Matrix@N$03$03$0A@$03$03@Eigen@@$00$03$0A@@2@@Z
	??$exchange@PEAU?$ColorRGBA_@V?$allocator@X@std@@@std_msgs@@$$T@std@@YAPEAU?$ColorRGBA_@V?$allocator@X@std@@@std_msgs@@AEAPEAU12@$$QEA$$T@Z
	??$exchange@PEAU?$Marker_@V?$allocator@X@std@@@visualization_msgs@@$$T@std@@YAPEAU?$Marker_@V?$allocator@X@std@@@visualization_msgs@@AEAPEAU12@$$QEA$$T@Z
	??$exchange@PEAU?$Point_@V?$allocator@X@std@@@geometry_msgs@@$$T@std@@YAPEAU?$Point_@V?$allocator@X@std@@@geometry_msgs@@AEAPEAU12@$$QEA$$T@Z
	??$exchange@PEAU?$_Tree_node@U?$pair@$$CBV?$basic_string@DU?$char_traits@D@std@@V?$allocator@D@2@@std@@V12@@std@@PEAX@std@@AEAPEAU12@@std@@YAPEAU?$_Tree_node@U?$pair@$$CBV?$basic_string@DU?$char_traits@D@std@@V?$allocator@D@2@@std@@V12@@std@@PEAX@0@AEAPEAU10@0@Z
	??$forward@AEAU?$ColorRGBA_@V?$allocator@X@std@@@std_msgs@@@std@@YAAEAU?$ColorRGBA_@V?$allocator@X@std@@@std_msgs@@AEAU12@@Z
	??$forward@AEAU?$Marker_@V?$allocator@X@std@@@visualization_msgs@@@std@@YAAEAU?$Marker_@V?$allocator@X@std@@@visualization_msgs@@AEAU12@@Z
	??$forward@AEAU?$Point_@V?$allocator@X@std@@@geometry_msgs@@@std@@YAAEAU?$Point_@V?$allocator@X@std@@@geometry_msgs@@AEAU12@@Z
	??$forward@AEAV?$allocator@D@std@@@std@@YAAEAV?$allocator@D@0@AEAV10@@Z
	??$forward@AEAVInteractiveRobot@@@boost@@YAAEAVInteractiveRobot@@AEAV1@@Z
	??$forward@AEBQEAD@std@@YAAEBQEADAEBQEAD@Z
	??$forward@AEBQEAU?$_Tree_node@U?$pair@$$CBV?$basic_string@DU?$char_traits@D@std@@V?$allocator@D@2@@std@@V12@@std@@PEAX@std@@@std@@YAAEBQEAU?$_Tree_node@U?$pair@$$CBV?$basic_string@DU?$char_traits@D@std@@V?$allocator@D@2@@std@@V12@@std@@PEAX@0@AEBQEAU10@@Z
	??$forward@AEBU?$InteractiveMarkerControl_@V?$allocator@X@std@@@visualization_msgs@@@std@@YAAEBU?$InteractiveMarkerControl_@V?$allocator@X@std@@@visualization_msgs@@AEBU12@@Z
	??$forward@AEBU?$less@V?$basic_string@DU?$char_traits@D@std@@V?$allocator@D@2@@std@@@std@@@std@@YAAEBU?$less@V?$basic_string@DU?$char_traits@D@std@@V?$allocator@D@2@@std@@@0@AEBU10@@Z
	??$forward@AEBUTimerEvent@ros@@@boost@@YAAEBUTimerEvent@ros@@AEBU12@@Z
	??$forward@AEBUTimerEvent@ros@@@std@@YAAEBUTimerEvent@ros@@AEBU12@@Z
	??$forward@AEBV?$allocator@D@std@@@std@@YAAEBV?$allocator@D@0@AEBV10@@Z
	??$forward@AEBV?$shared_ptr@$$CBU?$InteractiveMarkerFeedback_@V?$allocator@X@std@@@visualization_msgs@@@boost@@@boost@@YAAEBV?$shared_ptr@$$CBU?$InteractiveMarkerFeedback_@V?$allocator@X@std@@@visualization_msgs@@@0@AEBV10@@Z
	??$forward@AEBV?$shared_ptr@$$CBU?$InteractiveMarkerFeedback_@V?$allocator@X@std@@@visualization_msgs@@@boost@@@std@@YAAEBV?$shared_ptr@$$CBU?$InteractiveMarkerFeedback_@V?$allocator@X@std@@@visualization_msgs@@@boost@@AEBV12@@Z
	??$forward@PEAU?$ColorRGBA_@V?$allocator@X@std@@@std_msgs@@@std@@YA$$QEAPEAU?$ColorRGBA_@V?$allocator@X@std@@@std_msgs@@AEAPEAU12@@Z
	??$forward@PEAU?$Marker_@V?$allocator@X@std@@@visualization_msgs@@@std@@YA$$QEAPEAU?$Marker_@V?$allocator@X@std@@@visualization_msgs@@AEAPEAU12@@Z
	??$forward@PEAU?$Point_@V?$allocator@X@std@@@geometry_msgs@@@std@@YA$$QEAPEAU?$Point_@V?$allocator@X@std@@@geometry_msgs@@AEAPEAU12@@Z
	??$forward@U?$InteractiveMarkerControl_@V?$allocator@X@std@@@visualization_msgs@@@std@@YA$$QEAU?$InteractiveMarkerControl_@V?$allocator@X@std@@@visualization_msgs@@AEAU12@@Z
	??$forward@U?$Marker_@V?$allocator@X@std@@@visualization_msgs@@@std@@YA$$QEAU?$Marker_@V?$allocator@X@std@@@visualization_msgs@@AEAU12@@Z
	??$forward@U_Zero_then_variadic_args_t@std@@@std@@YA$$QEAU_Zero_then_variadic_args_t@0@AEAU10@@Z
	??$forward@V?$allocator@D@std@@@std@@YA$$QEAV?$allocator@D@0@AEAV10@@Z
	??$forward@V?$allocator@U?$ColorRGBA_@V?$allocator@X@std@@@std_msgs@@@std@@@std@@YA$$QEAV?$allocator@U?$ColorRGBA_@V?$allocator@X@std@@@std_msgs@@@0@AEAV10@@Z
	??$forward@V?$allocator@U?$Marker_@V?$allocator@X@std@@@visualization_msgs@@@std@@@std@@YA$$QEAV?$allocator@U?$Marker_@V?$allocator@X@std@@@visualization_msgs@@@0@AEAV10@@Z
	??$forward@V?$allocator@U?$Point_@V?$allocator@X@std@@@geometry_msgs@@@std@@@std@@YA$$QEAV?$allocator@U?$Point_@V?$allocator@X@std@@@geometry_msgs@@@0@AEAV10@@Z
	??$get_local_deleter@U?$checked_array_deleter@E@boost@@@detail@boost@@YAPEAU?$checked_array_deleter@E@1@PEAU21@@Z
	??$hasHeader@U?$DisplayRobotState_@V?$allocator@X@std@@@moveit_msgs@@@message_traits@ros@@YA_NXZ
	??$hasHeader@U?$Marker_@V?$allocator@X@std@@@visualization_msgs@@@message_traits@ros@@YA_NXZ
	??$ignore_unused_variable@V?$Block@V?$Matrix@N$03$03$0A@$03$03@Eigen@@$02$00$00@Eigen@@@internal@Eigen@@YAXAEBV?$Block@V?$Matrix@N$03$03$0A@$03$03@Eigen@@$02$00$00@1@@Z
	??$ignore_unused_variable@V?$Block@V?$Matrix@N$03$03$0A@$03$03@Eigen@@$02$03$0A@@Eigen@@@internal@Eigen@@YAXAEBV?$Block@V?$Matrix@N$03$03$0A@$03$03@Eigen@@$02$03$0A@@1@@Z
	??$ignore_unused_variable@V?$Matrix@N$02$00$0A@$02$00@Eigen@@@internal@Eigen@@YAXAEBV?$Matrix@N$02$00$0A@$02$00@1@@Z
	??$ignore_unused_variable@V?$Matrix@N$02$03$0A@$02$03@Eigen@@@internal@Eigen@@YAXAEBV?$Matrix@N$02$03$0A@$02$03@1@@Z
	??$ignore_unused_variable@_J@internal@Eigen@@YAXAEB_J@Z
	??$init@U?$DisplayRobotState_@V?$allocator@X@std@@@moveit_msgs@@@AdvertiseOptions@ros@@QEAAXAEBV?$basic_string@DU?$char_traits@D@std@@V?$allocator@D@2@@std@@IAEBV?$function@$$A6AXAEBVSingleSubscriberPublisher@ros@@@Z@boost@@1@Z
	??$init@U?$Marker_@V?$allocator@X@std@@@visualization_msgs@@@AdvertiseOptions@ros@@QEAAXAEBV?$basic_string@DU?$char_traits@D@std@@V?$allocator@D@2@@std@@IAEBV?$function@$$A6AXAEBVSingleSubscriberPublisher@ros@@@Z@boost@@1@Z
	??$lazyProduct@V?$Block@V?$Matrix@N$03$03$0A@$03$03@Eigen@@$00$03$0A@@Eigen@@@?$MatrixBase@V?$Matrix@N$02$00$0A@$02$00@Eigen@@@Eigen@@QEBA?BV?$Product@V?$Matrix@N$02$00$0A@$02$00@Eigen@@V?$Block@V?$Matrix@N$03$03$0A@$03$03@Eigen@@$00$03$0A@@2@$00@1@AEBV?$MatrixBase@V?$Block@V?$Matrix@N$03$03$0A@$03$03@Eigen@@$00$03$0A@@Eigen@@@1@@Z
	??$max@PEAD@std@@YAAEBQEADAEBQEAD0@Z
	??$max@VDuration@ros@@@std@@YAAEBVDuration@ros@@AEBV12@0@Z
	??$max@_K@std@@YAAEB_KAEB_K0@Z
	??$md5sum@U?$DisplayRobotState_@V?$allocator@X@std@@@moveit_msgs@@@message_traits@ros@@YAPEBDXZ
	??$md5sum@U?$Marker_@V?$allocator@X@std@@@visualization_msgs@@@message_traits@ros@@YAPEBDXZ
	??$min@_K@std@@YAAEB_KAEB_K0@Z
	??$move@AEAPEAE@std@@YA$$QEAPEAEAEAPEAE@Z
	??$move@AEAPEAVRobotModel@core@moveit@@@std@@YA$$QEAPEAVRobotModel@core@moveit@@AEAPEAV123@@Z
	??$move@AEAPEAVRobotState@core@moveit@@@std@@YA$$QEAPEAVRobotState@core@moveit@@AEAPEAV123@@Z
	??$move@AEAPEAV_Ref_count_base@std@@@std@@YA$$QEAPEAV_Ref_count_base@0@AEAPEAV10@@Z
	??$move@AEAU?$InteractiveMarkerControl_@V?$allocator@X@std@@@visualization_msgs@@@std@@YA$$QEAU?$InteractiveMarkerControl_@V?$allocator@X@std@@@visualization_msgs@@AEAU12@@Z
	??$move@AEAU?$Marker_@V?$allocator@X@std@@@visualization_msgs@@@std@@YA$$QEAU?$Marker_@V?$allocator@X@std@@@visualization_msgs@@AEAU12@@Z
	??$move@AEAV?$DenseStorage@N$08$02$02$0A@@Eigen@@@std@@YA$$QEAV?$DenseStorage@N$08$02$02$0A@@Eigen@@AEAV12@@Z
	??$move@AEAV?$Matrix@N$02$02$0A@$02$02@Eigen@@@std@@YA$$QEAV?$Matrix@N$02$02$0A@$02$02@Eigen@@AEAV12@@Z
	??$move@AEAV?$allocator@D@std@@@std@@YA$$QEAV?$allocator@D@0@AEAV10@@Z
	??$move@AEAV?$allocator@U?$ColorRGBA_@V?$allocator@X@std@@@std_msgs@@@std@@@std@@YA$$QEAV?$allocator@U?$ColorRGBA_@V?$allocator@X@std@@@std_msgs@@@0@AEAV10@@Z
	??$move@AEAV?$allocator@U?$Marker_@V?$allocator@X@std@@@visualization_msgs@@@std@@@std@@YA$$QEAV?$allocator@U?$Marker_@V?$allocator@X@std@@@visualization_msgs@@@0@AEAV10@@Z
	??$move@AEAV?$allocator@U?$Point_@V?$allocator@X@std@@@geometry_msgs@@@std@@@std@@YA$$QEAV?$allocator@U?$Point_@V?$allocator@X@std@@@geometry_msgs@@@0@AEAV10@@Z
	??$next@C@LStream@serialization@ros@@QEAAXAEBC@Z
	??$next@C@OStream@serialization@ros@@QEAAXAEBC@Z
	??$next@E@LStream@serialization@ros@@QEAAXAEBE@Z
	??$next@E@OStream@serialization@ros@@QEAAXAEBE@Z
	??$next@H@LStream@serialization@ros@@QEAAXAEBH@Z
	??$next@H@OStream@serialization@ros@@QEAAXAEBH@Z
	??$next@I@LStream@serialization@ros@@QEAAXAEBI@Z
	??$next@I@OStream@serialization@ros@@QEAAXAEBI@Z
	??$next@M@LStream@serialization@ros@@QEAAXAEBM@Z
	??$next@M@OStream@serialization@ros@@QEAAXAEBM@Z
	??$next@N@LStream@serialization@ros@@QEAAXAEBN@Z
	??$next@N@OStream@serialization@ros@@QEAAXAEBN@Z
	??$next@U?$AttachedCollisionObject_@V?$allocator@X@std@@@moveit_msgs@@@OStream@serialization@ros@@QEAAXAEBU?$AttachedCollisionObject_@V?$allocator@X@std@@@moveit_msgs@@@Z
	??$next@U?$CollisionObject_@V?$allocator@X@std@@@moveit_msgs@@@LStream@serialization@ros@@QEAAXAEBU?$CollisionObject_@V?$allocator@X@std@@@moveit_msgs@@@Z
	??$next@U?$CollisionObject_@V?$allocator@X@std@@@moveit_msgs@@@OStream@serialization@ros@@QEAAXAEBU?$CollisionObject_@V?$allocator@X@std@@@moveit_msgs@@@Z
	??$next@U?$ColorRGBA_@V?$allocator@X@std@@@std_msgs@@@LStream@serialization@ros@@QEAAXAEBU?$ColorRGBA_@V?$allocator@X@std@@@std_msgs@@@Z
	??$next@U?$ColorRGBA_@V?$allocator@X@std@@@std_msgs@@@OStream@serialization@ros@@QEAAXAEBU?$ColorRGBA_@V?$allocator@X@std@@@std_msgs@@@Z
	??$next@U?$Header_@V?$allocator@X@std@@@std_msgs@@@LStream@serialization@ros@@QEAAXAEBU?$Header_@V?$allocator@X@std@@@std_msgs@@@Z
	??$next@U?$Header_@V?$allocator@X@std@@@std_msgs@@@OStream@serialization@ros@@QEAAXAEBU?$Header_@V?$allocator@X@std@@@std_msgs@@@Z
	??$next@U?$JointState_@V?$allocator@X@std@@@sensor_msgs@@@LStream@serialization@ros@@QEAAXAEBU?$JointState_@V?$allocator@X@std@@@sensor_msgs@@@Z
	??$next@U?$JointState_@V?$allocator@X@std@@@sensor_msgs@@@OStream@serialization@ros@@QEAAXAEBU?$JointState_@V?$allocator@X@std@@@sensor_msgs@@@Z
	??$next@U?$JointTrajectoryPoint_@V?$allocator@X@std@@@trajectory_msgs@@@OStream@serialization@ros@@QEAAXAEBU?$JointTrajectoryPoint_@V?$allocator@X@std@@@trajectory_msgs@@@Z
	??$next@U?$JointTrajectory_@V?$allocator@X@std@@@trajectory_msgs@@@LStream@serialization@ros@@QEAAXAEBU?$JointTrajectory_@V?$allocator@X@std@@@trajectory_msgs@@@Z
	??$next@U?$JointTrajectory_@V?$allocator@X@std@@@trajectory_msgs@@@OStream@serialization@ros@@QEAAXAEBU?$JointTrajectory_@V?$allocator@X@std@@@trajectory_msgs@@@Z
	??$next@U?$MeshTriangle_@V?$allocator@X@std@@@shape_msgs@@@OStream@serialization@ros@@QEAAXAEBU?$MeshTriangle_@V?$allocator@X@std@@@shape_msgs@@@Z
	??$next@U?$Mesh_@V?$allocator@X@std@@@shape_msgs@@@OStream@serialization@ros@@QEAAXAEBU?$Mesh_@V?$allocator@X@std@@@shape_msgs@@@Z
	??$next@U?$MultiDOFJointState_@V?$allocator@X@std@@@sensor_msgs@@@LStream@serialization@ros@@QEAAXAEBU?$MultiDOFJointState_@V?$allocator@X@std@@@sensor_msgs@@@Z
	??$next@U?$MultiDOFJointState_@V?$allocator@X@std@@@sensor_msgs@@@OStream@serialization@ros@@QEAAXAEBU?$MultiDOFJointState_@V?$allocator@X@std@@@sensor_msgs@@@Z
	??$next@U?$ObjectColor_@V?$allocator@X@std@@@moveit_msgs@@@OStream@serialization@ros@@QEAAXAEBU?$ObjectColor_@V?$allocator@X@std@@@moveit_msgs@@@Z
	??$next@U?$ObjectType_@V?$allocator@X@std@@@object_recognition_msgs@@@LStream@serialization@ros@@QEAAXAEBU?$ObjectType_@V?$allocator@X@std@@@object_recognition_msgs@@@Z
	??$next@U?$ObjectType_@V?$allocator@X@std@@@object_recognition_msgs@@@OStream@serialization@ros@@QEAAXAEBU?$ObjectType_@V?$allocator@X@std@@@object_recognition_msgs@@@Z
	??$next@U?$Plane_@V?$allocator@X@std@@@shape_msgs@@@OStream@serialization@ros@@QEAAXAEBU?$Plane_@V?$allocator@X@std@@@shape_msgs@@@Z
	??$next@U?$Point_@V?$allocator@X@std@@@geometry_msgs@@@LStream@serialization@ros@@QEAAXAEBU?$Point_@V?$allocator@X@std@@@geometry_msgs@@@Z
	??$next@U?$Point_@V?$allocator@X@std@@@geometry_msgs@@@OStream@serialization@ros@@QEAAXAEBU?$Point_@V?$allocator@X@std@@@geometry_msgs@@@Z
	??$next@U?$Pose_@V?$allocator@X@std@@@geometry_msgs@@@LStream@serialization@ros@@QEAAXAEBU?$Pose_@V?$allocator@X@std@@@geometry_msgs@@@Z
	??$next@U?$Pose_@V?$allocator@X@std@@@geometry_msgs@@@OStream@serialization@ros@@QEAAXAEBU?$Pose_@V?$allocator@X@std@@@geometry_msgs@@@Z
	??$next@U?$Quaternion_@V?$allocator@X@std@@@geometry_msgs@@@LStream@serialization@ros@@QEAAXAEBU?$Quaternion_@V?$allocator@X@std@@@geometry_msgs@@@Z
	??$next@U?$Quaternion_@V?$allocator@X@std@@@geometry_msgs@@@OStream@serialization@ros@@QEAAXAEBU?$Quaternion_@V?$allocator@X@std@@@geometry_msgs@@@Z
	??$next@U?$RobotState_@V?$allocator@X@std@@@moveit_msgs@@@LStream@serialization@ros@@QEAAXAEBU?$RobotState_@V?$allocator@X@std@@@moveit_msgs@@@Z
	??$next@U?$RobotState_@V?$allocator@X@std@@@moveit_msgs@@@OStream@serialization@ros@@QEAAXAEBU?$RobotState_@V?$allocator@X@std@@@moveit_msgs@@@Z
	??$next@U?$SolidPrimitive_@V?$allocator@X@std@@@shape_msgs@@@OStream@serialization@ros@@QEAAXAEBU?$SolidPrimitive_@V?$allocator@X@std@@@shape_msgs@@@Z
	??$next@U?$Transform_@V?$allocator@X@std@@@geometry_msgs@@@OStream@serialization@ros@@QEAAXAEBU?$Transform_@V?$allocator@X@std@@@geometry_msgs@@@Z
	??$next@U?$Twist_@V?$allocator@X@std@@@geometry_msgs@@@OStream@serialization@ros@@QEAAXAEBU?$Twist_@V?$allocator@X@std@@@geometry_msgs@@@Z
	??$next@U?$Vector3_@V?$allocator@X@std@@@geometry_msgs@@@LStream@serialization@ros@@QEAAXAEBU?$Vector3_@V?$allocator@X@std@@@geometry_msgs@@@Z
	??$next@U?$Vector3_@V?$allocator@X@std@@@geometry_msgs@@@OStream@serialization@ros@@QEAAXAEBU?$Vector3_@V?$allocator@X@std@@@geometry_msgs@@@Z
	??$next@U?$Wrench_@V?$allocator@X@std@@@geometry_msgs@@@OStream@serialization@ros@@QEAAXAEBU?$Wrench_@V?$allocator@X@std@@@geometry_msgs@@@Z
	??$next@V?$array@I$02@boost@@@LStream@serialization@ros@@QEAAXAEBV?$array@I$02@boost@@@Z
	??$next@V?$array@I$02@boost@@@OStream@serialization@ros@@QEAAXAEBV?$array@I$02@boost@@@Z
	??$next@V?$array@N$03@boost@@@LStream@serialization@ros@@QEAAXAEBV?$array@N$03@boost@@@Z
	??$next@V?$array@N$03@boost@@@OStream@serialization@ros@@QEAAXAEBV?$array@N$03@boost@@@Z
	??$next@V?$basic_string@DU?$char_traits@D@std@@V?$allocator@D@2@@std@@@LStream@serialization@ros@@QEAAXAEBV?$basic_string@DU?$char_traits@D@std@@V?$allocator@D@2@@std@@@Z
	??$next@V?$basic_string@DU?$char_traits@D@std@@V?$allocator@D@2@@std@@@OStream@serialization@ros@@QEAAXAEBV?$basic_string@DU?$char_traits@D@std@@V?$allocator@D@2@@std@@@Z
	??$next@V?$vector@NV?$allocator@N@std@@@std@@@LStream@serialization@ros@@QEAAXAEBV?$vector@NV?$allocator@N@std@@@std@@@Z
	??$next@V?$vector@NV?$allocator@N@std@@@std@@@OStream@serialization@ros@@QEAAXAEBV?$vector@NV?$allocator@N@std@@@std@@@Z
	??$next@V?$vector@U?$AttachedCollisionObject_@V?$allocator@X@std@@@moveit_msgs@@V?$allocator@U?$AttachedCollisionObject_@V?$allocator@X@std@@@moveit_msgs@@@std@@@std@@@LStream@serialization@ros@@QEAAXAEBV?$vector@U?$AttachedCollisionObject_@V?$allocator@X@std@@@moveit_msgs@@V?$allocator@U?$AttachedCollisionObject_@V?$allocator@X@std@@@moveit_msgs@@@std@@@std@@@Z
	??$next@V?$vector@U?$AttachedCollisionObject_@V?$allocator@X@std@@@moveit_msgs@@V?$allocator@U?$AttachedCollisionObject_@V?$allocator@X@std@@@moveit_msgs@@@std@@@std@@@OStream@serialization@ros@@QEAAXAEBV?$vector@U?$AttachedCollisionObject_@V?$allocator@X@std@@@moveit_msgs@@V?$allocator@U?$AttachedCollisionObject_@V?$allocator@X@std@@@moveit_msgs@@@std@@@std@@@Z
	??$next@V?$vector@U?$ColorRGBA_@V?$allocator@X@std@@@std_msgs@@V?$allocator@U?$ColorRGBA_@V?$allocator@X@std@@@std_msgs@@@std@@@std@@@LStream@serialization@ros@@QEAAXAEBV?$vector@U?$ColorRGBA_@V?$allocator@X@std@@@std_msgs@@V?$allocator@U?$ColorRGBA_@V?$allocator@X@std@@@std_msgs@@@std@@@std@@@Z
	??$next@V?$vector@U?$ColorRGBA_@V?$allocator@X@std@@@std_msgs@@V?$allocator@U?$ColorRGBA_@V?$allocator@X@std@@@std_msgs@@@std@@@std@@@OStream@serialization@ros@@QEAAXAEBV?$vector@U?$ColorRGBA_@V?$allocator@X@std@@@std_msgs@@V?$allocator@U?$ColorRGBA_@V?$allocator@X@std@@@std_msgs@@@std@@@std@@@Z
	??$next@V?$vector@U?$JointTrajectoryPoint_@V?$allocator@X@std@@@trajectory_msgs@@V?$allocator@U?$JointTrajectoryPoint_@V?$allocator@X@std@@@trajectory_msgs@@@std@@@std@@@LStream@serialization@ros@@QEAAXAEBV?$vector@U?$JointTrajectoryPoint_@V?$allocator@X@std@@@trajectory_msgs@@V?$allocator@U?$JointTrajectoryPoint_@V?$allocator@X@std@@@trajectory_msgs@@@std@@@std@@@Z
	??$next@V?$vector@U?$JointTrajectoryPoint_@V?$allocator@X@std@@@trajectory_msgs@@V?$allocator@U?$JointTrajectoryPoint_@V?$allocator@X@std@@@trajectory_msgs@@@std@@@std@@@OStream@serialization@ros@@QEAAXAEBV?$vector@U?$JointTrajectoryPoint_@V?$allocator@X@std@@@trajectory_msgs@@V?$allocator@U?$JointTrajectoryPoint_@V?$allocator@X@std@@@trajectory_msgs@@@std@@@std@@@Z
	??$next@V?$vector@U?$MeshTriangle_@V?$allocator@X@std@@@shape_msgs@@V?$allocator@U?$MeshTriangle_@V?$allocator@X@std@@@shape_msgs@@@std@@@std@@@LStream@serialization@ros@@QEAAXAEBV?$vector@U?$MeshTriangle_@V?$allocator@X@std@@@shape_msgs@@V?$allocator@U?$MeshTriangle_@V?$allocator@X@std@@@shape_msgs@@@std@@@std@@@Z
	??$next@V?$vector@U?$MeshTriangle_@V?$allocator@X@std@@@shape_msgs@@V?$allocator@U?$MeshTriangle_@V?$allocator@X@std@@@shape_msgs@@@std@@@std@@@OStream@serialization@ros@@QEAAXAEBV?$vector@U?$MeshTriangle_@V?$allocator@X@std@@@shape_msgs@@V?$allocator@U?$MeshTriangle_@V?$allocator@X@std@@@shape_msgs@@@std@@@std@@@Z
	??$next@V?$vector@U?$Mesh_@V?$allocator@X@std@@@shape_msgs@@V?$allocator@U?$Mesh_@V?$allocator@X@std@@@shape_msgs@@@std@@@std@@@LStream@serialization@ros@@QEAAXAEBV?$vector@U?$Mesh_@V?$allocator@X@std@@@shape_msgs@@V?$allocator@U?$Mesh_@V?$allocator@X@std@@@shape_msgs@@@std@@@std@@@Z
	??$next@V?$vector@U?$Mesh_@V?$allocator@X@std@@@shape_msgs@@V?$allocator@U?$Mesh_@V?$allocator@X@std@@@shape_msgs@@@std@@@std@@@OStream@serialization@ros@@QEAAXAEBV?$vector@U?$Mesh_@V?$allocator@X@std@@@shape_msgs@@V?$allocator@U?$Mesh_@V?$allocator@X@std@@@shape_msgs@@@std@@@std@@@Z
	??$next@V?$vector@U?$ObjectColor_@V?$allocator@X@std@@@moveit_msgs@@V?$allocator@U?$ObjectColor_@V?$allocator@X@std@@@moveit_msgs@@@std@@@std@@@LStream@serialization@ros@@QEAAXAEBV?$vector@U?$ObjectColor_@V?$allocator@X@std@@@moveit_msgs@@V?$allocator@U?$ObjectColor_@V?$allocator@X@std@@@moveit_msgs@@@std@@@std@@@Z
	??$next@V?$vector@U?$ObjectColor_@V?$allocator@X@std@@@moveit_msgs@@V?$allocator@U?$ObjectColor_@V?$allocator@X@std@@@moveit_msgs@@@std@@@std@@@OStream@serialization@ros@@QEAAXAEBV?$vector@U?$ObjectColor_@V?$allocator@X@std@@@moveit_msgs@@V?$allocator@U?$ObjectColor_@V?$allocator@X@std@@@moveit_msgs@@@std@@@std@@@Z
	??$next@V?$vector@U?$Plane_@V?$allocator@X@std@@@shape_msgs@@V?$allocator@U?$Plane_@V?$allocator@X@std@@@shape_msgs@@@std@@@std@@@LStream@serialization@ros@@QEAAXAEBV?$vector@U?$Plane_@V?$allocator@X@std@@@shape_msgs@@V?$allocator@U?$Plane_@V?$allocator@X@std@@@shape_msgs@@@std@@@std@@@Z
	??$next@V?$vector@U?$Plane_@V?$allocator@X@std@@@shape_msgs@@V?$allocator@U?$Plane_@V?$allocator@X@std@@@shape_msgs@@@std@@@std@@@OStream@serialization@ros@@QEAAXAEBV?$vector@U?$Plane_@V?$allocator@X@std@@@shape_msgs@@V?$allocator@U?$Plane_@V?$allocator@X@std@@@shape_msgs@@@std@@@std@@@Z
	??$next@V?$vector@U?$Point_@V?$allocator@X@std@@@geometry_msgs@@V?$allocator@U?$Point_@V?$allocator@X@std@@@geometry_msgs@@@std@@@std@@@LStream@serialization@ros@@QEAAXAEBV?$vector@U?$Point_@V?$allocator@X@std@@@geometry_msgs@@V?$allocator@U?$Point_@V?$allocator@X@std@@@geometry_msgs@@@std@@@std@@@Z
	??$next@V?$vector@U?$Point_@V?$allocator@X@std@@@geometry_msgs@@V?$allocator@U?$Point_@V?$allocator@X@std@@@geometry_msgs@@@std@@@std@@@OStream@serialization@ros@@QEAAXAEBV?$vector@U?$Point_@V?$allocator@X@std@@@geometry_msgs@@V?$allocator@U?$Point_@V?$allocator@X@std@@@geometry_msgs@@@std@@@std@@@Z
	??$next@V?$vector@U?$Pose_@V?$allocator@X@std@@@geometry_msgs@@V?$allocator@U?$Pose_@V?$allocator@X@std@@@geometry_msgs@@@std@@@std@@@LStream@serialization@ros@@QEAAXAEBV?$vector@U?$Pose_@V?$allocator@X@std@@@geometry_msgs@@V?$allocator@U?$Pose_@V?$allocator@X@std@@@geometry_msgs@@@std@@@std@@@Z
	??$next@V?$vector@U?$Pose_@V?$allocator@X@std@@@geometry_msgs@@V?$allocator@U?$Pose_@V?$allocator@X@std@@@geometry_msgs@@@std@@@std@@@OStream@serialization@ros@@QEAAXAEBV?$vector@U?$Pose_@V?$allocator@X@std@@@geometry_msgs@@V?$allocator@U?$Pose_@V?$allocator@X@std@@@geometry_msgs@@@std@@@std@@@Z
	??$next@V?$vector@U?$SolidPrimitive_@V?$allocator@X@std@@@shape_msgs@@V?$allocator@U?$SolidPrimitive_@V?$allocator@X@std@@@shape_msgs@@@std@@@std@@@LStream@serialization@ros@@QEAAXAEBV?$vector@U?$SolidPrimitive_@V?$allocator@X@std@@@shape_msgs@@V?$allocator@U?$SolidPrimitive_@V?$allocator@X@std@@@shape_msgs@@@std@@@std@@@Z
	??$next@V?$vector@U?$SolidPrimitive_@V?$allocator@X@std@@@shape_msgs@@V?$allocator@U?$SolidPrimitive_@V?$allocator@X@std@@@shape_msgs@@@std@@@std@@@OStream@serialization@ros@@QEAAXAEBV?$vector@U?$SolidPrimitive_@V?$allocator@X@std@@@shape_msgs@@V?$allocator@U?$SolidPrimitive_@V?$allocator@X@std@@@shape_msgs@@@std@@@std@@@Z
	??$next@V?$vector@U?$Transform_@V?$allocator@X@std@@@geometry_msgs@@V?$allocator@U?$Transform_@V?$allocator@X@std@@@geometry_msgs@@@std@@@std@@@LStream@serialization@ros@@QEAAXAEBV?$vector@U?$Transform_@V?$allocator@X@std@@@geometry_msgs@@V?$allocator@U?$Transform_@V?$allocator@X@std@@@geometry_msgs@@@std@@@std@@@Z
	??$next@V?$vector@U?$Transform_@V?$allocator@X@std@@@geometry_msgs@@V?$allocator@U?$Transform_@V?$allocator@X@std@@@geometry_msgs@@@std@@@std@@@OStream@serialization@ros@@QEAAXAEBV?$vector@U?$Transform_@V?$allocator@X@std@@@geometry_msgs@@V?$allocator@U?$Transform_@V?$allocator@X@std@@@geometry_msgs@@@std@@@std@@@Z
	??$next@V?$vector@U?$Twist_@V?$allocator@X@std@@@geometry_msgs@@V?$allocator@U?$Twist_@V?$allocator@X@std@@@geometry_msgs@@@std@@@std@@@LStream@serialization@ros@@QEAAXAEBV?$vector@U?$Twist_@V?$allocator@X@std@@@geometry_msgs@@V?$allocator@U?$Twist_@V?$allocator@X@std@@@geometry_msgs@@@std@@@std@@@Z
	??$next@V?$vector@U?$Twist_@V?$allocator@X@std@@@geometry_msgs@@V?$allocator@U?$Twist_@V?$allocator@X@std@@@geometry_msgs@@@std@@@std@@@OStream@serialization@ros@@QEAAXAEBV?$vector@U?$Twist_@V?$allocator@X@std@@@geometry_msgs@@V?$allocator@U?$Twist_@V?$allocator@X@std@@@geometry_msgs@@@std@@@std@@@Z
	??$next@V?$vector@U?$Wrench_@V?$allocator@X@std@@@geometry_msgs@@V?$allocator@U?$Wrench_@V?$allocator@X@std@@@geometry_msgs@@@std@@@std@@@LStream@serialization@ros@@QEAAXAEBV?$vector@U?$Wrench_@V?$allocator@X@std@@@geometry_msgs@@V?$allocator@U?$Wrench_@V?$allocator@X@std@@@geometry_msgs@@@std@@@std@@@Z
	??$next@V?$vector@U?$Wrench_@V?$allocator@X@std@@@geometry_msgs@@V?$allocator@U?$Wrench_@V?$allocator@X@std@@@geometry_msgs@@@std@@@std@@@OStream@serialization@ros@@QEAAXAEBV?$vector@U?$Wrench_@V?$allocator@X@std@@@geometry_msgs@@V?$allocator@U?$Wrench_@V?$allocator@X@std@@@geometry_msgs@@@std@@@std@@@Z
	??$next@V?$vector@V?$basic_string@DU?$char_traits@D@std@@V?$allocator@D@2@@std@@V?$allocator@V?$basic_string@DU?$char_traits@D@std@@V?$allocator@D@2@@std@@@2@@std@@@LStream@serialization@ros@@QEAAXAEBV?$vector@V?$basic_string@DU?$char_traits@D@std@@V?$allocator@D@2@@std@@V?$allocator@V?$basic_string@DU?$char_traits@D@std@@V?$allocator@D@2@@std@@@2@@std@@@Z
	??$next@V?$vector@V?$basic_string@DU?$char_traits@D@std@@V?$allocator@D@2@@std@@V?$allocator@V?$basic_string@DU?$char_traits@D@std@@V?$allocator@D@2@@std@@@2@@std@@@OStream@serialization@ros@@QEAAXAEBV?$vector@V?$basic_string@DU?$char_traits@D@std@@V?$allocator@D@2@@std@@V?$allocator@V?$basic_string@DU?$char_traits@D@std@@V?$allocator@D@2@@std@@@2@@std@@@Z
	??$next@VDuration@ros@@@LStream@serialization@ros@@QEAAXAEBVDuration@2@@Z
	??$next@VDuration@ros@@@OStream@serialization@ros@@QEAAXAEBVDuration@2@@Z
	??$next@VTime@ros@@@LStream@serialization@ros@@QEAAXAEBVTime@2@@Z
	??$next@VTime@ros@@@OStream@serialization@ros@@QEAAXAEBVTime@2@@Z
	??$packet@$0A@U__m128d@@@?$evaluator@V?$PlainObjectBase@V?$Matrix@N$02$00$0A@$02$00@Eigen@@@Eigen@@@internal@Eigen@@QEBA?AU__m128d@@_J0@Z
	??$packet@$0A@U__m128d@@@?$evaluator@V?$PlainObjectBase@V?$Matrix@N$02$02$0A@$02$02@Eigen@@@Eigen@@@internal@Eigen@@QEBA?AU__m128d@@_J0@Z
	??$packet@$0A@U__m128d@@@?$evaluator@V?$PlainObjectBase@V?$Matrix@N$02$03$0A@$02$03@Eigen@@@Eigen@@@internal@Eigen@@QEBA?AU__m128d@@_J0@Z
	??$packet@$0A@U__m128d@@@?$product_evaluator@V?$Product@V?$Matrix@N$02$00$0A@$02$00@Eigen@@V?$Block@V?$Matrix@N$03$03$0A@$03$03@Eigen@@$00$03$0A@@2@$00@Eigen@@$03UDenseShape@2@U32@NN@internal@Eigen@@QEBA?BU__m128d@@_J0@Z
	??$packet@$0BA@U__m128d@@@?$evaluator@V?$PlainObjectBase@V?$Matrix@N$03$03$0A@$03$03@Eigen@@@Eigen@@@internal@Eigen@@QEBA?AU__m128d@@_J0@Z
	??$packet@$0BA@U__m128d@@@?$mapbase_evaluator@V?$Block@$$CBV?$Matrix@N$03$03$0A@$03$03@Eigen@@$02$00$00@Eigen@@V?$Matrix@N$02$00$0A@$02$00@2@@internal@Eigen@@QEBA?AU__m128d@@_J0@Z
	??$packet@$0BA@U__m128d@@_J@?$evaluator@V?$CwiseNullaryOp@U?$scalar_constant_op@N@internal@Eigen@@V?$Matrix@N$02$00$0A@$02$00@3@@Eigen@@@internal@Eigen@@QEBA?AU__m128d@@_J0@Z
	??$packetOp@U__m128d@@@?$scalar_constant_op@N@internal@Eigen@@QEBA?BU__m128d@@XZ
	??$packetOp@U__m128d@@_J@?$nullary_wrapper@NU?$scalar_constant_op@N@internal@Eigen@@$00$0A@$0A@@internal@Eigen@@QEBA?AU__m128d@@AEBU?$scalar_constant_op@N@12@_J1@Z
	??$padd@U__m128d@@@internal@Eigen@@YA?AU__m128d@@AEBU2@0@Z
	??$pload@U__m128d@@@internal@Eigen@@YA?AU__m128d@@PEBN@Z
	??$ploadt@U__m128d@@$0A@@internal@Eigen@@YA?AU__m128d@@PEBN@Z
	??$ploadt@U__m128d@@$0BA@@internal@Eigen@@YA?AU__m128d@@PEBN@Z
	??$ploadu@U__m128d@@@internal@Eigen@@YA?AU__m128d@@PEBN@Z
	??$pmul@U__m128d@@@internal@Eigen@@YA?AU__m128d@@AEBU2@0@Z
	??$pretranslate@V?$Matrix@N$02$00$0A@$02$00@Eigen@@@?$Transform@N$02$00$0A@@Eigen@@QEAAAEAV01@AEBV?$MatrixBase@V?$Matrix@N$02$00$0A@$02$00@Eigen@@@1@@Z
	??$pset1@U__m128d@@@internal@Eigen@@YA?AU__m128d@@AEBN@Z
	??$pstore@NU__m128d@@@internal@Eigen@@YAXPEANAEBU__m128d@@@Z
	??$pstoret@NU__m128d@@$0A@@internal@Eigen@@YAXPEANAEBU__m128d@@@Z
	??$pstoret@NU__m128d@@$0BA@@internal@Eigen@@YAXPEANAEBU__m128d@@@Z
	??$pstoreu@NU__m128d@@@internal@Eigen@@YAXPEANAEBU__m128d@@@Z
	??$publish@U?$DisplayRobotState_@V?$allocator@X@std@@@moveit_msgs@@@Publisher@ros@@QEBAXAEBU?$DisplayRobotState_@V?$allocator@X@std@@@moveit_msgs@@@Z
	??$publish@U?$Marker_@V?$allocator@X@std@@@visualization_msgs@@@Publisher@ros@@QEBAXAEBU?$Marker_@V?$allocator@X@std@@@visualization_msgs@@@Z
	??$redux@U?$scalar_sum_op@NN@internal@Eigen@@@?$DenseBase@V?$CwiseBinaryOp@U?$scalar_product_op@NN@internal@Eigen@@$$CBV?$Transpose@$$CBV?$Block@$$CBV?$Matrix@N$02$00$0A@$02$00@Eigen@@$00$00$0A@@Eigen@@@3@$$CBV?$Block@$$CBV?$Block@V?$Matrix@N$03$03$0A@$03$03@Eigen@@$00$03$0A@@Eigen@@$00$00$0A@@3@@Eigen@@@Eigen@@QEBANAEBU?$scalar_sum_op@NN@internal@1@@Z
	??$redux@U?$scalar_sum_op@NN@internal@Eigen@@@?$DenseBase@V?$Diagonal@$$CBV?$Block@$$CBV?$Matrix@N$03$03$0A@$03$03@Eigen@@$02$02$0A@@Eigen@@$0A@@Eigen@@@Eigen@@QEBANAEBU?$scalar_sum_op@NN@internal@1@@Z
	??$ref@$$CBU?$DisplayRobotState_@V?$allocator@X@std@@@moveit_msgs@@@boost@@YA?BV?$reference_wrapper@$$CBU?$DisplayRobotState_@V?$allocator@X@std@@@moveit_msgs@@@0@AEBU?$DisplayRobotState_@V?$allocator@X@std@@@moveit_msgs@@@Z
	??$ref@$$CBU?$Marker_@V?$allocator@X@std@@@visualization_msgs@@@boost@@YA?BV?$reference_wrapper@$$CBU?$Marker_@V?$allocator@X@std@@@visualization_msgs@@@0@AEBU?$Marker_@V?$allocator@X@std@@@visualization_msgs@@@Z
	??$reset@E@?$shared_array@E@boost@@QEAAXPEAE@Z
	??$reset@VRobotState@core@moveit@@@?$shared_ptr@VRobotState@core@moveit@@@std@@QEAAXPEAVRobotState@core@moveit@@@Z
	??$resizeLike@V?$Block@$$CBV?$Matrix@N$03$03$0A@$03$03@Eigen@@$02$00$00@Eigen@@@?$PlainObjectBase@V?$Matrix@N$02$00$0A@$02$00@Eigen@@@Eigen@@QEAAXAEBU?$EigenBase@V?$Block@$$CBV?$Matrix@N$03$03$0A@$03$03@Eigen@@$02$00$00@Eigen@@@1@@Z
	??$resize_if_allowed@V?$Block@V?$Matrix@N$03$03$0A@$03$03@Eigen@@$00$02$0A@@Eigen@@V?$CwiseNullaryOp@U?$scalar_constant_op@N@internal@Eigen@@V?$Matrix@N$00$02$00$00$02@3@@2@NN@internal@Eigen@@YAXAEAV?$Block@V?$Matrix@N$03$03$0A@$03$03@Eigen@@$00$02$0A@@1@AEBV?$CwiseNullaryOp@U?$scalar_constant_op@N@internal@Eigen@@V?$Matrix@N$00$02$00$00$02@3@@1@AEBU?$assign_op@NN@01@@Z
	??$resize_if_allowed@V?$Block@V?$Matrix@N$03$03$0A@$03$03@Eigen@@$02$00$00@Eigen@@V?$CwiseNullaryOp@U?$scalar_constant_op@N@internal@Eigen@@V?$Matrix@N$02$00$0A@$02$00@3@@2@NN@internal@Eigen@@YAXAEAV?$Block@V?$Matrix@N$03$03$0A@$03$03@Eigen@@$02$00$00@1@AEBV?$CwiseNullaryOp@U?$scalar_constant_op@N@internal@Eigen@@V?$Matrix@N$02$00$0A@$02$00@3@@1@AEBU?$assign_op@NN@01@@Z
	??$resize_if_allowed@V?$Block@V?$Matrix@N$03$03$0A@$03$03@Eigen@@$02$00$00@Eigen@@V?$Matrix@N$02$00$0A@$02$00@2@NN@internal@Eigen@@YAXAEAV?$Block@V?$Matrix@N$03$03$0A@$03$03@Eigen@@$02$00$00@1@AEBV?$Matrix@N$02$00$0A@$02$00@1@AEBU?$assign_op@NN@01@@Z
	??$resize_if_allowed@V?$Block@V?$Matrix@N$03$03$0A@$03$03@Eigen@@$02$00$00@Eigen@@V?$Matrix@N$02$00$0A@$02$00@2@U?$add_assign_op@NN@internal@2@@internal@Eigen@@YAXAEAV?$Block@V?$Matrix@N$03$03$0A@$03$03@Eigen@@$02$00$00@1@AEBV?$Matrix@N$02$00$0A@$02$00@1@AEBU?$add_assign_op@NN@01@@Z
	??$resize_if_allowed@V?$Block@V?$Matrix@N$03$03$0A@$03$03@Eigen@@$02$02$0A@@Eigen@@V?$CwiseNullaryOp@U?$scalar_identity_op@N@internal@Eigen@@V?$Matrix@N$02$02$0A@$02$02@3@@2@NN@internal@Eigen@@YAXAEAV?$Block@V?$Matrix@N$03$03$0A@$03$03@Eigen@@$02$02$0A@@1@AEBV?$CwiseNullaryOp@U?$scalar_identity_op@N@internal@Eigen@@V?$Matrix@N$02$02$0A@$02$02@3@@1@AEBU?$assign_op@NN@01@@Z
	??$resize_if_allowed@V?$Block@V?$Matrix@N$03$03$0A@$03$03@Eigen@@$02$02$0A@@Eigen@@V?$Matrix@N$02$02$0A@$02$02@2@NN@internal@Eigen@@YAXAEAV?$Block@V?$Matrix@N$03$03$0A@$03$03@Eigen@@$02$02$0A@@1@AEBV?$Matrix@N$02$02$0A@$02$02@1@AEBU?$assign_op@NN@01@@Z
	??$resize_if_allowed@V?$Block@V?$Matrix@N$03$03$0A@$03$03@Eigen@@$02$03$0A@@Eigen@@V?$Matrix@N$02$03$0A@$02$03@2@U?$add_assign_op@NN@internal@2@@internal@Eigen@@YAXAEAV?$Block@V?$Matrix@N$03$03$0A@$03$03@Eigen@@$02$03$0A@@1@AEBV?$Matrix@N$02$03$0A@$02$03@1@AEBU?$add_assign_op@NN@01@@Z
	??$resize_if_allowed@V?$Matrix@N$02$00$0A@$02$00@Eigen@@V?$Block@$$CBV?$Matrix@N$03$03$0A@$03$03@Eigen@@$02$00$00@2@NN@internal@Eigen@@YAXAEAV?$Matrix@N$02$00$0A@$02$00@1@AEBV?$Block@$$CBV?$Matrix@N$03$03$0A@$03$03@Eigen@@$02$00$00@1@AEBU?$assign_op@NN@01@@Z
	??$resize_if_allowed@V?$Matrix@N$02$02$0A@$02$02@Eigen@@V12@NN@internal@Eigen@@YAXAEAV?$Matrix@N$02$02$0A@$02$02@1@AEBV21@AEBU?$assign_op@NN@01@@Z
	??$resize_if_allowed@V?$Matrix@N$02$03$0A@$02$03@Eigen@@V?$Product@V?$Matrix@N$02$00$0A@$02$00@Eigen@@V?$Block@V?$Matrix@N$03$03$0A@$03$03@Eigen@@$00$03$0A@@2@$00@2@NN@internal@Eigen@@YAXAEAV?$Matrix@N$02$03$0A@$02$03@1@AEBV?$Product@V?$Matrix@N$02$00$0A@$02$00@Eigen@@V?$Block@V?$Matrix@N$03$03$0A@$03$03@Eigen@@$00$03$0A@@2@$00@1@AEBU?$assign_op@NN@01@@Z
	??$resize_if_allowed@V?$Matrix@N$03$03$0A@$03$03@Eigen@@V12@NN@internal@Eigen@@YAXAEAV?$Matrix@N$03$03$0A@$03$03@1@AEBV21@AEBU?$assign_op@NN@01@@Z
	??$run@V?$Matrix@N$03$03$0A@$03$03@Eigen@@@?$transform_make_affine@$00@internal@Eigen@@SAXAEAV?$Matrix@N$03$03$0A@$03$03@2@@Z
	??$run@V?$Matrix@N$03$03$0A@$03$03@Eigen@@@?$transform_make_affine@$0BC@@internal@Eigen@@SAXAEAV?$Matrix@N$03$03$0A@$03$03@2@@Z
	??$run@V?$Quaternion@N$0A@@Eigen@@@?$quaternionbase_assign_impl@V?$Block@$$CBV?$Matrix@N$03$03$0A@$03$03@Eigen@@$02$02$0A@@Eigen@@$02$02@internal@Eigen@@SAXAEAV?$QuaternionBase@V?$Quaternion@N$0A@@Eigen@@@2@AEBV?$Block@$$CBV?$Matrix@N$03$03$0A@$03$03@Eigen@@$02$02$0A@@2@@Z
	??$run@_J@?$check_rows_cols_for_overflow@$02@internal@Eigen@@SAX_J0@Z
	??$run@_J@?$check_rows_cols_for_overflow@$08@internal@Eigen@@SAX_J0@Z
	??$run@_J@?$check_rows_cols_for_overflow@$0BA@@internal@Eigen@@SAX_J0@Z
	??$run@_J@?$check_rows_cols_for_overflow@$0M@@internal@Eigen@@SAX_J0@Z
	??$serializationLength@C@serialization@ros@@YAIAEBC@Z
	??$serializationLength@E@serialization@ros@@YAIAEBE@Z
	??$serializationLength@H@serialization@ros@@YAIAEBH@Z
	??$serializationLength@I$02@serialization@ros@@YAIAEBV?$array@I$02@boost@@@Z
	??$serializationLength@I@serialization@ros@@YAIAEBI@Z
	??$serializationLength@M@serialization@ros@@YAIAEBM@Z
	??$serializationLength@N$03@serialization@ros@@YAIAEBV?$array@N$03@boost@@@Z
	??$serializationLength@N@serialization@ros@@YAIAEBN@Z
	??$serializationLength@NV?$allocator@N@std@@@serialization@ros@@YAIAEBV?$vector@NV?$allocator@N@std@@@std@@@Z
	??$serializationLength@U?$AttachedCollisionObject_@V?$allocator@X@std@@@moveit_msgs@@@serialization@ros@@YAIAEBU?$AttachedCollisionObject_@V?$allocator@X@std@@@moveit_msgs@@@Z
	??$serializationLength@U?$AttachedCollisionObject_@V?$allocator@X@std@@@moveit_msgs@@V?$allocator@U?$AttachedCollisionObject_@V?$allocator@X@std@@@moveit_msgs@@@std@@@serialization@ros@@YAIAEBV?$vector@U?$AttachedCollisionObject_@V?$allocator@X@std@@@moveit_msgs@@V?$allocator@U?$AttachedCollisionObject_@V?$allocator@X@std@@@moveit_msgs@@@std@@@std@@@Z
	??$serializationLength@U?$CollisionObject_@V?$allocator@X@std@@@moveit_msgs@@@serialization@ros@@YAIAEBU?$CollisionObject_@V?$allocator@X@std@@@moveit_msgs@@@Z
	??$serializationLength@U?$ColorRGBA_@V?$allocator@X@std@@@std_msgs@@@serialization@ros@@YAIAEBU?$ColorRGBA_@V?$allocator@X@std@@@std_msgs@@@Z
	??$serializationLength@U?$ColorRGBA_@V?$allocator@X@std@@@std_msgs@@V?$allocator@U?$ColorRGBA_@V?$allocator@X@std@@@std_msgs@@@std@@@serialization@ros@@YAIAEBV?$vector@U?$ColorRGBA_@V?$allocator@X@std@@@std_msgs@@V?$allocator@U?$ColorRGBA_@V?$allocator@X@std@@@std_msgs@@@std@@@std@@@Z
	??$serializationLength@U?$DisplayRobotState_@V?$allocator@X@std@@@moveit_msgs@@@serialization@ros@@YAIAEBU?$DisplayRobotState_@V?$allocator@X@std@@@moveit_msgs@@@Z
	??$serializationLength@U?$Header_@V?$allocator@X@std@@@std_msgs@@@serialization@ros@@YAIAEBU?$Header_@V?$allocator@X@std@@@std_msgs@@@Z
	??$serializationLength@U?$JointState_@V?$allocator@X@std@@@sensor_msgs@@@serialization@ros@@YAIAEBU?$JointState_@V?$allocator@X@std@@@sensor_msgs@@@Z
	??$serializationLength@U?$JointTrajectoryPoint_@V?$allocator@X@std@@@trajectory_msgs@@@serialization@ros@@YAIAEBU?$JointTrajectoryPoint_@V?$allocator@X@std@@@trajectory_msgs@@@Z
	??$serializationLength@U?$JointTrajectoryPoint_@V?$allocator@X@std@@@trajectory_msgs@@V?$allocator@U?$JointTrajectoryPoint_@V?$allocator@X@std@@@trajectory_msgs@@@std@@@serialization@ros@@YAIAEBV?$vector@U?$JointTrajectoryPoint_@V?$allocator@X@std@@@trajectory_msgs@@V?$allocator@U?$JointTrajectoryPoint_@V?$allocator@X@std@@@trajectory_msgs@@@std@@@std@@@Z
	??$serializationLength@U?$JointTrajectory_@V?$allocator@X@std@@@trajectory_msgs@@@serialization@ros@@YAIAEBU?$JointTrajectory_@V?$allocator@X@std@@@trajectory_msgs@@@Z
	??$serializationLength@U?$Marker_@V?$allocator@X@std@@@visualization_msgs@@@serialization@ros@@YAIAEBU?$Marker_@V?$allocator@X@std@@@visualization_msgs@@@Z
	??$serializationLength@U?$MeshTriangle_@V?$allocator@X@std@@@shape_msgs@@@serialization@ros@@YAIAEBU?$MeshTriangle_@V?$allocator@X@std@@@shape_msgs@@@Z
	??$serializationLength@U?$MeshTriangle_@V?$allocator@X@std@@@shape_msgs@@V?$allocator@U?$MeshTriangle_@V?$allocator@X@std@@@shape_msgs@@@std@@@serialization@ros@@YAIAEBV?$vector@U?$MeshTriangle_@V?$allocator@X@std@@@shape_msgs@@V?$allocator@U?$MeshTriangle_@V?$allocator@X@std@@@shape_msgs@@@std@@@std@@@Z
	??$serializationLength@U?$Mesh_@V?$allocator@X@std@@@shape_msgs@@@serialization@ros@@YAIAEBU?$Mesh_@V?$allocator@X@std@@@shape_msgs@@@Z
	??$serializationLength@U?$Mesh_@V?$allocator@X@std@@@shape_msgs@@V?$allocator@U?$Mesh_@V?$allocator@X@std@@@shape_msgs@@@std@@@serialization@ros@@YAIAEBV?$vector@U?$Mesh_@V?$allocator@X@std@@@shape_msgs@@V?$allocator@U?$Mesh_@V?$allocator@X@std@@@shape_msgs@@@std@@@std@@@Z
	??$serializationLength@U?$MultiDOFJointState_@V?$allocator@X@std@@@sensor_msgs@@@serialization@ros@@YAIAEBU?$MultiDOFJointState_@V?$allocator@X@std@@@sensor_msgs@@@Z
	??$serializationLength@U?$ObjectColor_@V?$allocator@X@std@@@moveit_msgs@@@serialization@ros@@YAIAEBU?$ObjectColor_@V?$allocator@X@std@@@moveit_msgs@@@Z
	??$serializationLength@U?$ObjectColor_@V?$allocator@X@std@@@moveit_msgs@@V?$allocator@U?$ObjectColor_@V?$allocator@X@std@@@moveit_msgs@@@std@@@serialization@ros@@YAIAEBV?$vector@U?$ObjectColor_@V?$allocator@X@std@@@moveit_msgs@@V?$allocator@U?$ObjectColor_@V?$allocator@X@std@@@moveit_msgs@@@std@@@std@@@Z
	??$serializationLength@U?$ObjectType_@V?$allocator@X@std@@@object_recognition_msgs@@@serialization@ros@@YAIAEBU?$ObjectType_@V?$allocator@X@std@@@object_recognition_msgs@@@Z
	??$serializationLength@U?$Plane_@V?$allocator@X@std@@@shape_msgs@@@serialization@ros@@YAIAEBU?$Plane_@V?$allocator@X@std@@@shape_msgs@@@Z
	??$serializationLength@U?$Plane_@V?$allocator@X@std@@@shape_msgs@@V?$allocator@U?$Plane_@V?$allocator@X@std@@@shape_msgs@@@std@@@serialization@ros@@YAIAEBV?$vector@U?$Plane_@V?$allocator@X@std@@@shape_msgs@@V?$allocator@U?$Plane_@V?$allocator@X@std@@@shape_msgs@@@std@@@std@@@Z
	??$serializationLength@U?$Point_@V?$allocator@X@std@@@geometry_msgs@@@serialization@ros@@YAIAEBU?$Point_@V?$allocator@X@std@@@geometry_msgs@@@Z
	??$serializationLength@U?$Point_@V?$allocator@X@std@@@geometry_msgs@@V?$allocator@U?$Point_@V?$allocator@X@std@@@geometry_msgs@@@std@@@serialization@ros@@YAIAEBV?$vector@U?$Point_@V?$allocator@X@std@@@geometry_msgs@@V?$allocator@U?$Point_@V?$allocator@X@std@@@geometry_msgs@@@std@@@std@@@Z
	??$serializationLength@U?$Pose_@V?$allocator@X@std@@@geometry_msgs@@@serialization@ros@@YAIAEBU?$Pose_@V?$allocator@X@std@@@geometry_msgs@@@Z
	??$serializationLength@U?$Pose_@V?$allocator@X@std@@@geometry_msgs@@V?$allocator@U?$Pose_@V?$allocator@X@std@@@geometry_msgs@@@std@@@serialization@ros@@YAIAEBV?$vector@U?$Pose_@V?$allocator@X@std@@@geometry_msgs@@V?$allocator@U?$Pose_@V?$allocator@X@std@@@geometry_msgs@@@std@@@std@@@Z
	??$serializationLength@U?$Quaternion_@V?$allocator@X@std@@@geometry_msgs@@@serialization@ros@@YAIAEBU?$Quaternion_@V?$allocator@X@std@@@geometry_msgs@@@Z
	??$serializationLength@U?$RobotState_@V?$allocator@X@std@@@moveit_msgs@@@serialization@ros@@YAIAEBU?$RobotState_@V?$allocator@X@std@@@moveit_msgs@@@Z
	??$serializationLength@U?$SolidPrimitive_@V?$allocator@X@std@@@shape_msgs@@@serialization@ros@@YAIAEBU?$SolidPrimitive_@V?$allocator@X@std@@@shape_msgs@@@Z
	??$serializationLength@U?$SolidPrimitive_@V?$allocator@X@std@@@shape_msgs@@V?$allocator@U?$SolidPrimitive_@V?$allocator@X@std@@@shape_msgs@@@std@@@serialization@ros@@YAIAEBV?$vector@U?$SolidPrimitive_@V?$allocator@X@std@@@shape_msgs@@V?$allocator@U?$SolidPrimitive_@V?$allocator@X@std@@@shape_msgs@@@std@@@std@@@Z
	??$serializationLength@U?$Transform_@V?$allocator@X@std@@@geometry_msgs@@@serialization@ros@@YAIAEBU?$Transform_@V?$allocator@X@std@@@geometry_msgs@@@Z
	??$serializationLength@U?$Transform_@V?$allocator@X@std@@@geometry_msgs@@V?$allocator@U?$Transform_@V?$allocator@X@std@@@geometry_msgs@@@std@@@serialization@ros@@YAIAEBV?$vector@U?$Transform_@V?$allocator@X@std@@@geometry_msgs@@V?$allocator@U?$Transform_@V?$allocator@X@std@@@geometry_msgs@@@std@@@std@@@Z
	??$serializationLength@U?$Twist_@V?$allocator@X@std@@@geometry_msgs@@@serialization@ros@@YAIAEBU?$Twist_@V?$allocator@X@std@@@geometry_msgs@@@Z
	??$serializationLength@U?$Twist_@V?$allocator@X@std@@@geometry_msgs@@V?$allocator@U?$Twist_@V?$allocator@X@std@@@geometry_msgs@@@std@@@serialization@ros@@YAIAEBV?$vector@U?$Twist_@V?$allocator@X@std@@@geometry_msgs@@V?$allocator@U?$Twist_@V?$allocator@X@std@@@geometry_msgs@@@std@@@std@@@Z
	??$serializationLength@U?$Vector3_@V?$allocator@X@std@@@geometry_msgs@@@serialization@ros@@YAIAEBU?$Vector3_@V?$allocator@X@std@@@geometry_msgs@@@Z
	??$serializationLength@U?$Wrench_@V?$allocator@X@std@@@geometry_msgs@@@serialization@ros@@YAIAEBU?$Wrench_@V?$allocator@X@std@@@geometry_msgs@@@Z
	??$serializationLength@U?$Wrench_@V?$allocator@X@std@@@geometry_msgs@@V?$allocator@U?$Wrench_@V?$allocator@X@std@@@geometry_msgs@@@std@@@serialization@ros@@YAIAEBV?$vector@U?$Wrench_@V?$allocator@X@std@@@geometry_msgs@@V?$allocator@U?$Wrench_@V?$allocator@X@std@@@geometry_msgs@@@std@@@std@@@Z
	??$serializationLength@V?$basic_string@DU?$char_traits@D@std@@V?$allocator@D@2@@std@@@serialization@ros@@YAIAEBV?$basic_string@DU?$char_traits@D@std@@V?$allocator@D@2@@std@@@Z
	??$serializationLength@V?$basic_string@DU?$char_traits@D@std@@V?$allocator@D@2@@std@@V?$allocator@V?$basic_string@DU?$char_traits@D@std@@V?$allocator@D@2@@std@@@2@@serialization@ros@@YAIAEBV?$vector@V?$basic_string@DU?$char_traits@D@std@@V?$allocator@D@2@@std@@V?$allocator@V?$basic_string@DU?$char_traits@D@std@@V?$allocator@D@2@@std@@@2@@std@@@Z
	??$serializationLength@VDuration@ros@@@serialization@ros@@YAIAEBVDuration@1@@Z
	??$serializationLength@VTime@ros@@@serialization@ros@@YAIAEBVTime@1@@Z
	??$serialize@CUOStream@serialization@ros@@@serialization@ros@@YAXAEAUOStream@01@AEBC@Z
	??$serialize@EUOStream@serialization@ros@@@serialization@ros@@YAXAEAUOStream@01@AEBE@Z
	??$serialize@HUOStream@serialization@ros@@@serialization@ros@@YAXAEAUOStream@01@AEBH@Z
	??$serialize@I$02UOStream@serialization@ros@@@serialization@ros@@YAXAEAUOStream@01@AEBV?$array@I$02@boost@@@Z
	??$serialize@IUOStream@serialization@ros@@@serialization@ros@@YAXAEAUOStream@01@AEBI@Z
	??$serialize@MUOStream@serialization@ros@@@serialization@ros@@YAXAEAUOStream@01@AEBM@Z
	??$serialize@N$03UOStream@serialization@ros@@@serialization@ros@@YAXAEAUOStream@01@AEBV?$array@N$03@boost@@@Z
	??$serialize@NUOStream@serialization@ros@@@serialization@ros@@YAXAEAUOStream@01@AEBN@Z
	??$serialize@NV?$allocator@N@std@@UOStream@serialization@ros@@@serialization@ros@@YAXAEAUOStream@01@AEBV?$vector@NV?$allocator@N@std@@@std@@@Z
	??$serialize@U?$AttachedCollisionObject_@V?$allocator@X@std@@@moveit_msgs@@UOStream@serialization@ros@@@serialization@ros@@YAXAEAUOStream@01@AEBU?$AttachedCollisionObject_@V?$allocator@X@std@@@moveit_msgs@@@Z
	??$serialize@U?$AttachedCollisionObject_@V?$allocator@X@std@@@moveit_msgs@@V?$allocator@U?$AttachedCollisionObject_@V?$allocator@X@std@@@moveit_msgs@@@std@@UOStream@serialization@ros@@@serialization@ros@@YAXAEAUOStream@01@AEBV?$vector@U?$AttachedCollisionObject_@V?$allocator@X@std@@@moveit_msgs@@V?$allocator@U?$AttachedCollisionObject_@V?$allocator@X@std@@@moveit_msgs@@@std@@@std@@@Z
	??$serialize@U?$CollisionObject_@V?$allocator@X@std@@@moveit_msgs@@UOStream@serialization@ros@@@serialization@ros@@YAXAEAUOStream@01@AEBU?$CollisionObject_@V?$allocator@X@std@@@moveit_msgs@@@Z
	??$serialize@U?$ColorRGBA_@V?$allocator@X@std@@@std_msgs@@UOStream@serialization@ros@@@serialization@ros@@YAXAEAUOStream@01@AEBU?$ColorRGBA_@V?$allocator@X@std@@@std_msgs@@@Z
	??$serialize@U?$ColorRGBA_@V?$allocator@X@std@@@std_msgs@@V?$allocator@U?$ColorRGBA_@V?$allocator@X@std@@@std_msgs@@@std@@UOStream@serialization@ros@@@serialization@ros@@YAXAEAUOStream@01@AEBV?$vector@U?$ColorRGBA_@V?$allocator@X@std@@@std_msgs@@V?$allocator@U?$ColorRGBA_@V?$allocator@X@std@@@std_msgs@@@std@@@std@@@Z
	??$serialize@U?$DisplayRobotState_@V?$allocator@X@std@@@moveit_msgs@@UOStream@serialization@ros@@@serialization@ros@@YAXAEAUOStream@01@AEBU?$DisplayRobotState_@V?$allocator@X@std@@@moveit_msgs@@@Z
	??$serialize@U?$Header_@V?$allocator@X@std@@@std_msgs@@UOStream@serialization@ros@@@serialization@ros@@YAXAEAUOStream@01@AEBU?$Header_@V?$allocator@X@std@@@std_msgs@@@Z
	??$serialize@U?$JointState_@V?$allocator@X@std@@@sensor_msgs@@UOStream@serialization@ros@@@serialization@ros@@YAXAEAUOStream@01@AEBU?$JointState_@V?$allocator@X@std@@@sensor_msgs@@@Z
	??$serialize@U?$JointTrajectoryPoint_@V?$allocator@X@std@@@trajectory_msgs@@UOStream@serialization@ros@@@serialization@ros@@YAXAEAUOStream@01@AEBU?$JointTrajectoryPoint_@V?$allocator@X@std@@@trajectory_msgs@@@Z
	??$serialize@U?$JointTrajectoryPoint_@V?$allocator@X@std@@@trajectory_msgs@@V?$allocator@U?$JointTrajectoryPoint_@V?$allocator@X@std@@@trajectory_msgs@@@std@@UOStream@serialization@ros@@@serialization@ros@@YAXAEAUOStream@01@AEBV?$vector@U?$JointTrajectoryPoint_@V?$allocator@X@std@@@trajectory_msgs@@V?$allocator@U?$JointTrajectoryPoint_@V?$allocator@X@std@@@trajectory_msgs@@@std@@@std@@@Z
	??$serialize@U?$JointTrajectory_@V?$allocator@X@std@@@trajectory_msgs@@UOStream@serialization@ros@@@serialization@ros@@YAXAEAUOStream@01@AEBU?$JointTrajectory_@V?$allocator@X@std@@@trajectory_msgs@@@Z
	??$serialize@U?$Marker_@V?$allocator@X@std@@@visualization_msgs@@UOStream@serialization@ros@@@serialization@ros@@YAXAEAUOStream@01@AEBU?$Marker_@V?$allocator@X@std@@@visualization_msgs@@@Z
	??$serialize@U?$MeshTriangle_@V?$allocator@X@std@@@shape_msgs@@UOStream@serialization@ros@@@serialization@ros@@YAXAEAUOStream@01@AEBU?$MeshTriangle_@V?$allocator@X@std@@@shape_msgs@@@Z
	??$serialize@U?$MeshTriangle_@V?$allocator@X@std@@@shape_msgs@@V?$allocator@U?$MeshTriangle_@V?$allocator@X@std@@@shape_msgs@@@std@@UOStream@serialization@ros@@@serialization@ros@@YAXAEAUOStream@01@AEBV?$vector@U?$MeshTriangle_@V?$allocator@X@std@@@shape_msgs@@V?$allocator@U?$MeshTriangle_@V?$allocator@X@std@@@shape_msgs@@@std@@@std@@@Z
	??$serialize@U?$Mesh_@V?$allocator@X@std@@@shape_msgs@@UOStream@serialization@ros@@@serialization@ros@@YAXAEAUOStream@01@AEBU?$Mesh_@V?$allocator@X@std@@@shape_msgs@@@Z
	??$serialize@U?$Mesh_@V?$allocator@X@std@@@shape_msgs@@V?$allocator@U?$Mesh_@V?$allocator@X@std@@@shape_msgs@@@std@@UOStream@serialization@ros@@@serialization@ros@@YAXAEAUOStream@01@AEBV?$vector@U?$Mesh_@V?$allocator@X@std@@@shape_msgs@@V?$allocator@U?$Mesh_@V?$allocator@X@std@@@shape_msgs@@@std@@@std@@@Z
	??$serialize@U?$MultiDOFJointState_@V?$allocator@X@std@@@sensor_msgs@@UOStream@serialization@ros@@@serialization@ros@@YAXAEAUOStream@01@AEBU?$MultiDOFJointState_@V?$allocator@X@std@@@sensor_msgs@@@Z
	??$serialize@U?$ObjectColor_@V?$allocator@X@std@@@moveit_msgs@@UOStream@serialization@ros@@@serialization@ros@@YAXAEAUOStream@01@AEBU?$ObjectColor_@V?$allocator@X@std@@@moveit_msgs@@@Z
	??$serialize@U?$ObjectColor_@V?$allocator@X@std@@@moveit_msgs@@V?$allocator@U?$ObjectColor_@V?$allocator@X@std@@@moveit_msgs@@@std@@UOStream@serialization@ros@@@serialization@ros@@YAXAEAUOStream@01@AEBV?$vector@U?$ObjectColor_@V?$allocator@X@std@@@moveit_msgs@@V?$allocator@U?$ObjectColor_@V?$allocator@X@std@@@moveit_msgs@@@std@@@std@@@Z
	??$serialize@U?$ObjectType_@V?$allocator@X@std@@@object_recognition_msgs@@UOStream@serialization@ros@@@serialization@ros@@YAXAEAUOStream@01@AEBU?$ObjectType_@V?$allocator@X@std@@@object_recognition_msgs@@@Z
	??$serialize@U?$Plane_@V?$allocator@X@std@@@shape_msgs@@UOStream@serialization@ros@@@serialization@ros@@YAXAEAUOStream@01@AEBU?$Plane_@V?$allocator@X@std@@@shape_msgs@@@Z
	??$serialize@U?$Plane_@V?$allocator@X@std@@@shape_msgs@@V?$allocator@U?$Plane_@V?$allocator@X@std@@@shape_msgs@@@std@@UOStream@serialization@ros@@@serialization@ros@@YAXAEAUOStream@01@AEBV?$vector@U?$Plane_@V?$allocator@X@std@@@shape_msgs@@V?$allocator@U?$Plane_@V?$allocator@X@std@@@shape_msgs@@@std@@@std@@@Z
	??$serialize@U?$Point_@V?$allocator@X@std@@@geometry_msgs@@UOStream@serialization@ros@@@serialization@ros@@YAXAEAUOStream@01@AEBU?$Point_@V?$allocator@X@std@@@geometry_msgs@@@Z
	??$serialize@U?$Point_@V?$allocator@X@std@@@geometry_msgs@@V?$allocator@U?$Point_@V?$allocator@X@std@@@geometry_msgs@@@std@@UOStream@serialization@ros@@@serialization@ros@@YAXAEAUOStream@01@AEBV?$vector@U?$Point_@V?$allocator@X@std@@@geometry_msgs@@V?$allocator@U?$Point_@V?$allocator@X@std@@@geometry_msgs@@@std@@@std@@@Z
	??$serialize@U?$Pose_@V?$allocator@X@std@@@geometry_msgs@@UOStream@serialization@ros@@@serialization@ros@@YAXAEAUOStream@01@AEBU?$Pose_@V?$allocator@X@std@@@geometry_msgs@@@Z
	??$serialize@U?$Pose_@V?$allocator@X@std@@@geometry_msgs@@V?$allocator@U?$Pose_@V?$allocator@X@std@@@geometry_msgs@@@std@@UOStream@serialization@ros@@@serialization@ros@@YAXAEAUOStream@01@AEBV?$vector@U?$Pose_@V?$allocator@X@std@@@geometry_msgs@@V?$allocator@U?$Pose_@V?$allocator@X@std@@@geometry_msgs@@@std@@@std@@@Z
	??$serialize@U?$Quaternion_@V?$allocator@X@std@@@geometry_msgs@@UOStream@serialization@ros@@@serialization@ros@@YAXAEAUOStream@01@AEBU?$Quaternion_@V?$allocator@X@std@@@geometry_msgs@@@Z
	??$serialize@U?$RobotState_@V?$allocator@X@std@@@moveit_msgs@@UOStream@serialization@ros@@@serialization@ros@@YAXAEAUOStream@01@AEBU?$RobotState_@V?$allocator@X@std@@@moveit_msgs@@@Z
	??$serialize@U?$SolidPrimitive_@V?$allocator@X@std@@@shape_msgs@@UOStream@serialization@ros@@@serialization@ros@@YAXAEAUOStream@01@AEBU?$SolidPrimitive_@V?$allocator@X@std@@@shape_msgs@@@Z
	??$serialize@U?$SolidPrimitive_@V?$allocator@X@std@@@shape_msgs@@V?$allocator@U?$SolidPrimitive_@V?$allocator@X@std@@@shape_msgs@@@std@@UOStream@serialization@ros@@@serialization@ros@@YAXAEAUOStream@01@AEBV?$vector@U?$SolidPrimitive_@V?$allocator@X@std@@@shape_msgs@@V?$allocator@U?$SolidPrimitive_@V?$allocator@X@std@@@shape_msgs@@@std@@@std@@@Z
	??$serialize@U?$Transform_@V?$allocator@X@std@@@geometry_msgs@@UOStream@serialization@ros@@@serialization@ros@@YAXAEAUOStream@01@AEBU?$Transform_@V?$allocator@X@std@@@geometry_msgs@@@Z
	??$serialize@U?$Transform_@V?$allocator@X@std@@@geometry_msgs@@V?$allocator@U?$Transform_@V?$allocator@X@std@@@geometry_msgs@@@std@@UOStream@serialization@ros@@@serialization@ros@@YAXAEAUOStream@01@AEBV?$vector@U?$Transform_@V?$allocator@X@std@@@geometry_msgs@@V?$allocator@U?$Transform_@V?$allocator@X@std@@@geometry_msgs@@@std@@@std@@@Z
	??$serialize@U?$Twist_@V?$allocator@X@std@@@geometry_msgs@@UOStream@serialization@ros@@@serialization@ros@@YAXAEAUOStream@01@AEBU?$Twist_@V?$allocator@X@std@@@geometry_msgs@@@Z
	??$serialize@U?$Twist_@V?$allocator@X@std@@@geometry_msgs@@V?$allocator@U?$Twist_@V?$allocator@X@std@@@geometry_msgs@@@std@@UOStream@serialization@ros@@@serialization@ros@@YAXAEAUOStream@01@AEBV?$vector@U?$Twist_@V?$allocator@X@std@@@geometry_msgs@@V?$allocator@U?$Twist_@V?$allocator@X@std@@@geometry_msgs@@@std@@@std@@@Z
	??$serialize@U?$Vector3_@V?$allocator@X@std@@@geometry_msgs@@UOStream@serialization@ros@@@serialization@ros@@YAXAEAUOStream@01@AEBU?$Vector3_@V?$allocator@X@std@@@geometry_msgs@@@Z
	??$serialize@U?$Wrench_@V?$allocator@X@std@@@geometry_msgs@@UOStream@serialization@ros@@@serialization@ros@@YAXAEAUOStream@01@AEBU?$Wrench_@V?$allocator@X@std@@@geometry_msgs@@@Z
	??$serialize@U?$Wrench_@V?$allocator@X@std@@@geometry_msgs@@V?$allocator@U?$Wrench_@V?$allocator@X@std@@@geometry_msgs@@@std@@UOStream@serialization@ros@@@serialization@ros@@YAXAEAUOStream@01@AEBV?$vector@U?$Wrench_@V?$allocator@X@std@@@geometry_msgs@@V?$allocator@U?$Wrench_@V?$allocator@X@std@@@geometry_msgs@@@std@@@std@@@Z
	??$serialize@V?$basic_string@DU?$char_traits@D@std@@V?$allocator@D@2@@std@@UOStream@serialization@ros@@@serialization@ros@@YAXAEAUOStream@01@AEBV?$basic_string@DU?$char_traits@D@std@@V?$allocator@D@2@@std@@@Z
	??$serialize@V?$basic_string@DU?$char_traits@D@std@@V?$allocator@D@2@@std@@V?$allocator@V?$basic_string@DU?$char_traits@D@std@@V?$allocator@D@2@@std@@@2@UOStream@serialization@ros@@@serialization@ros@@YAXAEAUOStream@01@AEBV?$vector@V?$basic_string@DU?$char_traits@D@std@@V?$allocator@D@2@@std@@V?$allocator@V?$basic_string@DU?$char_traits@D@std@@V?$allocator@D@2@@std@@@2@@std@@@Z
	??$serialize@VDuration@ros@@UOStream@serialization@2@@serialization@ros@@YAXAEAUOStream@01@AEBVDuration@1@@Z
	??$serialize@VTime@ros@@UOStream@serialization@2@@serialization@ros@@YAXAEAUOStream@01@AEBVTime@1@@Z
	??$serializeMessage@U?$DisplayRobotState_@V?$allocator@X@std@@@moveit_msgs@@@serialization@ros@@YA?AVSerializedMessage@1@AEBU?$DisplayRobotState_@V?$allocator@X@std@@@moveit_msgs@@@Z
	??$serializeMessage@U?$Marker_@V?$allocator@X@std@@@visualization_msgs@@@serialization@ros@@YA?AVSerializedMessage@1@AEBU?$Marker_@V?$allocator@X@std@@@visualization_msgs@@@Z
	??$serializedLength@U?$AttachedCollisionObject_@V?$allocator@X@std@@@moveit_msgs@@@?$Serializer@U?$AttachedCollisionObject_@V?$allocator@X@std@@@moveit_msgs@@@serialization@ros@@SAIAEBU?$AttachedCollisionObject_@V?$allocator@X@std@@@moveit_msgs@@@Z
	??$serializedLength@U?$CollisionObject_@V?$allocator@X@std@@@moveit_msgs@@@?$Serializer@U?$CollisionObject_@V?$allocator@X@std@@@moveit_msgs@@@serialization@ros@@SAIAEBU?$CollisionObject_@V?$allocator@X@std@@@moveit_msgs@@@Z
	??$serializedLength@U?$ColorRGBA_@V?$allocator@X@std@@@std_msgs@@@?$Serializer@U?$ColorRGBA_@V?$allocator@X@std@@@std_msgs@@@serialization@ros@@SAIAEBU?$ColorRGBA_@V?$allocator@X@std@@@std_msgs@@@Z
	??$serializedLength@U?$DisplayRobotState_@V?$allocator@X@std@@@moveit_msgs@@@?$Serializer@U?$DisplayRobotState_@V?$allocator@X@std@@@moveit_msgs@@@serialization@ros@@SAIAEBU?$DisplayRobotState_@V?$allocator@X@std@@@moveit_msgs@@@Z
	??$serializedLength@U?$Header_@V?$allocator@X@std@@@std_msgs@@@?$Serializer@U?$Header_@V?$allocator@X@std@@@std_msgs@@@serialization@ros@@SAIAEBU?$Header_@V?$allocator@X@std@@@std_msgs@@@Z
	??$serializedLength@U?$JointState_@V?$allocator@X@std@@@sensor_msgs@@@?$Serializer@U?$JointState_@V?$allocator@X@std@@@sensor_msgs@@@serialization@ros@@SAIAEBU?$JointState_@V?$allocator@X@std@@@sensor_msgs@@@Z
	??$serializedLength@U?$JointTrajectoryPoint_@V?$allocator@X@std@@@trajectory_msgs@@@?$Serializer@U?$JointTrajectoryPoint_@V?$allocator@X@std@@@trajectory_msgs@@@serialization@ros@@SAIAEBU?$JointTrajectoryPoint_@V?$allocator@X@std@@@trajectory_msgs@@@Z
	??$serializedLength@U?$JointTrajectory_@V?$allocator@X@std@@@trajectory_msgs@@@?$Serializer@U?$JointTrajectory_@V?$allocator@X@std@@@trajectory_msgs@@@serialization@ros@@SAIAEBU?$JointTrajectory_@V?$allocator@X@std@@@trajectory_msgs@@@Z
	??$serializedLength@U?$Marker_@V?$allocator@X@std@@@visualization_msgs@@@?$Serializer@U?$Marker_@V?$allocator@X@std@@@visualization_msgs@@@serialization@ros@@SAIAEBU?$Marker_@V?$allocator@X@std@@@visualization_msgs@@@Z
	??$serializedLength@U?$MeshTriangle_@V?$allocator@X@std@@@shape_msgs@@@?$Serializer@U?$MeshTriangle_@V?$allocator@X@std@@@shape_msgs@@@serialization@ros@@SAIAEBU?$MeshTriangle_@V?$allocator@X@std@@@shape_msgs@@@Z
	??$serializedLength@U?$Mesh_@V?$allocator@X@std@@@shape_msgs@@@?$Serializer@U?$Mesh_@V?$allocator@X@std@@@shape_msgs@@@serialization@ros@@SAIAEBU?$Mesh_@V?$allocator@X@std@@@shape_msgs@@@Z
	??$serializedLength@U?$MultiDOFJointState_@V?$allocator@X@std@@@sensor_msgs@@@?$Serializer@U?$MultiDOFJointState_@V?$allocator@X@std@@@sensor_msgs@@@serialization@ros@@SAIAEBU?$MultiDOFJointState_@V?$allocator@X@std@@@sensor_msgs@@@Z
	??$serializedLength@U?$ObjectColor_@V?$allocator@X@std@@@moveit_msgs@@@?$Serializer@U?$ObjectColor_@V?$allocator@X@std@@@moveit_msgs@@@serialization@ros@@SAIAEBU?$ObjectColor_@V?$allocator@X@std@@@moveit_msgs@@@Z
	??$serializedLength@U?$ObjectType_@V?$allocator@X@std@@@object_recognition_msgs@@@?$Serializer@U?$ObjectType_@V?$allocator@X@std@@@object_recognition_msgs@@@serialization@ros@@SAIAEBU?$ObjectType_@V?$allocator@X@std@@@object_recognition_msgs@@@Z
	??$serializedLength@U?$Plane_@V?$allocator@X@std@@@shape_msgs@@@?$Serializer@U?$Plane_@V?$allocator@X@std@@@shape_msgs@@@serialization@ros@@SAIAEBU?$Plane_@V?$allocator@X@std@@@shape_msgs@@@Z
	??$serializedLength@U?$Point_@V?$allocator@X@std@@@geometry_msgs@@@?$Serializer@U?$Point_@V?$allocator@X@std@@@geometry_msgs@@@serialization@ros@@SAIAEBU?$Point_@V?$allocator@X@std@@@geometry_msgs@@@Z
	??$serializedLength@U?$Pose_@V?$allocator@X@std@@@geometry_msgs@@@?$Serializer@U?$Pose_@V?$allocator@X@std@@@geometry_msgs@@@serialization@ros@@SAIAEBU?$Pose_@V?$allocator@X@std@@@geometry_msgs@@@Z
	??$serializedLength@U?$Quaternion_@V?$allocator@X@std@@@geometry_msgs@@@?$Serializer@U?$Quaternion_@V?$allocator@X@std@@@geometry_msgs@@@serialization@ros@@SAIAEBU?$Quaternion_@V?$allocator@X@std@@@geometry_msgs@@@Z
	??$serializedLength@U?$RobotState_@V?$allocator@X@std@@@moveit_msgs@@@?$Serializer@U?$RobotState_@V?$allocator@X@std@@@moveit_msgs@@@serialization@ros@@SAIAEBU?$RobotState_@V?$allocator@X@std@@@moveit_msgs@@@Z
	??$serializedLength@U?$SolidPrimitive_@V?$allocator@X@std@@@shape_msgs@@@?$Serializer@U?$SolidPrimitive_@V?$allocator@X@std@@@shape_msgs@@@serialization@ros@@SAIAEBU?$SolidPrimitive_@V?$allocator@X@std@@@shape_msgs@@@Z
	??$serializedLength@U?$Transform_@V?$allocator@X@std@@@geometry_msgs@@@?$Serializer@U?$Transform_@V?$allocator@X@std@@@geometry_msgs@@@serialization@ros@@SAIAEBU?$Transform_@V?$allocator@X@std@@@geometry_msgs@@@Z
	??$serializedLength@U?$Twist_@V?$allocator@X@std@@@geometry_msgs@@@?$Serializer@U?$Twist_@V?$allocator@X@std@@@geometry_msgs@@@serialization@ros@@SAIAEBU?$Twist_@V?$allocator@X@std@@@geometry_msgs@@@Z
	??$serializedLength@U?$Vector3_@V?$allocator@X@std@@@geometry_msgs@@@?$Serializer@U?$Vector3_@V?$allocator@X@std@@@geometry_msgs@@@serialization@ros@@SAIAEBU?$Vector3_@V?$allocator@X@std@@@geometry_msgs@@@Z
	??$serializedLength@U?$Wrench_@V?$allocator@X@std@@@geometry_msgs@@@?$Serializer@U?$Wrench_@V?$allocator@X@std@@@geometry_msgs@@@serialization@ros@@SAIAEBU?$Wrench_@V?$allocator@X@std@@@geometry_msgs@@@Z
	??$sp_assert_convertible@$$BY0A@E$$BY0A@E@detail@boost@@YAXXZ
	??$swap@PEAE$0A@@std@@YAXAEAPEAE0@Z
	??$swap@PEAVRobotModel@core@moveit@@$0A@@std@@YAXAEAPEAVRobotModel@core@moveit@@0@Z
	??$swap@PEAVRobotState@core@moveit@@$0A@@std@@YAXAEAPEAVRobotState@core@moveit@@0@Z
	??$swap@PEAV_Ref_count_base@std@@$0A@@std@@YAXAEAPEAV_Ref_count_base@0@0@Z
	??$throw_exception@Vbad_function_call@boost@@@boost@@YAXAEBVbad_function_call@0@@Z
	??$type_id@V?$bind_t@VSerializedMessage@ros@@P6A?AV12@AEBU?$DisplayRobotState_@V?$allocator@X@std@@@moveit_msgs@@@ZV?$list1@V?$reference_wrapper@$$CBU?$DisplayRobotState_@V?$allocator@X@std@@@moveit_msgs@@@boost@@@_bi@boost@@@_bi@boost@@@stl_type_index@typeindex@boost@@SA?AV012@XZ
	??$type_id@V?$bind_t@VSerializedMessage@ros@@P6A?AV12@AEBU?$DisplayRobotState_@V?$allocator@X@std@@@moveit_msgs@@@ZV?$list1@V?$reference_wrapper@$$CBU?$DisplayRobotState_@V?$allocator@X@std@@@moveit_msgs@@@boost@@@_bi@boost@@@_bi@boost@@@typeindex@boost@@YA?AVstl_type_index@01@XZ
	??$type_id@V?$bind_t@VSerializedMessage@ros@@P6A?AV12@AEBU?$Marker_@V?$allocator@X@std@@@visualization_msgs@@@ZV?$list1@V?$reference_wrapper@$$CBU?$Marker_@V?$allocator@X@std@@@visualization_msgs@@@boost@@@_bi@boost@@@_bi@boost@@@stl_type_index@typeindex@boost@@SA?AV012@XZ
	??$type_id@V?$bind_t@VSerializedMessage@ros@@P6A?AV12@AEBU?$Marker_@V?$allocator@X@std@@@visualization_msgs@@@ZV?$list1@V?$reference_wrapper@$$CBU?$Marker_@V?$allocator@X@std@@@visualization_msgs@@@boost@@@_bi@boost@@@_bi@boost@@@typeindex@boost@@YA?AVstl_type_index@01@XZ
	??$type_id@V?$bind_t@XP6AXPEAVInteractiveRobot@@AEBV?$shared_ptr@$$CBU?$InteractiveMarkerFeedback_@V?$allocator@X@std@@@visualization_msgs@@@boost@@@ZV?$list2@V?$value@PEAVInteractiveRobot@@@_bi@boost@@U?$arg@$00@3@@_bi@3@@_bi@boost@@@stl_type_index@typeindex@boost@@SA?AV012@XZ
	??$type_id@V?$bind_t@XP6AXPEAVInteractiveRobot@@AEBV?$shared_ptr@$$CBU?$InteractiveMarkerFeedback_@V?$allocator@X@std@@@visualization_msgs@@@boost@@@ZV?$list2@V?$value@PEAVInteractiveRobot@@@_bi@boost@@U?$arg@$00@3@@_bi@3@@_bi@boost@@@typeindex@boost@@YA?AVstl_type_index@01@XZ
	??$type_id@V?$bind_t@XV?$mf1@XVInteractiveRobot@@AEBUTimerEvent@ros@@@_mfi@boost@@V?$list2@V?$value@PEAVInteractiveRobot@@@_bi@boost@@U?$arg@$00@3@@_bi@3@@_bi@boost@@@stl_type_index@typeindex@boost@@SA?AV012@XZ
	??$type_id@V?$bind_t@XV?$mf1@XVInteractiveRobot@@AEBUTimerEvent@ros@@@_mfi@boost@@V?$list2@V?$value@PEAVInteractiveRobot@@@_bi@boost@@U?$arg@$00@3@@_bi@3@@_bi@boost@@@typeindex@boost@@YA?AVstl_type_index@01@XZ
	??$write@UOStream@serialization@ros@@@?$ArraySerializer@I$02X@serialization@ros@@SAXAEAUOStream@12@AEBV?$array@I$02@boost@@@Z
	??$write@UOStream@serialization@ros@@@?$ArraySerializer@N$03X@serialization@ros@@SAXAEAUOStream@12@AEBV?$array@N$03@boost@@@Z
	??$write@UOStream@serialization@ros@@@?$Serializer@C@serialization@ros@@SAXAEAUOStream@12@C@Z
	??$write@UOStream@serialization@ros@@@?$Serializer@E@serialization@ros@@SAXAEAUOStream@12@E@Z
	??$write@UOStream@serialization@ros@@@?$Serializer@H@serialization@ros@@SAXAEAUOStream@12@H@Z
	??$write@UOStream@serialization@ros@@@?$Serializer@I@serialization@ros@@SAXAEAUOStream@12@I@Z
	??$write@UOStream@serialization@ros@@@?$Serializer@M@serialization@ros@@SAXAEAUOStream@12@M@Z
	??$write@UOStream@serialization@ros@@@?$Serializer@N@serialization@ros@@SAXAEAUOStream@12@N@Z
	??$write@UOStream@serialization@ros@@@?$Serializer@V?$basic_string@DU?$char_traits@D@std@@V?$allocator@D@2@@std@@@serialization@ros@@SAXAEAUOStream@12@AEBV?$basic_string@DU?$char_traits@D@std@@V?$allocator@D@2@@std@@@Z
	??$write@UOStream@serialization@ros@@@?$Serializer@VDuration@ros@@@serialization@ros@@SAXAEAUOStream@12@AEBVDuration@2@@Z
	??$write@UOStream@serialization@ros@@@?$Serializer@VTime@ros@@@serialization@ros@@SAXAEAUOStream@12@AEBVTime@2@@Z
	??$write@UOStream@serialization@ros@@@?$VectorSerializer@NV?$allocator@N@std@@X@serialization@ros@@SAXAEAUOStream@12@AEBV?$vector@NV?$allocator@N@std@@@std@@@Z
	??$write@UOStream@serialization@ros@@@?$VectorSerializer@U?$AttachedCollisionObject_@V?$allocator@X@std@@@moveit_msgs@@V?$allocator@U?$AttachedCollisionObject_@V?$allocator@X@std@@@moveit_msgs@@@std@@X@serialization@ros@@SAXAEAUOStream@12@AEBV?$vector@U?$AttachedCollisionObject_@V?$allocator@X@std@@@moveit_msgs@@V?$allocator@U?$AttachedCollisionObject_@V?$allocator@X@std@@@moveit_msgs@@@std@@@std@@@Z
	??$write@UOStream@serialization@ros@@@?$VectorSerializer@U?$ColorRGBA_@V?$allocator@X@std@@@std_msgs@@V?$allocator@U?$ColorRGBA_@V?$allocator@X@std@@@std_msgs@@@std@@X@serialization@ros@@SAXAEAUOStream@12@AEBV?$vector@U?$ColorRGBA_@V?$allocator@X@std@@@std_msgs@@V?$allocator@U?$ColorRGBA_@V?$allocator@X@std@@@std_msgs@@@std@@@std@@@Z
	??$write@UOStream@serialization@ros@@@?$VectorSerializer@U?$JointTrajectoryPoint_@V?$allocator@X@std@@@trajectory_msgs@@V?$allocator@U?$JointTrajectoryPoint_@V?$allocator@X@std@@@trajectory_msgs@@@std@@X@serialization@ros@@SAXAEAUOStream@12@AEBV?$vector@U?$JointTrajectoryPoint_@V?$allocator@X@std@@@trajectory_msgs@@V?$allocator@U?$JointTrajectoryPoint_@V?$allocator@X@std@@@trajectory_msgs@@@std@@@std@@@Z
	??$write@UOStream@serialization@ros@@@?$VectorSerializer@U?$MeshTriangle_@V?$allocator@X@std@@@shape_msgs@@V?$allocator@U?$MeshTriangle_@V?$allocator@X@std@@@shape_msgs@@@std@@X@serialization@ros@@SAXAEAUOStream@12@AEBV?$vector@U?$MeshTriangle_@V?$allocator@X@std@@@shape_msgs@@V?$allocator@U?$MeshTriangle_@V?$allocator@X@std@@@shape_msgs@@@std@@@std@@@Z
	??$write@UOStream@serialization@ros@@@?$VectorSerializer@U?$Mesh_@V?$allocator@X@std@@@shape_msgs@@V?$allocator@U?$Mesh_@V?$allocator@X@std@@@shape_msgs@@@std@@X@serialization@ros@@SAXAEAUOStream@12@AEBV?$vector@U?$Mesh_@V?$allocator@X@std@@@shape_msgs@@V?$allocator@U?$Mesh_@V?$allocator@X@std@@@shape_msgs@@@std@@@std@@@Z
	??$write@UOStream@serialization@ros@@@?$VectorSerializer@U?$ObjectColor_@V?$allocator@X@std@@@moveit_msgs@@V?$allocator@U?$ObjectColor_@V?$allocator@X@std@@@moveit_msgs@@@std@@X@serialization@ros@@SAXAEAUOStream@12@AEBV?$vector@U?$ObjectColor_@V?$allocator@X@std@@@moveit_msgs@@V?$allocator@U?$ObjectColor_@V?$allocator@X@std@@@moveit_msgs@@@std@@@std@@@Z
	??$write@UOStream@serialization@ros@@@?$VectorSerializer@U?$Plane_@V?$allocator@X@std@@@shape_msgs@@V?$allocator@U?$Plane_@V?$allocator@X@std@@@shape_msgs@@@std@@X@serialization@ros@@SAXAEAUOStream@12@AEBV?$vector@U?$Plane_@V?$allocator@X@std@@@shape_msgs@@V?$allocator@U?$Plane_@V?$allocator@X@std@@@shape_msgs@@@std@@@std@@@Z
	??$write@UOStream@serialization@ros@@@?$VectorSerializer@U?$Point_@V?$allocator@X@std@@@geometry_msgs@@V?$allocator@U?$Point_@V?$allocator@X@std@@@geometry_msgs@@@std@@X@serialization@ros@@SAXAEAUOStream@12@AEBV?$vector@U?$Point_@V?$allocator@X@std@@@geometry_msgs@@V?$allocator@U?$Point_@V?$allocator@X@std@@@geometry_msgs@@@std@@@std@@@Z
	??$write@UOStream@serialization@ros@@@?$VectorSerializer@U?$Pose_@V?$allocator@X@std@@@geometry_msgs@@V?$allocator@U?$Pose_@V?$allocator@X@std@@@geometry_msgs@@@std@@X@serialization@ros@@SAXAEAUOStream@12@AEBV?$vector@U?$Pose_@V?$allocator@X@std@@@geometry_msgs@@V?$allocator@U?$Pose_@V?$allocator@X@std@@@geometry_msgs@@@std@@@std@@@Z
	??$write@UOStream@serialization@ros@@@?$VectorSerializer@U?$SolidPrimitive_@V?$allocator@X@std@@@shape_msgs@@V?$allocator@U?$SolidPrimitive_@V?$allocator@X@std@@@shape_msgs@@@std@@X@serialization@ros@@SAXAEAUOStream@12@AEBV?$vector@U?$SolidPrimitive_@V?$allocator@X@std@@@shape_msgs@@V?$allocator@U?$SolidPrimitive_@V?$allocator@X@std@@@shape_msgs@@@std@@@std@@@Z
	??$write@UOStream@serialization@ros@@@?$VectorSerializer@U?$Transform_@V?$allocator@X@std@@@geometry_msgs@@V?$allocator@U?$Transform_@V?$allocator@X@std@@@geometry_msgs@@@std@@X@serialization@ros@@SAXAEAUOStream@12@AEBV?$vector@U?$Transform_@V?$allocator@X@std@@@geometry_msgs@@V?$allocator@U?$Transform_@V?$allocator@X@std@@@geometry_msgs@@@std@@@std@@@Z
	??$write@UOStream@serialization@ros@@@?$VectorSerializer@U?$Twist_@V?$allocator@X@std@@@geometry_msgs@@V?$allocator@U?$Twist_@V?$allocator@X@std@@@geometry_msgs@@@std@@X@serialization@ros@@SAXAEAUOStream@12@AEBV?$vector@U?$Twist_@V?$allocator@X@std@@@geometry_msgs@@V?$allocator@U?$Twist_@V?$allocator@X@std@@@geometry_msgs@@@std@@@std@@@Z
	??$write@UOStream@serialization@ros@@@?$VectorSerializer@U?$Wrench_@V?$allocator@X@std@@@geometry_msgs@@V?$allocator@U?$Wrench_@V?$allocator@X@std@@@geometry_msgs@@@std@@X@serialization@ros@@SAXAEAUOStream@12@AEBV?$vector@U?$Wrench_@V?$allocator@X@std@@@geometry_msgs@@V?$allocator@U?$Wrench_@V?$allocator@X@std@@@geometry_msgs@@@std@@@std@@@Z
	??$write@UOStream@serialization@ros@@@?$VectorSerializer@V?$basic_string@DU?$char_traits@D@std@@V?$allocator@D@2@@std@@V?$allocator@V?$basic_string@DU?$char_traits@D@std@@V?$allocator@D@2@@std@@@2@X@serialization@ros@@SAXAEAUOStream@12@AEBV?$vector@V?$basic_string@DU?$char_traits@D@std@@V?$allocator@D@2@@std@@V?$allocator@V?$basic_string@DU?$char_traits@D@std@@V?$allocator@D@2@@std@@@2@@std@@@Z
	??$write@UOStream@serialization@ros@@U?$AttachedCollisionObject_@V?$allocator@X@std@@@moveit_msgs@@@?$Serializer@U?$AttachedCollisionObject_@V?$allocator@X@std@@@moveit_msgs@@@serialization@ros@@SAXAEAUOStream@12@AEBU?$AttachedCollisionObject_@V?$allocator@X@std@@@moveit_msgs@@@Z
	??$write@UOStream@serialization@ros@@U?$CollisionObject_@V?$allocator@X@std@@@moveit_msgs@@@?$Serializer@U?$CollisionObject_@V?$allocator@X@std@@@moveit_msgs@@@serialization@ros@@SAXAEAUOStream@12@AEBU?$CollisionObject_@V?$allocator@X@std@@@moveit_msgs@@@Z
	??$write@UOStream@serialization@ros@@U?$ColorRGBA_@V?$allocator@X@std@@@std_msgs@@@?$Serializer@U?$ColorRGBA_@V?$allocator@X@std@@@std_msgs@@@serialization@ros@@SAXAEAUOStream@12@AEBU?$ColorRGBA_@V?$allocator@X@std@@@std_msgs@@@Z
	??$write@UOStream@serialization@ros@@U?$DisplayRobotState_@V?$allocator@X@std@@@moveit_msgs@@@?$Serializer@U?$DisplayRobotState_@V?$allocator@X@std@@@moveit_msgs@@@serialization@ros@@SAXAEAUOStream@12@AEBU?$DisplayRobotState_@V?$allocator@X@std@@@moveit_msgs@@@Z
	??$write@UOStream@serialization@ros@@U?$Header_@V?$allocator@X@std@@@std_msgs@@@?$Serializer@U?$Header_@V?$allocator@X@std@@@std_msgs@@@serialization@ros@@SAXAEAUOStream@12@AEBU?$Header_@V?$allocator@X@std@@@std_msgs@@@Z
	??$write@UOStream@serialization@ros@@U?$JointState_@V?$allocator@X@std@@@sensor_msgs@@@?$Serializer@U?$JointState_@V?$allocator@X@std@@@sensor_msgs@@@serialization@ros@@SAXAEAUOStream@12@AEBU?$JointState_@V?$allocator@X@std@@@sensor_msgs@@@Z
	??$write@UOStream@serialization@ros@@U?$JointTrajectoryPoint_@V?$allocator@X@std@@@trajectory_msgs@@@?$Serializer@U?$JointTrajectoryPoint_@V?$allocator@X@std@@@trajectory_msgs@@@serialization@ros@@SAXAEAUOStream@12@AEBU?$JointTrajectoryPoint_@V?$allocator@X@std@@@trajectory_msgs@@@Z
	??$write@UOStream@serialization@ros@@U?$JointTrajectory_@V?$allocator@X@std@@@trajectory_msgs@@@?$Serializer@U?$JointTrajectory_@V?$allocator@X@std@@@trajectory_msgs@@@serialization@ros@@SAXAEAUOStream@12@AEBU?$JointTrajectory_@V?$allocator@X@std@@@trajectory_msgs@@@Z
	??$write@UOStream@serialization@ros@@U?$Marker_@V?$allocator@X@std@@@visualization_msgs@@@?$Serializer@U?$Marker_@V?$allocator@X@std@@@visualization_msgs@@@serialization@ros@@SAXAEAUOStream@12@AEBU?$Marker_@V?$allocator@X@std@@@visualization_msgs@@@Z
	??$write@UOStream@serialization@ros@@U?$MeshTriangle_@V?$allocator@X@std@@@shape_msgs@@@?$Serializer@U?$MeshTriangle_@V?$allocator@X@std@@@shape_msgs@@@serialization@ros@@SAXAEAUOStream@12@AEBU?$MeshTriangle_@V?$allocator@X@std@@@shape_msgs@@@Z
	??$write@UOStream@serialization@ros@@U?$Mesh_@V?$allocator@X@std@@@shape_msgs@@@?$Serializer@U?$Mesh_@V?$allocator@X@std@@@shape_msgs@@@serialization@ros@@SAXAEAUOStream@12@AEBU?$Mesh_@V?$allocator@X@std@@@shape_msgs@@@Z
	??$write@UOStream@serialization@ros@@U?$MultiDOFJointState_@V?$allocator@X@std@@@sensor_msgs@@@?$Serializer@U?$MultiDOFJointState_@V?$allocator@X@std@@@sensor_msgs@@@serialization@ros@@SAXAEAUOStream@12@AEBU?$MultiDOFJointState_@V?$allocator@X@std@@@sensor_msgs@@@Z
	??$write@UOStream@serialization@ros@@U?$ObjectColor_@V?$allocator@X@std@@@moveit_msgs@@@?$Serializer@U?$ObjectColor_@V?$allocator@X@std@@@moveit_msgs@@@serialization@ros@@SAXAEAUOStream@12@AEBU?$ObjectColor_@V?$allocator@X@std@@@moveit_msgs@@@Z
	??$write@UOStream@serialization@ros@@U?$ObjectType_@V?$allocator@X@std@@@object_recognition_msgs@@@?$Serializer@U?$ObjectType_@V?$allocator@X@std@@@object_recognition_msgs@@@serialization@ros@@SAXAEAUOStream@12@AEBU?$ObjectType_@V?$allocator@X@std@@@object_recognition_msgs@@@Z
	??$write@UOStream@serialization@ros@@U?$Plane_@V?$allocator@X@std@@@shape_msgs@@@?$Serializer@U?$Plane_@V?$allocator@X@std@@@shape_msgs@@@serialization@ros@@SAXAEAUOStream@12@AEBU?$Plane_@V?$allocator@X@std@@@shape_msgs@@@Z
	??$write@UOStream@serialization@ros@@U?$Point_@V?$allocator@X@std@@@geometry_msgs@@@?$Serializer@U?$Point_@V?$allocator@X@std@@@geometry_msgs@@@serialization@ros@@SAXAEAUOStream@12@AEBU?$Point_@V?$allocator@X@std@@@geometry_msgs@@@Z
	??$write@UOStream@serialization@ros@@U?$Pose_@V?$allocator@X@std@@@geometry_msgs@@@?$Serializer@U?$Pose_@V?$allocator@X@std@@@geometry_msgs@@@serialization@ros@@SAXAEAUOStream@12@AEBU?$Pose_@V?$allocator@X@std@@@geometry_msgs@@@Z
	??$write@UOStream@serialization@ros@@U?$Quaternion_@V?$allocator@X@std@@@geometry_msgs@@@?$Serializer@U?$Quaternion_@V?$allocator@X@std@@@geometry_msgs@@@serialization@ros@@SAXAEAUOStream@12@AEBU?$Quaternion_@V?$allocator@X@std@@@geometry_msgs@@@Z
	??$write@UOStream@serialization@ros@@U?$RobotState_@V?$allocator@X@std@@@moveit_msgs@@@?$Serializer@U?$RobotState_@V?$allocator@X@std@@@moveit_msgs@@@serialization@ros@@SAXAEAUOStream@12@AEBU?$RobotState_@V?$allocator@X@std@@@moveit_msgs@@@Z
	??$write@UOStream@serialization@ros@@U?$SolidPrimitive_@V?$allocator@X@std@@@shape_msgs@@@?$Serializer@U?$SolidPrimitive_@V?$allocator@X@std@@@shape_msgs@@@serialization@ros@@SAXAEAUOStream@12@AEBU?$SolidPrimitive_@V?$allocator@X@std@@@shape_msgs@@@Z
	??$write@UOStream@serialization@ros@@U?$Transform_@V?$allocator@X@std@@@geometry_msgs@@@?$Serializer@U?$Transform_@V?$allocator@X@std@@@geometry_msgs@@@serialization@ros@@SAXAEAUOStream@12@AEBU?$Transform_@V?$allocator@X@std@@@geometry_msgs@@@Z
	??$write@UOStream@serialization@ros@@U?$Twist_@V?$allocator@X@std@@@geometry_msgs@@@?$Serializer@U?$Twist_@V?$allocator@X@std@@@geometry_msgs@@@serialization@ros@@SAXAEAUOStream@12@AEBU?$Twist_@V?$allocator@X@std@@@geometry_msgs@@@Z
	??$write@UOStream@serialization@ros@@U?$Vector3_@V?$allocator@X@std@@@geometry_msgs@@@?$Serializer@U?$Vector3_@V?$allocator@X@std@@@geometry_msgs@@@serialization@ros@@SAXAEAUOStream@12@AEBU?$Vector3_@V?$allocator@X@std@@@geometry_msgs@@@Z
	??$write@UOStream@serialization@ros@@U?$Wrench_@V?$allocator@X@std@@@geometry_msgs@@@?$Serializer@U?$Wrench_@V?$allocator@X@std@@@geometry_msgs@@@serialization@ros@@SAXAEAUOStream@12@AEBU?$Wrench_@V?$allocator@X@std@@@geometry_msgs@@@Z
	??0<unnamed-type-profile>@TimerEvent@ros@@QEAA@XZ
	??0?$Block@$$CBV?$Block@V?$Matrix@N$03$03$0A@$03$03@Eigen@@$00$03$0A@@Eigen@@$00$00$0A@@Eigen@@QEAA@AEBV?$Block@V?$Matrix@N$03$03$0A@$03$03@Eigen@@$00$03$0A@@1@_J@Z
	??0?$Block@$$CBV?$Matrix@N$02$00$0A@$02$00@Eigen@@$00$00$0A@@Eigen@@QEAA@AEBV?$Matrix@N$02$00$0A@$02$00@1@_J@Z
	??0?$Block@$$CBV?$Matrix@N$03$03$0A@$03$03@Eigen@@$02$00$00@Eigen@@QEAA@AEBV?$Matrix@N$03$03$0A@$03$03@1@_J1@Z
	??0?$Block@$$CBV?$Matrix@N$03$03$0A@$03$03@Eigen@@$02$02$0A@@Eigen@@QEAA@AEBV?$Matrix@N$03$03$0A@$03$03@1@_J1@Z
	??0?$Block@V?$Matrix@N$03$03$0A@$03$03@Eigen@@$00$02$0A@@Eigen@@QEAA@AEAV?$Matrix@N$03$03$0A@$03$03@1@_J1@Z
	??0?$Block@V?$Matrix@N$03$03$0A@$03$03@Eigen@@$00$03$0A@@Eigen@@QEAA@AEAV?$Matrix@N$03$03$0A@$03$03@1@_J@Z
	??0?$Block@V?$Matrix@N$03$03$0A@$03$03@Eigen@@$02$00$00@Eigen@@QEAA@AEAV?$Matrix@N$03$03$0A@$03$03@1@_J1@Z
	??0?$Block@V?$Matrix@N$03$03$0A@$03$03@Eigen@@$02$02$0A@@Eigen@@QEAA@AEAV?$Matrix@N$03$03$0A@$03$03@1@_J1@Z
	??0?$Block@V?$Matrix@N$03$03$0A@$03$03@Eigen@@$02$03$0A@@Eigen@@QEAA@AEAV?$Matrix@N$03$03$0A@$03$03@1@_J1@Z
	??0?$BlockImpl@$$CBV?$Block@V?$Matrix@N$03$03$0A@$03$03@Eigen@@$00$03$0A@@Eigen@@$00$00$0A@UDense@2@@Eigen@@QEAA@AEBV?$Block@V?$Matrix@N$03$03$0A@$03$03@Eigen@@$00$03$0A@@1@_J@Z
	??0?$BlockImpl@$$CBV?$Matrix@N$02$00$0A@$02$00@Eigen@@$00$00$0A@UDense@2@@Eigen@@QEAA@AEBV?$Matrix@N$02$00$0A@$02$00@1@_J@Z
	??0?$BlockImpl@$$CBV?$Matrix@N$03$03$0A@$03$03@Eigen@@$02$00$00UDense@2@@Eigen@@QEAA@AEBV?$Matrix@N$03$03$0A@$03$03@1@_J1@Z
	??0?$BlockImpl@$$CBV?$Matrix@N$03$03$0A@$03$03@Eigen@@$02$02$0A@UDense@2@@Eigen@@QEAA@AEBV?$Matrix@N$03$03$0A@$03$03@1@_J1@Z
	??0?$BlockImpl@V?$Matrix@N$03$03$0A@$03$03@Eigen@@$00$02$0A@UDense@2@@Eigen@@QEAA@AEAV?$Matrix@N$03$03$0A@$03$03@1@_J1@Z
	??0?$BlockImpl@V?$Matrix@N$03$03$0A@$03$03@Eigen@@$00$03$0A@UDense@2@@Eigen@@QEAA@AEAV?$Matrix@N$03$03$0A@$03$03@1@_J@Z
	??0?$BlockImpl@V?$Matrix@N$03$03$0A@$03$03@Eigen@@$02$00$00UDense@2@@Eigen@@QEAA@AEAV?$Matrix@N$03$03$0A@$03$03@1@_J1@Z
	??0?$BlockImpl@V?$Matrix@N$03$03$0A@$03$03@Eigen@@$02$02$0A@UDense@2@@Eigen@@QEAA@AEAV?$Matrix@N$03$03$0A@$03$03@1@_J1@Z
	??0?$BlockImpl@V?$Matrix@N$03$03$0A@$03$03@Eigen@@$02$03$0A@UDense@2@@Eigen@@QEAA@AEAV?$Matrix@N$03$03$0A@$03$03@1@_J1@Z
	??0?$BlockImpl_dense@$$CBV?$Block@V?$Matrix@N$03$03$0A@$03$03@Eigen@@$00$03$0A@@Eigen@@$00$00$0A@$00@internal@Eigen@@QEAA@AEBV?$Block@V?$Matrix@N$03$03$0A@$03$03@Eigen@@$00$03$0A@@2@_J@Z
	??0?$BlockImpl_dense@$$CBV?$Matrix@N$02$00$0A@$02$00@Eigen@@$00$00$0A@$00@internal@Eigen@@QEAA@AEBV?$Matrix@N$02$00$0A@$02$00@2@_J@Z
	??0?$BlockImpl_dense@$$CBV?$Matrix@N$03$03$0A@$03$03@Eigen@@$02$00$00$00@internal@Eigen@@QEAA@AEBV?$Matrix@N$03$03$0A@$03$03@2@_J1@Z
	??0?$BlockImpl_dense@$$CBV?$Matrix@N$03$03$0A@$03$03@Eigen@@$02$02$0A@$00@internal@Eigen@@QEAA@AEBV?$Matrix@N$03$03$0A@$03$03@2@_J1@Z
	??0?$BlockImpl_dense@V?$Matrix@N$03$03$0A@$03$03@Eigen@@$00$02$0A@$00@internal@Eigen@@QEAA@AEAV?$Matrix@N$03$03$0A@$03$03@2@_J1@Z
	??0?$BlockImpl_dense@V?$Matrix@N$03$03$0A@$03$03@Eigen@@$00$03$0A@$00@internal@Eigen@@QEAA@AEAV?$Matrix@N$03$03$0A@$03$03@2@_J@Z
	??0?$BlockImpl_dense@V?$Matrix@N$03$03$0A@$03$03@Eigen@@$02$00$00$00@internal@Eigen@@QEAA@AEAV?$Matrix@N$03$03$0A@$03$03@2@_J1@Z
	??0?$BlockImpl_dense@V?$Matrix@N$03$03$0A@$03$03@Eigen@@$02$02$0A@$00@internal@Eigen@@QEAA@AEAV?$Matrix@N$03$03$0A@$03$03@2@_J1@Z
	??0?$BlockImpl_dense@V?$Matrix@N$03$03$0A@$03$03@Eigen@@$02$03$0A@$00@internal@Eigen@@QEAA@AEAV?$Matrix@N$03$03$0A@$03$03@2@_J1@Z
	??0?$ColorRGBA_@V?$allocator@X@std@@@std_msgs@@QEAA@XZ
	??0?$CwiseBinaryOp@U?$scalar_product_op@NN@internal@Eigen@@$$CBV?$Transpose@$$CBV?$Block@$$CBV?$Matrix@N$02$00$0A@$02$00@Eigen@@$00$00$0A@@Eigen@@@3@$$CBV?$Block@$$CBV?$Block@V?$Matrix@N$03$03$0A@$03$03@Eigen@@$00$03$0A@@Eigen@@$00$00$0A@@3@@Eigen@@QEAA@AEBV?$Transpose@$$CBV?$Block@$$CBV?$Matrix@N$02$00$0A@$02$00@Eigen@@$00$00$0A@@Eigen@@@1@AEBV?$Block@$$CBV?$Block@V?$Matrix@N$03$03$0A@$03$03@Eigen@@$00$03$0A@@Eigen@@$00$00$0A@@1@AEBU?$scalar_product_op@NN@internal@1@@Z
	??0?$CwiseBinaryOpImpl@U?$scalar_product_op@NN@internal@Eigen@@$$CBV?$Transpose@$$CBV?$Block@$$CBV?$Matrix@N$02$00$0A@$02$00@Eigen@@$00$00$0A@@Eigen@@@3@$$CBV?$Block@$$CBV?$Block@V?$Matrix@N$03$03$0A@$03$03@Eigen@@$00$03$0A@@Eigen@@$00$00$0A@@3@UDense@3@@Eigen@@QEAA@XZ
	??0?$CwiseNullaryOp@U?$scalar_constant_op@N@internal@Eigen@@V?$Matrix@N$00$02$00$00$02@3@@Eigen@@QEAA@_J0AEBU?$scalar_constant_op@N@internal@1@@Z
	??0?$CwiseNullaryOp@U?$scalar_constant_op@N@internal@Eigen@@V?$Matrix@N$02$00$0A@$02$00@3@@Eigen@@QEAA@_J0AEBU?$scalar_constant_op@N@internal@1@@Z
	??0?$CwiseNullaryOp@U?$scalar_identity_op@N@internal@Eigen@@V?$Matrix@N$02$02$0A@$02$02@3@@Eigen@@QEAA@_J0AEBU?$scalar_identity_op@N@internal@1@@Z
	??0?$DenseBase@V?$Block@$$CBV?$Block@V?$Matrix@N$03$03$0A@$03$03@Eigen@@$00$03$0A@@Eigen@@$00$00$0A@@Eigen@@@Eigen@@IEAA@XZ
	??0?$DenseBase@V?$Block@$$CBV?$Matrix@N$02$00$0A@$02$00@Eigen@@$00$00$0A@@Eigen@@@Eigen@@IEAA@XZ
	??0?$DenseBase@V?$Block@$$CBV?$Matrix@N$03$03$0A@$03$03@Eigen@@$02$00$00@Eigen@@@Eigen@@IEAA@XZ
	??0?$DenseBase@V?$Block@$$CBV?$Matrix@N$03$03$0A@$03$03@Eigen@@$02$02$0A@@Eigen@@@Eigen@@IEAA@XZ
	??0?$DenseBase@V?$Block@V?$Matrix@N$03$03$0A@$03$03@Eigen@@$00$02$0A@@Eigen@@@Eigen@@IEAA@XZ
	??0?$DenseBase@V?$Block@V?$Matrix@N$03$03$0A@$03$03@Eigen@@$00$03$0A@@Eigen@@@Eigen@@IEAA@XZ
	??0?$DenseBase@V?$Block@V?$Matrix@N$03$03$0A@$03$03@Eigen@@$02$00$00@Eigen@@@Eigen@@IEAA@XZ
	??0?$DenseBase@V?$Block@V?$Matrix@N$03$03$0A@$03$03@Eigen@@$02$02$0A@@Eigen@@@Eigen@@IEAA@XZ
	??0?$DenseBase@V?$Block@V?$Matrix@N$03$03$0A@$03$03@Eigen@@$02$03$0A@@Eigen@@@Eigen@@IEAA@XZ
	??0?$DenseBase@V?$CwiseBinaryOp@U?$scalar_product_op@NN@internal@Eigen@@$$CBV?$Transpose@$$CBV?$Block@$$CBV?$Matrix@N$02$00$0A@$02$00@Eigen@@$00$00$0A@@Eigen@@@3@$$CBV?$Block@$$CBV?$Block@V?$Matrix@N$03$03$0A@$03$03@Eigen@@$00$03$0A@@Eigen@@$00$00$0A@@3@@Eigen@@@Eigen@@IEAA@XZ
	??0?$DenseBase@V?$CwiseNullaryOp@U?$scalar_constant_op@N@internal@Eigen@@V?$Matrix@N$00$02$00$00$02@3@@Eigen@@@Eigen@@IEAA@XZ
	??0?$DenseBase@V?$CwiseNullaryOp@U?$scalar_constant_op@N@internal@Eigen@@V?$Matrix@N$02$00$0A@$02$00@3@@Eigen@@@Eigen@@IEAA@XZ
	??0?$DenseBase@V?$CwiseNullaryOp@U?$scalar_identity_op@N@internal@Eigen@@V?$Matrix@N$02$02$0A@$02$02@3@@Eigen@@@Eigen@@IEAA@XZ
	??0?$DenseBase@V?$Diagonal@$$CBV?$Block@$$CBV?$Matrix@N$03$03$0A@$03$03@Eigen@@$02$02$0A@@Eigen@@$0A@@Eigen@@@Eigen@@IEAA@XZ
	??0?$DenseBase@V?$Matrix@N$02$00$0A@$02$00@Eigen@@@Eigen@@IEAA@XZ
	??0?$DenseBase@V?$Matrix@N$02$02$0A@$02$02@Eigen@@@Eigen@@IEAA@XZ
	??0?$DenseBase@V?$Matrix@N$02$03$0A@$02$03@Eigen@@@Eigen@@IEAA@XZ
	??0?$DenseBase@V?$Matrix@N$03$00$0A@$03$00@Eigen@@@Eigen@@IEAA@XZ
	??0?$DenseBase@V?$Matrix@N$03$03$0A@$03$03@Eigen@@@Eigen@@IEAA@XZ
	??0?$DenseBase@V?$Product@V?$Matrix@N$02$00$0A@$02$00@Eigen@@V?$Block@V?$Matrix@N$03$03$0A@$03$03@Eigen@@$00$03$0A@@2@$00@Eigen@@@Eigen@@IEAA@XZ
	??0?$DenseBase@V?$Product@V?$Matrix@N$02$00$0A@$02$00@Eigen@@V?$Block@V?$Matrix@N$03$03$0A@$03$03@Eigen@@$00$03$0A@@2@$0A@@Eigen@@@Eigen@@IEAA@XZ
	??0?$DenseBase@V?$Transpose@$$CBV?$Block@$$CBV?$Matrix@N$02$00$0A@$02$00@Eigen@@$00$00$0A@@Eigen@@@Eigen@@@Eigen@@IEAA@XZ
	??0?$DenseStorage@N$02$02$00$0A@@Eigen@@QEAA@XZ
	??0?$DenseStorage@N$03$03$00$0A@@Eigen@@QEAA@XZ
	??0?$DenseStorage@N$08$02$02$0A@@Eigen@@QEAA@AEBV01@@Z
	??0?$DenseStorage@N$08$02$02$0A@@Eigen@@QEAA@XZ
	??0?$DenseStorage@N$0BA@$03$03$0A@@Eigen@@QEAA@XZ
	??0?$DenseStorage@N$0M@$02$03$0A@@Eigen@@QEAA@XZ
	??0?$Diagonal@$$CBV?$Block@$$CBV?$Matrix@N$03$03$0A@$03$03@Eigen@@$02$02$0A@@Eigen@@$0A@@Eigen@@QEAA@AEBV?$Block@$$CBV?$Matrix@N$03$03$0A@$03$03@Eigen@@$02$02$0A@@1@_J@Z
	??0?$DisplayRobotState_@V?$allocator@X@std@@@moveit_msgs@@QEAA@XZ
	??0?$Header_@V?$allocator@X@std@@@std_msgs@@QEAA@$$QEAU01@@Z
	??0?$Header_@V?$allocator@X@std@@@std_msgs@@QEAA@AEBU01@@Z
	??0?$Header_@V?$allocator@X@std@@@std_msgs@@QEAA@XZ
	??0?$InteractiveMarkerControl_@V?$allocator@X@std@@@visualization_msgs@@QEAA@$$QEAU01@@Z
	??0?$InteractiveMarkerControl_@V?$allocator@X@std@@@visualization_msgs@@QEAA@AEBU01@@Z
	??0?$InteractiveMarkerControl_@V?$allocator@X@std@@@visualization_msgs@@QEAA@XZ
	??0?$InteractiveMarker_@V?$allocator@X@std@@@visualization_msgs@@QEAA@XZ
	??0?$JointState_@V?$allocator@X@std@@@sensor_msgs@@QEAA@XZ
	??0?$MapBase@V?$Block@$$CBV?$Block@V?$Matrix@N$03$03$0A@$03$03@Eigen@@$00$03$0A@@Eigen@@$00$00$0A@@Eigen@@$0A@@Eigen@@QEAA@PEBN_J1@Z
	??0?$MapBase@V?$Block@$$CBV?$Matrix@N$02$00$0A@$02$00@Eigen@@$00$00$0A@@Eigen@@$0A@@Eigen@@QEAA@PEBN_J1@Z
	??0?$MapBase@V?$Block@$$CBV?$Matrix@N$03$03$0A@$03$03@Eigen@@$02$00$00@Eigen@@$0A@@Eigen@@QEAA@PEBN@Z
	??0?$MapBase@V?$Block@$$CBV?$Matrix@N$03$03$0A@$03$03@Eigen@@$02$02$0A@@Eigen@@$0A@@Eigen@@QEAA@PEBN@Z
	??0?$MapBase@V?$Block@V?$Matrix@N$03$03$0A@$03$03@Eigen@@$00$02$0A@@Eigen@@$00@Eigen@@QEAA@PEAN@Z
	??0?$MapBase@V?$Block@V?$Matrix@N$03$03$0A@$03$03@Eigen@@$00$02$0A@@Eigen@@$0A@@Eigen@@QEAA@PEAN@Z
	??0?$MapBase@V?$Block@V?$Matrix@N$03$03$0A@$03$03@Eigen@@$00$03$0A@@Eigen@@$00@Eigen@@QEAA@PEAN_J1@Z
	??0?$MapBase@V?$Block@V?$Matrix@N$03$03$0A@$03$03@Eigen@@$00$03$0A@@Eigen@@$0A@@Eigen@@QEAA@PEAN_J1@Z
	??0?$MapBase@V?$Block@V?$Matrix@N$03$03$0A@$03$03@Eigen@@$02$00$00@Eigen@@$00@Eigen@@QEAA@PEAN@Z
	??0?$MapBase@V?$Block@V?$Matrix@N$03$03$0A@$03$03@Eigen@@$02$00$00@Eigen@@$0A@@Eigen@@QEAA@PEAN@Z
	??0?$MapBase@V?$Block@V?$Matrix@N$03$03$0A@$03$03@Eigen@@$02$02$0A@@Eigen@@$00@Eigen@@QEAA@PEAN@Z
	??0?$MapBase@V?$Block@V?$Matrix@N$03$03$0A@$03$03@Eigen@@$02$02$0A@@Eigen@@$0A@@Eigen@@QEAA@PEAN@Z
	??0?$MapBase@V?$Block@V?$Matrix@N$03$03$0A@$03$03@Eigen@@$02$03$0A@@Eigen@@$00@Eigen@@QEAA@PEAN@Z
	??0?$MapBase@V?$Block@V?$Matrix@N$03$03$0A@$03$03@Eigen@@$02$03$0A@@Eigen@@$0A@@Eigen@@QEAA@PEAN@Z
	??0?$Marker_@V?$allocator@X@std@@@visualization_msgs@@QEAA@$$QEAU01@@Z
	??0?$Marker_@V?$allocator@X@std@@@visualization_msgs@@QEAA@AEBU01@@Z
	??0?$Marker_@V?$allocator@X@std@@@visualization_msgs@@QEAA@XZ
	??0?$Matrix@N$02$00$0A@$02$00@Eigen@@QEAA@XZ
	??0?$Matrix@N$02$02$0A@$02$02@Eigen@@QEAA@$$QEAV01@@Z
	??0?$Matrix@N$02$02$0A@$02$02@Eigen@@QEAA@XZ
	??0?$Matrix@N$03$00$0A@$03$00@Eigen@@QEAA@AEBN000@Z
	??0?$Matrix@N$03$00$0A@$03$00@Eigen@@QEAA@XZ
	??0?$Matrix@N$03$03$0A@$03$03@Eigen@@QEAA@XZ
	??0?$MatrixBase@V?$Block@$$CBV?$Block@V?$Matrix@N$03$03$0A@$03$03@Eigen@@$00$03$0A@@Eigen@@$00$00$0A@@Eigen@@@Eigen@@IEAA@XZ
	??0?$MatrixBase@V?$Block@$$CBV?$Matrix@N$02$00$0A@$02$00@Eigen@@$00$00$0A@@Eigen@@@Eigen@@IEAA@XZ
	??0?$MatrixBase@V?$Block@$$CBV?$Matrix@N$03$03$0A@$03$03@Eigen@@$02$00$00@Eigen@@@Eigen@@IEAA@XZ
	??0?$MatrixBase@V?$Block@$$CBV?$Matrix@N$03$03$0A@$03$03@Eigen@@$02$02$0A@@Eigen@@@Eigen@@IEAA@XZ
	??0?$MatrixBase@V?$Block@V?$Matrix@N$03$03$0A@$03$03@Eigen@@$00$02$0A@@Eigen@@@Eigen@@IEAA@XZ
	??0?$MatrixBase@V?$Block@V?$Matrix@N$03$03$0A@$03$03@Eigen@@$00$03$0A@@Eigen@@@Eigen@@IEAA@XZ
	??0?$MatrixBase@V?$Block@V?$Matrix@N$03$03$0A@$03$03@Eigen@@$02$00$00@Eigen@@@Eigen@@IEAA@XZ
	??0?$MatrixBase@V?$Block@V?$Matrix@N$03$03$0A@$03$03@Eigen@@$02$02$0A@@Eigen@@@Eigen@@IEAA@XZ
	??0?$MatrixBase@V?$Block@V?$Matrix@N$03$03$0A@$03$03@Eigen@@$02$03$0A@@Eigen@@@Eigen@@IEAA@XZ
	??0?$MatrixBase@V?$CwiseBinaryOp@U?$scalar_product_op@NN@internal@Eigen@@$$CBV?$Transpose@$$CBV?$Block@$$CBV?$Matrix@N$02$00$0A@$02$00@Eigen@@$00$00$0A@@Eigen@@@3@$$CBV?$Block@$$CBV?$Block@V?$Matrix@N$03$03$0A@$03$03@Eigen@@$00$03$0A@@Eigen@@$00$00$0A@@3@@Eigen@@@Eigen@@IEAA@XZ
	??0?$MatrixBase@V?$CwiseNullaryOp@U?$scalar_constant_op@N@internal@Eigen@@V?$Matrix@N$00$02$00$00$02@3@@Eigen@@@Eigen@@IEAA@XZ
	??0?$MatrixBase@V?$CwiseNullaryOp@U?$scalar_constant_op@N@internal@Eigen@@V?$Matrix@N$02$00$0A@$02$00@3@@Eigen@@@Eigen@@IEAA@XZ
	??0?$MatrixBase@V?$CwiseNullaryOp@U?$scalar_identity_op@N@internal@Eigen@@V?$Matrix@N$02$02$0A@$02$02@3@@Eigen@@@Eigen@@IEAA@XZ
	??0?$MatrixBase@V?$Diagonal@$$CBV?$Block@$$CBV?$Matrix@N$03$03$0A@$03$03@Eigen@@$02$02$0A@@Eigen@@$0A@@Eigen@@@Eigen@@IEAA@XZ
	??0?$MatrixBase@V?$Matrix@N$02$00$0A@$02$00@Eigen@@@Eigen@@IEAA@XZ
	??0?$MatrixBase@V?$Matrix@N$02$02$0A@$02$02@Eigen@@@Eigen@@IEAA@XZ
	??0?$MatrixBase@V?$Matrix@N$02$03$0A@$02$03@Eigen@@@Eigen@@IEAA@XZ
	??0?$MatrixBase@V?$Matrix@N$03$00$0A@$03$00@Eigen@@@Eigen@@IEAA@XZ
	??0?$MatrixBase@V?$Matrix@N$03$03$0A@$03$03@Eigen@@@Eigen@@IEAA@XZ
	??0?$MatrixBase@V?$Product@V?$Matrix@N$02$00$0A@$02$00@Eigen@@V?$Block@V?$Matrix@N$03$03$0A@$03$03@Eigen@@$00$03$0A@@2@$00@Eigen@@@Eigen@@IEAA@XZ
	??0?$MatrixBase@V?$Product@V?$Matrix@N$02$00$0A@$02$00@Eigen@@V?$Block@V?$Matrix@N$03$03$0A@$03$03@Eigen@@$00$03$0A@@2@$0A@@Eigen@@@Eigen@@IEAA@XZ
	??0?$MatrixBase@V?$Transpose@$$CBV?$Block@$$CBV?$Matrix@N$02$00$0A@$02$00@Eigen@@$00$00$0A@@Eigen@@@Eigen@@@Eigen@@IEAA@XZ
	??0?$MultiDOFJointState_@V?$allocator@X@std@@@sensor_msgs@@QEAA@XZ
	??0?$PlainObjectBase@V?$Matrix@N$02$00$0A@$02$00@Eigen@@@Eigen@@IEAA@XZ
	??0?$PlainObjectBase@V?$Matrix@N$02$02$0A@$02$02@Eigen@@@Eigen@@IEAA@$$QEAV01@@Z
	??0?$PlainObjectBase@V?$Matrix@N$02$02$0A@$02$02@Eigen@@@Eigen@@IEAA@XZ
	??0?$PlainObjectBase@V?$Matrix@N$02$03$0A@$02$03@Eigen@@@Eigen@@IEAA@XZ
	??0?$PlainObjectBase@V?$Matrix@N$03$00$0A@$03$00@Eigen@@@Eigen@@IEAA@XZ
	??0?$PlainObjectBase@V?$Matrix@N$03$03$0A@$03$03@Eigen@@@Eigen@@IEAA@XZ
	??0?$Point_@V?$allocator@X@std@@@geometry_msgs@@QEAA@XZ
	??0?$Pose_@V?$allocator@X@std@@@geometry_msgs@@QEAA@XZ
	??0?$Product@V?$Matrix@N$02$00$0A@$02$00@Eigen@@V?$Block@V?$Matrix@N$03$03$0A@$03$03@Eigen@@$00$03$0A@@2@$00@Eigen@@QEAA@AEBV?$Matrix@N$02$00$0A@$02$00@1@AEBV?$Block@V?$Matrix@N$03$03$0A@$03$03@Eigen@@$00$03$0A@@1@@Z
	??0?$Product@V?$Matrix@N$02$00$0A@$02$00@Eigen@@V?$Block@V?$Matrix@N$03$03$0A@$03$03@Eigen@@$00$03$0A@@2@$0A@@Eigen@@QEAA@AEBV?$Matrix@N$02$00$0A@$02$00@1@AEBV?$Block@V?$Matrix@N$03$03$0A@$03$03@Eigen@@$00$03$0A@@1@@Z
	??0?$ProductImpl@V?$Matrix@N$02$00$0A@$02$00@Eigen@@V?$Block@V?$Matrix@N$03$03$0A@$03$03@Eigen@@$00$03$0A@@2@$00UDense@2@@Eigen@@QEAA@XZ
	??0?$ProductImpl@V?$Matrix@N$02$00$0A@$02$00@Eigen@@V?$Block@V?$Matrix@N$03$03$0A@$03$03@Eigen@@$00$03$0A@@2@$0A@UDense@2@@Eigen@@QEAA@XZ
	??0?$Quaternion@N$0A@@Eigen@@QEAA@AEBN000@Z
	??0?$Quaternion_@V?$allocator@X@std@@@geometry_msgs@@QEAA@XZ
	??0?$RobotState_@V?$allocator@X@std@@@moveit_msgs@@QEAA@XZ
	??0?$Transform@N$02$00$0A@@Eigen@@QEAA@AEBV01@@Z
	??0?$Transform@N$02$00$0A@@Eigen@@QEAA@AEBV?$Translation@N$02@1@@Z
	??0?$Transform@N$02$00$0A@@Eigen@@QEAA@XZ
	??0?$Translation@N$02@Eigen@@QEAA@AEBN00@Z
	??0?$Transpose@$$CBV?$Block@$$CBV?$Matrix@N$02$00$0A@$02$00@Eigen@@$00$00$0A@@Eigen@@@Eigen@@QEAA@AEBV?$Block@$$CBV?$Matrix@N$02$00$0A@$02$00@Eigen@@$00$00$0A@@1@@Z
	??0?$TransposeImpl@$$CBV?$Block@$$CBV?$Matrix@N$02$00$0A@$02$00@Eigen@@$00$00$0A@@Eigen@@UDense@2@@Eigen@@QEAA@XZ
	??0?$Vector3_@V?$allocator@X@std@@@geometry_msgs@@QEAA@XZ
	??0?$_Atomic_integral@H$03@std@@QEAA@H@Z
	??0?$_Atomic_integral_facade@H@std@@QEAA@H@Z
	??0?$_Atomic_storage@H$03@std@@QEAA@H@Z
	??0?$_Ptr_base@$$CBVRobotModel@core@moveit@@@std@@IEAA@XZ
	??0?$_Ptr_base@VRobotModel@core@moveit@@@std@@IEAA@XZ
	??0?$_Ptr_base@VRobotState@core@moveit@@@std@@IEAA@XZ
	??0?$_Ref_count@VRobotState@core@moveit@@@std@@QEAA@PEAVRobotState@core@moveit@@@Z
	??0?$_String_val@U?$_Simple_types@D@std@@@std@@QEAA@XZ
	??0?$_Temporary_owner@VRobotState@core@moveit@@@std@@QEAA@QEAVRobotState@core@moveit@@@Z
	??0?$_Tree@V?$_Tmap_traits@V?$basic_string@DU?$char_traits@D@std@@V?$allocator@D@2@@std@@V12@U?$less@V?$basic_string@DU?$char_traits@D@std@@V?$allocator@D@2@@std@@@2@V?$allocator@U?$pair@$$CBV?$basic_string@DU?$char_traits@D@std@@V?$allocator@D@2@@std@@V12@@std@@@2@$0A@@std@@@std@@QEAA@AEBU?$less@V?$basic_string@DU?$char_traits@D@std@@V?$allocator@D@2@@std@@@1@@Z
	??0?$_Tree_val@U?$_Tree_simple_types@U?$pair@$$CBV?$basic_string@DU?$char_traits@D@std@@V?$allocator@D@2@@std@@V12@@std@@@std@@@std@@QEAA@XZ
	??0?$_Uninitialized_backout_al@V?$allocator@U?$ColorRGBA_@V?$allocator@X@std@@@std_msgs@@@std@@@std@@QEAA@PEAU?$ColorRGBA_@V?$allocator@X@std@@@std_msgs@@AEAV?$allocator@U?$ColorRGBA_@V?$allocator@X@std@@@std_msgs@@@1@@Z
	??0?$_Uninitialized_backout_al@V?$allocator@U?$InteractiveMarkerControl_@V?$allocator@X@std@@@visualization_msgs@@@std@@@std@@QEAA@PEAU?$InteractiveMarkerControl_@V?$allocator@X@std@@@visualization_msgs@@AEAV?$allocator@U?$InteractiveMarkerControl_@V?$allocator@X@std@@@visualization_msgs@@@1@@Z
	??0?$_Uninitialized_backout_al@V?$allocator@U?$Marker_@V?$allocator@X@std@@@visualization_msgs@@@std@@@std@@QEAA@PEAU?$Marker_@V?$allocator@X@std@@@visualization_msgs@@AEAV?$allocator@U?$Marker_@V?$allocator@X@std@@@visualization_msgs@@@1@@Z
	??0?$_Uninitialized_backout_al@V?$allocator@U?$Point_@V?$allocator@X@std@@@geometry_msgs@@@std@@@std@@QEAA@PEAU?$Point_@V?$allocator@X@std@@@geometry_msgs@@AEAV?$allocator@U?$Point_@V?$allocator@X@std@@@geometry_msgs@@@1@@Z
	??0?$_Vector_const_iterator@V?$_Vector_val@U?$_Simple_types@U?$AttachedCollisionObject_@V?$allocator@X@std@@@moveit_msgs@@@std@@@std@@@std@@QEAA@PEAU?$AttachedCollisionObject_@V?$allocator@X@std@@@moveit_msgs@@PEBU_Container_base0@1@@Z
	??0?$_Vector_const_iterator@V?$_Vector_val@U?$_Simple_types@U?$ColorRGBA_@V?$allocator@X@std@@@std_msgs@@@std@@@std@@@std@@QEAA@PEAU?$ColorRGBA_@V?$allocator@X@std@@@std_msgs@@PEBU_Container_base0@1@@Z
	??0?$_Vector_const_iterator@V?$_Vector_val@U?$_Simple_types@U?$JointTrajectoryPoint_@V?$allocator@X@std@@@trajectory_msgs@@@std@@@std@@@std@@QEAA@PEAU?$JointTrajectoryPoint_@V?$allocator@X@std@@@trajectory_msgs@@PEBU_Container_base0@1@@Z
	??0?$_Vector_const_iterator@V?$_Vector_val@U?$_Simple_types@U?$MeshTriangle_@V?$allocator@X@std@@@shape_msgs@@@std@@@std@@@std@@QEAA@PEAU?$MeshTriangle_@V?$allocator@X@std@@@shape_msgs@@PEBU_Container_base0@1@@Z
	??0?$_Vector_const_iterator@V?$_Vector_val@U?$_Simple_types@U?$Mesh_@V?$allocator@X@std@@@shape_msgs@@@std@@@std@@@std@@QEAA@PEAU?$Mesh_@V?$allocator@X@std@@@shape_msgs@@PEBU_Container_base0@1@@Z
	??0?$_Vector_const_iterator@V?$_Vector_val@U?$_Simple_types@U?$ObjectColor_@V?$allocator@X@std@@@moveit_msgs@@@std@@@std@@@std@@QEAA@PEAU?$ObjectColor_@V?$allocator@X@std@@@moveit_msgs@@PEBU_Container_base0@1@@Z
	??0?$_Vector_const_iterator@V?$_Vector_val@U?$_Simple_types@U?$Plane_@V?$allocator@X@std@@@shape_msgs@@@std@@@std@@@std@@QEAA@PEAU?$Plane_@V?$allocator@X@std@@@shape_msgs@@PEBU_Container_base0@1@@Z
	??0?$_Vector_const_iterator@V?$_Vector_val@U?$_Simple_types@U?$Point_@V?$allocator@X@std@@@geometry_msgs@@@std@@@std@@@std@@QEAA@PEAU?$Point_@V?$allocator@X@std@@@geometry_msgs@@PEBU_Container_base0@1@@Z
	??0?$_Vector_const_iterator@V?$_Vector_val@U?$_Simple_types@U?$Pose_@V?$allocator@X@std@@@geometry_msgs@@@std@@@std@@@std@@QEAA@PEAU?$Pose_@V?$allocator@X@std@@@geometry_msgs@@PEBU_Container_base0@1@@Z
	??0?$_Vector_const_iterator@V?$_Vector_val@U?$_Simple_types@U?$SolidPrimitive_@V?$allocator@X@std@@@shape_msgs@@@std@@@std@@@std@@QEAA@PEAU?$SolidPrimitive_@V?$allocator@X@std@@@shape_msgs@@PEBU_Container_base0@1@@Z
	??0?$_Vector_const_iterator@V?$_Vector_val@U?$_Simple_types@U?$Transform_@V?$allocator@X@std@@@geometry_msgs@@@std@@@std@@@std@@QEAA@PEAU?$Transform_@V?$allocator@X@std@@@geometry_msgs@@PEBU_Container_base0@1@@Z
	??0?$_Vector_const_iterator@V?$_Vector_val@U?$_Simple_types@U?$Twist_@V?$allocator@X@std@@@geometry_msgs@@@std@@@std@@@std@@QEAA@PEAU?$Twist_@V?$allocator@X@std@@@geometry_msgs@@PEBU_Container_base0@1@@Z
	??0?$_Vector_const_iterator@V?$_Vector_val@U?$_Simple_types@U?$Wrench_@V?$allocator@X@std@@@geometry_msgs@@@std@@@std@@@std@@QEAA@PEAU?$Wrench_@V?$allocator@X@std@@@geometry_msgs@@PEBU_Container_base0@1@@Z
	??0?$_Vector_const_iterator@V?$_Vector_val@U?$_Simple_types@V?$basic_string@DU?$char_traits@D@std@@V?$allocator@D@2@@std@@@std@@@std@@@std@@QEAA@PEAV?$basic_string@DU?$char_traits@D@std@@V?$allocator@D@2@@1@PEBU_Container_base0@1@@Z
	??0?$_Vector_val@U?$_Simple_types@N@std@@@std@@QEAA@XZ
	??0?$_Vector_val@U?$_Simple_types@U?$AttachedCollisionObject_@V?$allocator@X@std@@@moveit_msgs@@@std@@@std@@QEAA@XZ
	??0?$_Vector_val@U?$_Simple_types@U?$ColorRGBA_@V?$allocator@X@std@@@std_msgs@@@std@@@std@@QEAA@PEAU?$ColorRGBA_@V?$allocator@X@std@@@std_msgs@@00@Z
	??0?$_Vector_val@U?$_Simple_types@U?$ColorRGBA_@V?$allocator@X@std@@@std_msgs@@@std@@@std@@QEAA@XZ
	??0?$_Vector_val@U?$_Simple_types@U?$InteractiveMarkerControl_@V?$allocator@X@std@@@visualization_msgs@@@std@@@std@@QEAA@XZ
	??0?$_Vector_val@U?$_Simple_types@U?$Marker_@V?$allocator@X@std@@@visualization_msgs@@@std@@@std@@QEAA@PEAU?$Marker_@V?$allocator@X@std@@@visualization_msgs@@00@Z
	??0?$_Vector_val@U?$_Simple_types@U?$Marker_@V?$allocator@X@std@@@visualization_msgs@@@std@@@std@@QEAA@XZ
	??0?$_Vector_val@U?$_Simple_types@U?$MenuEntry_@V?$allocator@X@std@@@visualization_msgs@@@std@@@std@@QEAA@XZ
	??0?$_Vector_val@U?$_Simple_types@U?$ObjectColor_@V?$allocator@X@std@@@moveit_msgs@@@std@@@std@@QEAA@XZ
	??0?$_Vector_val@U?$_Simple_types@U?$Point_@V?$allocator@X@std@@@geometry_msgs@@@std@@@std@@QEAA@PEAU?$Point_@V?$allocator@X@std@@@geometry_msgs@@00@Z
	??0?$_Vector_val@U?$_Simple_types@U?$Point_@V?$allocator@X@std@@@geometry_msgs@@@std@@@std@@QEAA@XZ
	??0?$_Vector_val@U?$_Simple_types@U?$Transform_@V?$allocator@X@std@@@geometry_msgs@@@std@@@std@@QEAA@XZ
	??0?$_Vector_val@U?$_Simple_types@U?$Twist_@V?$allocator@X@std@@@geometry_msgs@@@std@@@std@@QEAA@XZ
	??0?$_Vector_val@U?$_Simple_types@U?$Wrench_@V?$allocator@X@std@@@geometry_msgs@@@std@@@std@@QEAA@XZ
	??0?$_Vector_val@U?$_Simple_types@V?$basic_string@DU?$char_traits@D@std@@V?$allocator@D@2@@std@@@std@@@std@@QEAA@XZ
	??0?$allocator@D@std@@QEAA@XZ
	??0?$allocator@N@std@@QEAA@XZ
	??0?$allocator@U?$AttachedCollisionObject_@V?$allocator@X@std@@@moveit_msgs@@@std@@QEAA@XZ
	??0?$allocator@U?$ColorRGBA_@V?$allocator@X@std@@@std_msgs@@@std@@QEAA@XZ
	??0?$allocator@U?$InteractiveMarkerControl_@V?$allocator@X@std@@@visualization_msgs@@@std@@QEAA@XZ
	??0?$allocator@U?$Marker_@V?$allocator@X@std@@@visualization_msgs@@@std@@QEAA@XZ
	??0?$allocator@U?$MenuEntry_@V?$allocator@X@std@@@visualization_msgs@@@std@@QEAA@XZ
	??0?$allocator@U?$ObjectColor_@V?$allocator@X@std@@@moveit_msgs@@@std@@QEAA@XZ
	??0?$allocator@U?$Point_@V?$allocator@X@std@@@geometry_msgs@@@std@@QEAA@XZ
	??0?$allocator@U?$Transform_@V?$allocator@X@std@@@geometry_msgs@@@std@@QEAA@XZ
	??0?$allocator@U?$Twist_@V?$allocator@X@std@@@geometry_msgs@@@std@@QEAA@XZ
	??0?$allocator@U?$Wrench_@V?$allocator@X@std@@@geometry_msgs@@@std@@QEAA@XZ
	??0?$allocator@U?$_Tree_node@U?$pair@$$CBV?$basic_string@DU?$char_traits@D@std@@V?$allocator@D@2@@std@@V12@@std@@PEAX@std@@@std@@QEAA@XZ
	??0?$allocator@V?$basic_string@DU?$char_traits@D@std@@V?$allocator@D@2@@std@@@std@@QEAA@XZ
	??0?$arg@$00@boost@@QEAA@XZ
	??0?$atomic@H@std@@QEAA@H@Z
	??0?$basic_string@DU?$char_traits@D@std@@V?$allocator@D@2@@std@@QEAA@$$QEAV01@@Z
	??0?$basic_string@DU?$char_traits@D@std@@V?$allocator@D@2@@std@@QEAA@AEBV01@@Z
	??0?$basic_string@DU?$char_traits@D@std@@V?$allocator@D@2@@std@@QEAA@AEBV?$allocator@D@1@@Z
	??0?$basic_string@DU?$char_traits@D@std@@V?$allocator@D@2@@std@@QEAA@QEBD@Z
	??0?$basic_string@DU?$char_traits@D@std@@V?$allocator@D@2@@std@@QEAA@U_String_constructor_concat_tag@1@AEAV01@1@Z
	??0?$basic_string@DU?$char_traits@D@std@@V?$allocator@D@2@@std@@QEAA@XZ
	??0?$basic_string@DU?$char_traits@D@std@@V?$allocator@D@2@@std@@QEAA@_KD@Z
	??0?$basic_stringbuf@DU?$char_traits@D@std@@V?$allocator@D@2@@std@@QEAA@H@Z
	??0?$basic_stringstream@DU?$char_traits@D@std@@V?$allocator@D@2@@std@@QEAA@XZ
	??0?$binary_evaluator@V?$CwiseBinaryOp@U?$scalar_product_op@NN@internal@Eigen@@$$CBV?$Transpose@$$CBV?$Block@$$CBV?$Matrix@N$02$00$0A@$02$00@Eigen@@$00$00$0A@@Eigen@@@3@$$CBV?$Block@$$CBV?$Block@V?$Matrix@N$03$03$0A@$03$03@Eigen@@$00$03$0A@@Eigen@@$00$00$0A@@3@@Eigen@@UIndexBased@internal@2@U342@NN@internal@Eigen@@QEAA@AEBV?$CwiseBinaryOp@U?$scalar_product_op@NN@internal@Eigen@@$$CBV?$Transpose@$$CBV?$Block@$$CBV?$Matrix@N$02$00$0A@$02$00@Eigen@@$00$00$0A@@Eigen@@@3@$$CBV?$Block@$$CBV?$Block@V?$Matrix@N$03$03$0A@$03$03@Eigen@@$00$03$0A@@Eigen@@$00$00$0A@@3@@2@@Z
	??0?$bind_t@VSerializedMessage@ros@@P6A?AV12@AEBU?$DisplayRobotState_@V?$allocator@X@std@@@moveit_msgs@@@ZV?$list1@V?$reference_wrapper@$$CBU?$DisplayRobotState_@V?$allocator@X@std@@@moveit_msgs@@@boost@@@_bi@boost@@@_bi@boost@@QEAA@P6A?AVSerializedMessage@ros@@AEBU?$DisplayRobotState_@V?$allocator@X@std@@@moveit_msgs@@@ZAEBV?$list1@V?$reference_wrapper@$$CBU?$DisplayRobotState_@V?$allocator@X@std@@@moveit_msgs@@@boost@@@12@@Z
	??0?$bind_t@VSerializedMessage@ros@@P6A?AV12@AEBU?$Marker_@V?$allocator@X@std@@@visualization_msgs@@@ZV?$list1@V?$reference_wrapper@$$CBU?$Marker_@V?$allocator@X@std@@@visualization_msgs@@@boost@@@_bi@boost@@@_bi@boost@@QEAA@P6A?AVSerializedMessage@ros@@AEBU?$Marker_@V?$allocator@X@std@@@visualization_msgs@@@ZAEBV?$list1@V?$reference_wrapper@$$CBU?$Marker_@V?$allocator@X@std@@@visualization_msgs@@@boost@@@12@@Z
	??0?$bind_t@XP6AXPEAVInteractiveRobot@@AEBV?$shared_ptr@$$CBU?$InteractiveMarkerFeedback_@V?$allocator@X@std@@@visualization_msgs@@@boost@@@ZV?$list2@V?$value@PEAVInteractiveRobot@@@_bi@boost@@U?$arg@$00@3@@_bi@3@@_bi@boost@@QEAA@P6AXPEAVInteractiveRobot@@AEBV?$shared_ptr@$$CBU?$InteractiveMarkerFeedback_@V?$allocator@X@std@@@visualization_msgs@@@2@@ZAEBV?$list2@V?$value@PEAVInteractiveRobot@@@_bi@boost@@U?$arg@$00@3@@12@@Z
	??0?$bind_t@XV?$mf1@XVInteractiveRobot@@AEBUTimerEvent@ros@@@_mfi@boost@@V?$list2@V?$value@PEAVInteractiveRobot@@@_bi@boost@@U?$arg@$00@3@@_bi@3@@_bi@boost@@QEAA@V?$mf1@XVInteractiveRobot@@AEBUTimerEvent@ros@@@_mfi@2@AEBV?$list2@V?$value@PEAVInteractiveRobot@@@_bi@boost@@U?$arg@$00@3@@12@@Z
	??0?$block_evaluator@$$CBV?$Block@V?$Matrix@N$03$03$0A@$03$03@Eigen@@$00$03$0A@@Eigen@@$00$00$0A@$00@internal@Eigen@@QEAA@AEBV?$Block@$$CBV?$Block@V?$Matrix@N$03$03$0A@$03$03@Eigen@@$00$03$0A@@Eigen@@$00$00$0A@@2@@Z
	??0?$block_evaluator@$$CBV?$Matrix@N$02$00$0A@$02$00@Eigen@@$00$00$0A@$00@internal@Eigen@@QEAA@AEBV?$Block@$$CBV?$Matrix@N$02$00$0A@$02$00@Eigen@@$00$00$0A@@2@@Z
	??0?$block_evaluator@$$CBV?$Matrix@N$03$03$0A@$03$03@Eigen@@$02$00$00$00@internal@Eigen@@QEAA@AEBV?$Block@$$CBV?$Matrix@N$03$03$0A@$03$03@Eigen@@$02$00$00@2@@Z
	??0?$block_evaluator@$$CBV?$Matrix@N$03$03$0A@$03$03@Eigen@@$02$02$0A@$00@internal@Eigen@@QEAA@AEBV?$Block@$$CBV?$Matrix@N$03$03$0A@$03$03@Eigen@@$02$02$0A@@2@@Z
	??0?$block_evaluator@V?$Matrix@N$03$03$0A@$03$03@Eigen@@$00$02$0A@$00@internal@Eigen@@QEAA@AEBV?$Block@V?$Matrix@N$03$03$0A@$03$03@Eigen@@$00$02$0A@@2@@Z
	??0?$block_evaluator@V?$Matrix@N$03$03$0A@$03$03@Eigen@@$00$03$0A@$00@internal@Eigen@@QEAA@AEBV?$Block@V?$Matrix@N$03$03$0A@$03$03@Eigen@@$00$03$0A@@2@@Z
	??0?$block_evaluator@V?$Matrix@N$03$03$0A@$03$03@Eigen@@$02$00$00$00@internal@Eigen@@QEAA@AEBV?$Block@V?$Matrix@N$03$03$0A@$03$03@Eigen@@$02$00$00@2@@Z
	??0?$block_evaluator@V?$Matrix@N$03$03$0A@$03$03@Eigen@@$02$02$0A@$00@internal@Eigen@@QEAA@AEBV?$Block@V?$Matrix@N$03$03$0A@$03$03@Eigen@@$02$02$0A@@2@@Z
	??0?$block_evaluator@V?$Matrix@N$03$03$0A@$03$03@Eigen@@$02$03$0A@$00@internal@Eigen@@QEAA@AEBV?$Block@V?$Matrix@N$03$03$0A@$03$03@Eigen@@$02$03$0A@@2@@Z
	??0?$clone_impl@U?$error_info_injector@Vbad_function_call@boost@@@exception_detail@boost@@@exception_detail@boost@@AEAA@AEBV012@Uclone_tag@012@@Z
	??0?$clone_impl@U?$error_info_injector@Vbad_function_call@boost@@@exception_detail@boost@@@exception_detail@boost@@QEAA@AEBU?$error_info_injector@Vbad_function_call@boost@@@12@@Z
	??0?$clone_impl@U?$error_info_injector@Vbad_function_call@boost@@@exception_detail@boost@@@exception_detail@boost@@QEAA@AEBV012@@Z
	??0?$dense_product_base@V?$Matrix@N$02$00$0A@$02$00@Eigen@@V?$Block@V?$Matrix@N$03$03$0A@$03$03@Eigen@@$00$03$0A@@2@$00$03@internal@Eigen@@QEAA@XZ
	??0?$dense_product_base@V?$Matrix@N$02$00$0A@$02$00@Eigen@@V?$Block@V?$Matrix@N$03$03$0A@$03$03@Eigen@@$00$03$0A@@2@$0A@$03@internal@Eigen@@QEAA@XZ
	??0?$error_info_injector@Vbad_function_call@boost@@@exception_detail@boost@@QEAA@AEBU012@@Z
	??0?$error_info_injector@Vbad_function_call@boost@@@exception_detail@boost@@QEAA@AEBVbad_function_call@2@@Z
	??0?$evaluator@$$CBV?$Block@$$CBV?$Block@V?$Matrix@N$03$03$0A@$03$03@Eigen@@$00$03$0A@@Eigen@@$00$00$0A@@Eigen@@@internal@Eigen@@QEAA@AEBV?$Block@$$CBV?$Block@V?$Matrix@N$03$03$0A@$03$03@Eigen@@$00$03$0A@@Eigen@@$00$00$0A@@2@@Z
	??0?$evaluator@$$CBV?$Block@$$CBV?$Matrix@N$02$00$0A@$02$00@Eigen@@$00$00$0A@@Eigen@@@internal@Eigen@@QEAA@AEBV?$Block@$$CBV?$Matrix@N$02$00$0A@$02$00@Eigen@@$00$00$0A@@2@@Z
	??0?$evaluator@$$CBV?$Block@$$CBV?$Matrix@N$03$03$0A@$03$03@Eigen@@$02$02$0A@@Eigen@@@internal@Eigen@@QEAA@AEBV?$Block@$$CBV?$Matrix@N$03$03$0A@$03$03@Eigen@@$02$02$0A@@2@@Z
	??0?$evaluator@$$CBV?$Transpose@$$CBV?$Block@$$CBV?$Matrix@N$02$00$0A@$02$00@Eigen@@$00$00$0A@@Eigen@@@Eigen@@@internal@Eigen@@QEAA@AEBV?$Transpose@$$CBV?$Block@$$CBV?$Matrix@N$02$00$0A@$02$00@Eigen@@$00$00$0A@@Eigen@@@2@@Z
	??0?$evaluator@V?$Block@$$CBV?$Block@V?$Matrix@N$03$03$0A@$03$03@Eigen@@$00$03$0A@@Eigen@@$00$00$0A@@Eigen@@@internal@Eigen@@QEAA@AEBV?$Block@$$CBV?$Block@V?$Matrix@N$03$03$0A@$03$03@Eigen@@$00$03$0A@@Eigen@@$00$00$0A@@2@@Z
	??0?$evaluator@V?$Block@$$CBV?$Matrix@N$02$00$0A@$02$00@Eigen@@$00$00$0A@@Eigen@@@internal@Eigen@@QEAA@AEBV?$Block@$$CBV?$Matrix@N$02$00$0A@$02$00@Eigen@@$00$00$0A@@2@@Z
	??0?$evaluator@V?$Block@$$CBV?$Matrix@N$03$03$0A@$03$03@Eigen@@$02$00$00@Eigen@@@internal@Eigen@@QEAA@AEBV?$Block@$$CBV?$Matrix@N$03$03$0A@$03$03@Eigen@@$02$00$00@2@@Z
	??0?$evaluator@V?$Block@$$CBV?$Matrix@N$03$03$0A@$03$03@Eigen@@$02$02$0A@@Eigen@@@internal@Eigen@@QEAA@AEBV?$Block@$$CBV?$Matrix@N$03$03$0A@$03$03@Eigen@@$02$02$0A@@2@@Z
	??0?$evaluator@V?$Block@V?$Matrix@N$03$03$0A@$03$03@Eigen@@$00$02$0A@@Eigen@@@internal@Eigen@@QEAA@AEBV?$Block@V?$Matrix@N$03$03$0A@$03$03@Eigen@@$00$02$0A@@2@@Z
	??0?$evaluator@V?$Block@V?$Matrix@N$03$03$0A@$03$03@Eigen@@$00$03$0A@@Eigen@@@internal@Eigen@@QEAA@AEBV?$Block@V?$Matrix@N$03$03$0A@$03$03@Eigen@@$00$03$0A@@2@@Z
	??0?$evaluator@V?$Block@V?$Matrix@N$03$03$0A@$03$03@Eigen@@$02$00$00@Eigen@@@internal@Eigen@@QEAA@AEBV?$Block@V?$Matrix@N$03$03$0A@$03$03@Eigen@@$02$00$00@2@@Z
	??0?$evaluator@V?$Block@V?$Matrix@N$03$03$0A@$03$03@Eigen@@$02$02$0A@@Eigen@@@internal@Eigen@@QEAA@AEBV?$Block@V?$Matrix@N$03$03$0A@$03$03@Eigen@@$02$02$0A@@2@@Z
	??0?$evaluator@V?$Block@V?$Matrix@N$03$03$0A@$03$03@Eigen@@$02$03$0A@@Eigen@@@internal@Eigen@@QEAA@AEBV?$Block@V?$Matrix@N$03$03$0A@$03$03@Eigen@@$02$03$0A@@2@@Z
	??0?$evaluator@V?$CwiseBinaryOp@U?$scalar_product_op@NN@internal@Eigen@@$$CBV?$Transpose@$$CBV?$Block@$$CBV?$Matrix@N$02$00$0A@$02$00@Eigen@@$00$00$0A@@Eigen@@@3@$$CBV?$Block@$$CBV?$Block@V?$Matrix@N$03$03$0A@$03$03@Eigen@@$00$03$0A@@Eigen@@$00$00$0A@@3@@Eigen@@@internal@Eigen@@QEAA@AEBV?$CwiseBinaryOp@U?$scalar_product_op@NN@internal@Eigen@@$$CBV?$Transpose@$$CBV?$Block@$$CBV?$Matrix@N$02$00$0A@$02$00@Eigen@@$00$00$0A@@Eigen@@@3@$$CBV?$Block@$$CBV?$Block@V?$Matrix@N$03$03$0A@$03$03@Eigen@@$00$03$0A@@Eigen@@$00$00$0A@@3@@2@@Z
	??0?$evaluator@V?$CwiseNullaryOp@U?$scalar_constant_op@N@internal@Eigen@@V?$Matrix@N$00$02$00$00$02@3@@Eigen@@@internal@Eigen@@QEAA@AEBV?$CwiseNullaryOp@U?$scalar_constant_op@N@internal@Eigen@@V?$Matrix@N$00$02$00$00$02@3@@2@@Z
	??0?$evaluator@V?$CwiseNullaryOp@U?$scalar_constant_op@N@internal@Eigen@@V?$Matrix@N$02$00$0A@$02$00@3@@Eigen@@@internal@Eigen@@QEAA@AEBV?$CwiseNullaryOp@U?$scalar_constant_op@N@internal@Eigen@@V?$Matrix@N$02$00$0A@$02$00@3@@2@@Z
	??0?$evaluator@V?$CwiseNullaryOp@U?$scalar_identity_op@N@internal@Eigen@@V?$Matrix@N$02$02$0A@$02$02@3@@Eigen@@@internal@Eigen@@QEAA@AEBV?$CwiseNullaryOp@U?$scalar_identity_op@N@internal@Eigen@@V?$Matrix@N$02$02$0A@$02$02@3@@2@@Z
	??0?$evaluator@V?$Diagonal@$$CBV?$Block@$$CBV?$Matrix@N$03$03$0A@$03$03@Eigen@@$02$02$0A@@Eigen@@$0A@@Eigen@@@internal@Eigen@@QEAA@AEBV?$Diagonal@$$CBV?$Block@$$CBV?$Matrix@N$03$03$0A@$03$03@Eigen@@$02$02$0A@@Eigen@@$0A@@2@@Z
	??0?$evaluator@V?$Matrix@N$02$00$0A@$02$00@Eigen@@@internal@Eigen@@QEAA@AEBV?$Matrix@N$02$00$0A@$02$00@2@@Z
	??0?$evaluator@V?$Matrix@N$02$02$0A@$02$02@Eigen@@@internal@Eigen@@QEAA@AEBV?$Matrix@N$02$02$0A@$02$02@2@@Z
	??0?$evaluator@V?$Matrix@N$02$03$0A@$02$03@Eigen@@@internal@Eigen@@QEAA@AEBV?$Matrix@N$02$03$0A@$02$03@2@@Z
	??0?$evaluator@V?$Matrix@N$03$03$0A@$03$03@Eigen@@@internal@Eigen@@QEAA@AEBV?$Matrix@N$03$03$0A@$03$03@2@@Z
	??0?$evaluator@V?$PlainObjectBase@V?$Matrix@N$02$00$0A@$02$00@Eigen@@@Eigen@@@internal@Eigen@@QEAA@AEBV?$PlainObjectBase@V?$Matrix@N$02$00$0A@$02$00@Eigen@@@2@@Z
	??0?$evaluator@V?$PlainObjectBase@V?$Matrix@N$02$02$0A@$02$02@Eigen@@@Eigen@@@internal@Eigen@@QEAA@AEBV?$PlainObjectBase@V?$Matrix@N$02$02$0A@$02$02@Eigen@@@2@@Z
	??0?$evaluator@V?$PlainObjectBase@V?$Matrix@N$02$03$0A@$02$03@Eigen@@@Eigen@@@internal@Eigen@@QEAA@AEBV?$PlainObjectBase@V?$Matrix@N$02$03$0A@$02$03@Eigen@@@2@@Z
	??0?$evaluator@V?$PlainObjectBase@V?$Matrix@N$03$03$0A@$03$03@Eigen@@@Eigen@@@internal@Eigen@@QEAA@AEBV?$PlainObjectBase@V?$Matrix@N$03$03$0A@$03$03@Eigen@@@2@@Z
	??0?$evaluator@V?$Product@V?$Matrix@N$02$00$0A@$02$00@Eigen@@V?$Block@V?$Matrix@N$03$03$0A@$03$03@Eigen@@$00$03$0A@@2@$00@Eigen@@@internal@Eigen@@QEAA@AEBV?$Product@V?$Matrix@N$02$00$0A@$02$00@Eigen@@V?$Block@V?$Matrix@N$03$03$0A@$03$03@Eigen@@$00$03$0A@@2@$00@2@@Z
	??0?$evaluator@V?$Transpose@$$CBV?$Block@$$CBV?$Matrix@N$02$00$0A@$02$00@Eigen@@$00$00$0A@@Eigen@@@Eigen@@@internal@Eigen@@QEAA@AEBV?$Transpose@$$CBV?$Block@$$CBV?$Matrix@N$02$00$0A@$02$00@Eigen@@$00$00$0A@@Eigen@@@2@@Z
	??0?$evaluator_base@V?$Block@$$CBV?$Block@V?$Matrix@N$03$03$0A@$03$03@Eigen@@$00$03$0A@@Eigen@@$00$00$0A@@Eigen@@@internal@Eigen@@QEAA@XZ
	??0?$evaluator_base@V?$Block@$$CBV?$Matrix@N$02$00$0A@$02$00@Eigen@@$00$00$0A@@Eigen@@@internal@Eigen@@QEAA@XZ
	??0?$evaluator_base@V?$Block@$$CBV?$Matrix@N$03$03$0A@$03$03@Eigen@@$02$00$00@Eigen@@@internal@Eigen@@QEAA@XZ
	??0?$evaluator_base@V?$Block@$$CBV?$Matrix@N$03$03$0A@$03$03@Eigen@@$02$02$0A@@Eigen@@@internal@Eigen@@QEAA@XZ
	??0?$evaluator_base@V?$Block@V?$Matrix@N$03$03$0A@$03$03@Eigen@@$00$02$0A@@Eigen@@@internal@Eigen@@QEAA@XZ
	??0?$evaluator_base@V?$Block@V?$Matrix@N$03$03$0A@$03$03@Eigen@@$00$03$0A@@Eigen@@@internal@Eigen@@QEAA@XZ
	??0?$evaluator_base@V?$Block@V?$Matrix@N$03$03$0A@$03$03@Eigen@@$02$00$00@Eigen@@@internal@Eigen@@QEAA@XZ
	??0?$evaluator_base@V?$Block@V?$Matrix@N$03$03$0A@$03$03@Eigen@@$02$02$0A@@Eigen@@@internal@Eigen@@QEAA@XZ
	??0?$evaluator_base@V?$Block@V?$Matrix@N$03$03$0A@$03$03@Eigen@@$02$03$0A@@Eigen@@@internal@Eigen@@QEAA@XZ
	??0?$evaluator_base@V?$CwiseBinaryOp@U?$scalar_product_op@NN@internal@Eigen@@$$CBV?$Transpose@$$CBV?$Block@$$CBV?$Matrix@N$02$00$0A@$02$00@Eigen@@$00$00$0A@@Eigen@@@3@$$CBV?$Block@$$CBV?$Block@V?$Matrix@N$03$03$0A@$03$03@Eigen@@$00$03$0A@@Eigen@@$00$00$0A@@3@@Eigen@@@internal@Eigen@@QEAA@XZ
	??0?$evaluator_base@V?$CwiseNullaryOp@U?$scalar_constant_op@N@internal@Eigen@@V?$Matrix@N$00$02$00$00$02@3@@Eigen@@@internal@Eigen@@QEAA@XZ
	??0?$evaluator_base@V?$CwiseNullaryOp@U?$scalar_constant_op@N@internal@Eigen@@V?$Matrix@N$02$00$0A@$02$00@3@@Eigen@@@internal@Eigen@@QEAA@XZ
	??0?$evaluator_base@V?$CwiseNullaryOp@U?$scalar_identity_op@N@internal@Eigen@@V?$Matrix@N$02$02$0A@$02$02@3@@Eigen@@@internal@Eigen@@QEAA@XZ
	??0?$evaluator_base@V?$Diagonal@$$CBV?$Block@$$CBV?$Matrix@N$03$03$0A@$03$03@Eigen@@$02$02$0A@@Eigen@@$0A@@Eigen@@@internal@Eigen@@QEAA@XZ
	??0?$evaluator_base@V?$Matrix@N$02$00$0A@$02$00@Eigen@@@internal@Eigen@@QEAA@XZ
	??0?$evaluator_base@V?$Matrix@N$02$02$0A@$02$02@Eigen@@@internal@Eigen@@QEAA@XZ
	??0?$evaluator_base@V?$Matrix@N$02$03$0A@$02$03@Eigen@@@internal@Eigen@@QEAA@XZ
	??0?$evaluator_base@V?$Matrix@N$03$03$0A@$03$03@Eigen@@@internal@Eigen@@QEAA@XZ
	??0?$evaluator_base@V?$Product@V?$Matrix@N$02$00$0A@$02$00@Eigen@@V?$Block@V?$Matrix@N$03$03$0A@$03$03@Eigen@@$00$03$0A@@2@$00@Eigen@@@internal@Eigen@@QEAA@XZ
	??0?$evaluator_base@V?$Transpose@$$CBV?$Block@$$CBV?$Matrix@N$02$00$0A@$02$00@Eigen@@$00$00$0A@@Eigen@@@Eigen@@@internal@Eigen@@QEAA@XZ
	??0?$fpos@U_Mbstatet@@@std@@QEAA@_J@Z
	??0?$function1@XAEAVInteractiveRobot@@@boost@@QEAA@XZ
	??0?$function1@XAEBV?$shared_ptr@$$CBU?$InteractiveMarkerFeedback_@V?$allocator@X@std@@@visualization_msgs@@@boost@@@boost@@QEAA@AEBV01@@Z
	??0?$function1@XAEBVSingleSubscriberPublisher@ros@@@boost@@QEAA@AEBV01@@Z
	??0?$function1@XAEBVSingleSubscriberPublisher@ros@@@boost@@QEAA@XZ
	??0?$function3@_NPEAVRobotState@core@moveit@@PEBVJointModelGroup@23@PEBN@boost@@QEAA@XZ
	??0?$function@$$A6AXAEAVInteractiveRobot@@@Z@boost@@QEAA@PEAUclear_type@01@@Z
	??0?$function@$$A6AXAEBV?$shared_ptr@$$CBU?$InteractiveMarkerFeedback_@V?$allocator@X@std@@@visualization_msgs@@@boost@@@Z@boost@@QEAA@AEBV01@@Z
	??0?$function@$$A6AXAEBVSingleSubscriberPublisher@ros@@@Z@boost@@QEAA@AEBV01@@Z
	??0?$function@$$A6AXAEBVSingleSubscriberPublisher@ros@@@Z@boost@@QEAA@XZ
	??0?$function@$$A6A_NPEAVRobotState@core@moveit@@PEBVJointModelGroup@23@PEBN@Z@boost@@QEAA@XZ
	??0?$generic_dense_assignment_kernel@U?$evaluator@V?$Block@V?$Matrix@N$03$03$0A@$03$03@Eigen@@$00$02$0A@@Eigen@@@internal@Eigen@@U?$evaluator@V?$CwiseNullaryOp@U?$scalar_constant_op@N@internal@Eigen@@V?$Matrix@N$00$02$00$00$02@3@@Eigen@@@23@U?$assign_op@NN@23@$0A@@internal@Eigen@@QEAA@AEAU?$evaluator@V?$Block@V?$Matrix@N$03$03$0A@$03$03@Eigen@@$00$02$0A@@Eigen@@@12@AEBU?$evaluator@V?$CwiseNullaryOp@U?$scalar_constant_op@N@internal@Eigen@@V?$Matrix@N$00$02$00$00$02@3@@Eigen@@@12@AEBU?$assign_op@NN@12@AEAV?$Block@V?$Matrix@N$03$03$0A@$03$03@Eigen@@$00$02$0A@@2@@Z
	??0?$generic_dense_assignment_kernel@U?$evaluator@V?$Block@V?$Matrix@N$03$03$0A@$03$03@Eigen@@$02$00$00@Eigen@@@internal@Eigen@@U?$evaluator@V?$CwiseNullaryOp@U?$scalar_constant_op@N@internal@Eigen@@V?$Matrix@N$02$00$0A@$02$00@3@@Eigen@@@23@U?$assign_op@NN@23@$0A@@internal@Eigen@@QEAA@AEAU?$evaluator@V?$Block@V?$Matrix@N$03$03$0A@$03$03@Eigen@@$02$00$00@Eigen@@@12@AEBU?$evaluator@V?$CwiseNullaryOp@U?$scalar_constant_op@N@internal@Eigen@@V?$Matrix@N$02$00$0A@$02$00@3@@Eigen@@@12@AEBU?$assign_op@NN@12@AEAV?$Block@V?$Matrix@N$03$03$0A@$03$03@Eigen@@$02$00$00@2@@Z
	??0?$generic_dense_assignment_kernel@U?$evaluator@V?$Block@V?$Matrix@N$03$03$0A@$03$03@Eigen@@$02$00$00@Eigen@@@internal@Eigen@@U?$evaluator@V?$Matrix@N$02$00$0A@$02$00@Eigen@@@23@U?$add_assign_op@NN@23@$0A@@internal@Eigen@@QEAA@AEAU?$evaluator@V?$Block@V?$Matrix@N$03$03$0A@$03$03@Eigen@@$02$00$00@Eigen@@@12@AEBU?$evaluator@V?$Matrix@N$02$00$0A@$02$00@Eigen@@@12@AEBU?$add_assign_op@NN@12@AEAV?$Block@V?$Matrix@N$03$03$0A@$03$03@Eigen@@$02$00$00@2@@Z
	??0?$generic_dense_assignment_kernel@U?$evaluator@V?$Block@V?$Matrix@N$03$03$0A@$03$03@Eigen@@$02$00$00@Eigen@@@internal@Eigen@@U?$evaluator@V?$Matrix@N$02$00$0A@$02$00@Eigen@@@23@U?$assign_op@NN@23@$0A@@internal@Eigen@@QEAA@AEAU?$evaluator@V?$Block@V?$Matrix@N$03$03$0A@$03$03@Eigen@@$02$00$00@Eigen@@@12@AEBU?$evaluator@V?$Matrix@N$02$00$0A@$02$00@Eigen@@@12@AEBU?$assign_op@NN@12@AEAV?$Block@V?$Matrix@N$03$03$0A@$03$03@Eigen@@$02$00$00@2@@Z
	??0?$generic_dense_assignment_kernel@U?$evaluator@V?$Block@V?$Matrix@N$03$03$0A@$03$03@Eigen@@$02$02$0A@@Eigen@@@internal@Eigen@@U?$evaluator@V?$CwiseNullaryOp@U?$scalar_identity_op@N@internal@Eigen@@V?$Matrix@N$02$02$0A@$02$02@3@@Eigen@@@23@U?$assign_op@NN@23@$0A@@internal@Eigen@@QEAA@AEAU?$evaluator@V?$Block@V?$Matrix@N$03$03$0A@$03$03@Eigen@@$02$02$0A@@Eigen@@@12@AEBU?$evaluator@V?$CwiseNullaryOp@U?$scalar_identity_op@N@internal@Eigen@@V?$Matrix@N$02$02$0A@$02$02@3@@Eigen@@@12@AEBU?$assign_op@NN@12@AEAV?$Block@V?$Matrix@N$03$03$0A@$03$03@Eigen@@$02$02$0A@@2@@Z
	??0?$generic_dense_assignment_kernel@U?$evaluator@V?$Block@V?$Matrix@N$03$03$0A@$03$03@Eigen@@$02$02$0A@@Eigen@@@internal@Eigen@@U?$evaluator@V?$Matrix@N$02$02$0A@$02$02@Eigen@@@23@U?$assign_op@NN@23@$0A@@internal@Eigen@@QEAA@AEAU?$evaluator@V?$Block@V?$Matrix@N$03$03$0A@$03$03@Eigen@@$02$02$0A@@Eigen@@@12@AEBU?$evaluator@V?$Matrix@N$02$02$0A@$02$02@Eigen@@@12@AEBU?$assign_op@NN@12@AEAV?$Block@V?$Matrix@N$03$03$0A@$03$03@Eigen@@$02$02$0A@@2@@Z
	??0?$generic_dense_assignment_kernel@U?$evaluator@V?$Block@V?$Matrix@N$03$03$0A@$03$03@Eigen@@$02$03$0A@@Eigen@@@internal@Eigen@@U?$evaluator@V?$Matrix@N$02$03$0A@$02$03@Eigen@@@23@U?$add_assign_op@NN@23@$0A@@internal@Eigen@@QEAA@AEAU?$evaluator@V?$Block@V?$Matrix@N$03$03$0A@$03$03@Eigen@@$02$03$0A@@Eigen@@@12@AEBU?$evaluator@V?$Matrix@N$02$03$0A@$02$03@Eigen@@@12@AEBU?$add_assign_op@NN@12@AEAV?$Block@V?$Matrix@N$03$03$0A@$03$03@Eigen@@$02$03$0A@@2@@Z
	??0?$generic_dense_assignment_kernel@U?$evaluator@V?$Matrix@N$02$00$0A@$02$00@Eigen@@@internal@Eigen@@U?$evaluator@V?$Block@$$CBV?$Matrix@N$03$03$0A@$03$03@Eigen@@$02$00$00@Eigen@@@23@U?$assign_op@NN@23@$0A@@internal@Eigen@@QEAA@AEAU?$evaluator@V?$Matrix@N$02$00$0A@$02$00@Eigen@@@12@AEBU?$evaluator@V?$Block@$$CBV?$Matrix@N$03$03$0A@$03$03@Eigen@@$02$00$00@Eigen@@@12@AEBU?$assign_op@NN@12@AEAV?$Matrix@N$02$00$0A@$02$00@2@@Z
	??0?$generic_dense_assignment_kernel@U?$evaluator@V?$Matrix@N$02$02$0A@$02$02@Eigen@@@internal@Eigen@@U123@U?$assign_op@NN@23@$0A@@internal@Eigen@@QEAA@AEAU?$evaluator@V?$Matrix@N$02$02$0A@$02$02@Eigen@@@12@AEBU312@AEBU?$assign_op@NN@12@AEAV?$Matrix@N$02$02$0A@$02$02@2@@Z
	??0?$generic_dense_assignment_kernel@U?$evaluator@V?$Matrix@N$02$03$0A@$02$03@Eigen@@@internal@Eigen@@U?$evaluator@V?$Product@V?$Matrix@N$02$00$0A@$02$00@Eigen@@V?$Block@V?$Matrix@N$03$03$0A@$03$03@Eigen@@$00$03$0A@@2@$00@Eigen@@@23@U?$assign_op@NN@23@$0A@@internal@Eigen@@QEAA@AEAU?$evaluator@V?$Matrix@N$02$03$0A@$02$03@Eigen@@@12@AEBU?$evaluator@V?$Product@V?$Matrix@N$02$00$0A@$02$00@Eigen@@V?$Block@V?$Matrix@N$03$03$0A@$03$03@Eigen@@$00$03$0A@@2@$00@Eigen@@@12@AEBU?$assign_op@NN@12@AEAV?$Matrix@N$02$03$0A@$02$03@2@@Z
	??0?$generic_dense_assignment_kernel@U?$evaluator@V?$Matrix@N$03$03$0A@$03$03@Eigen@@@internal@Eigen@@U123@U?$assign_op@NN@23@$0A@@internal@Eigen@@QEAA@AEAU?$evaluator@V?$Matrix@N$03$03$0A@$03$03@Eigen@@@12@AEBU312@AEBU?$assign_op@NN@12@AEAV?$Matrix@N$03$03$0A@$03$03@2@@Z
	??0?$list1@V?$reference_wrapper@$$CBU?$DisplayRobotState_@V?$allocator@X@std@@@moveit_msgs@@@boost@@@_bi@boost@@QEAA@V?$reference_wrapper@$$CBU?$DisplayRobotState_@V?$allocator@X@std@@@moveit_msgs@@@2@@Z
	??0?$list1@V?$reference_wrapper@$$CBU?$Marker_@V?$allocator@X@std@@@visualization_msgs@@@boost@@@_bi@boost@@QEAA@V?$reference_wrapper@$$CBU?$Marker_@V?$allocator@X@std@@@visualization_msgs@@@2@@Z
	??0?$list2@V?$value@PEAVInteractiveRobot@@@_bi@boost@@U?$arg@$00@3@@_bi@boost@@QEAA@V?$value@PEAVInteractiveRobot@@@12@U?$arg@$00@2@@Z
	??0?$map@V?$basic_string@DU?$char_traits@D@std@@V?$allocator@D@2@@std@@V12@U?$less@V?$basic_string@DU?$char_traits@D@std@@V?$allocator@D@2@@std@@@2@V?$allocator@U?$pair@$$CBV?$basic_string@DU?$char_traits@D@std@@V?$allocator@D@2@@std@@V12@@std@@@2@@std@@QEAA@XZ
	??0?$mapbase_evaluator@V?$Block@$$CBV?$Block@V?$Matrix@N$03$03$0A@$03$03@Eigen@@$00$03$0A@@Eigen@@$00$00$0A@@Eigen@@V?$Matrix@N$00$00$00$00$00@2@@internal@Eigen@@QEAA@AEBV?$Block@$$CBV?$Block@V?$Matrix@N$03$03$0A@$03$03@Eigen@@$00$03$0A@@Eigen@@$00$00$0A@@2@@Z
	??0?$mapbase_evaluator@V?$Block@$$CBV?$Matrix@N$02$00$0A@$02$00@Eigen@@$00$00$0A@@Eigen@@V?$Matrix@N$00$00$0A@$00$00@2@@internal@Eigen@@QEAA@AEBV?$Block@$$CBV?$Matrix@N$02$00$0A@$02$00@Eigen@@$00$00$0A@@2@@Z
	??0?$mapbase_evaluator@V?$Block@$$CBV?$Matrix@N$03$03$0A@$03$03@Eigen@@$02$00$00@Eigen@@V?$Matrix@N$02$00$0A@$02$00@2@@internal@Eigen@@QEAA@AEBV?$Block@$$CBV?$Matrix@N$03$03$0A@$03$03@Eigen@@$02$00$00@2@@Z
	??0?$mapbase_evaluator@V?$Block@$$CBV?$Matrix@N$03$03$0A@$03$03@Eigen@@$02$02$0A@@Eigen@@V?$Matrix@N$02$02$0A@$02$02@2@@internal@Eigen@@QEAA@AEBV?$Block@$$CBV?$Matrix@N$03$03$0A@$03$03@Eigen@@$02$02$0A@@2@@Z
	??0?$mapbase_evaluator@V?$Block@V?$Matrix@N$03$03$0A@$03$03@Eigen@@$00$02$0A@@Eigen@@V?$Matrix@N$00$02$00$00$02@2@@internal@Eigen@@QEAA@AEBV?$Block@V?$Matrix@N$03$03$0A@$03$03@Eigen@@$00$02$0A@@2@@Z
	??0?$mapbase_evaluator@V?$Block@V?$Matrix@N$03$03$0A@$03$03@Eigen@@$00$03$0A@@Eigen@@V?$Matrix@N$00$03$00$00$03@2@@internal@Eigen@@QEAA@AEBV?$Block@V?$Matrix@N$03$03$0A@$03$03@Eigen@@$00$03$0A@@2@@Z
	??0?$mapbase_evaluator@V?$Block@V?$Matrix@N$03$03$0A@$03$03@Eigen@@$02$00$00@Eigen@@V?$Matrix@N$02$00$0A@$02$00@2@@internal@Eigen@@QEAA@AEBV?$Block@V?$Matrix@N$03$03$0A@$03$03@Eigen@@$02$00$00@2@@Z
	??0?$mapbase_evaluator@V?$Block@V?$Matrix@N$03$03$0A@$03$03@Eigen@@$02$02$0A@@Eigen@@V?$Matrix@N$02$02$0A@$02$02@2@@internal@Eigen@@QEAA@AEBV?$Block@V?$Matrix@N$03$03$0A@$03$03@Eigen@@$02$02$0A@@2@@Z
	??0?$mapbase_evaluator@V?$Block@V?$Matrix@N$03$03$0A@$03$03@Eigen@@$02$03$0A@@Eigen@@V?$Matrix@N$02$03$0A@$02$03@2@@internal@Eigen@@QEAA@AEBV?$Block@V?$Matrix@N$03$03$0A@$03$03@Eigen@@$02$03$0A@@2@@Z
	??0?$mf1@XVInteractiveRobot@@AEBUTimerEvent@ros@@@_mfi@boost@@QEAA@P8InteractiveRobot@@EAAXAEBUTimerEvent@ros@@@Z@Z
	??0?$plain_array@N$02$0A@$0A@@internal@Eigen@@QEAA@XZ
	??0?$plain_array@N$03$0A@$0BA@@internal@Eigen@@QEAA@XZ
	??0?$plain_array@N$08$0A@$0A@@internal@Eigen@@QEAA@XZ
	??0?$plain_array@N$0BA@$0A@$0BA@@internal@Eigen@@QEAA@XZ
	??0?$plain_array@N$0M@$0A@$0BA@@internal@Eigen@@QEAA@XZ
	??0?$product_evaluator@V?$Product@V?$Matrix@N$02$00$0A@$02$00@Eigen@@V?$Block@V?$Matrix@N$03$03$0A@$03$03@Eigen@@$00$03$0A@@2@$00@Eigen@@$03UDenseShape@2@U32@NN@internal@Eigen@@QEAA@AEBV?$Product@V?$Matrix@N$02$00$0A@$02$00@Eigen@@V?$Block@V?$Matrix@N$03$03$0A@$03$03@Eigen@@$00$03$0A@@2@$00@2@@Z
	??0?$redux_evaluator@V?$CwiseBinaryOp@U?$scalar_product_op@NN@internal@Eigen@@$$CBV?$Transpose@$$CBV?$Block@$$CBV?$Matrix@N$02$00$0A@$02$00@Eigen@@$00$00$0A@@Eigen@@@3@$$CBV?$Block@$$CBV?$Block@V?$Matrix@N$03$03$0A@$03$03@Eigen@@$00$03$0A@@Eigen@@$00$00$0A@@3@@Eigen@@@internal@Eigen@@QEAA@AEBV?$CwiseBinaryOp@U?$scalar_product_op@NN@internal@Eigen@@$$CBV?$Transpose@$$CBV?$Block@$$CBV?$Matrix@N$02$00$0A@$02$00@Eigen@@$00$00$0A@@Eigen@@@3@$$CBV?$Block@$$CBV?$Block@V?$Matrix@N$03$03$0A@$03$03@Eigen@@$00$03$0A@@Eigen@@$00$00$0A@@3@@2@@Z
	??0?$redux_evaluator@V?$Diagonal@$$CBV?$Block@$$CBV?$Matrix@N$03$03$0A@$03$03@Eigen@@$02$02$0A@@Eigen@@$0A@@Eigen@@@internal@Eigen@@QEAA@AEBV?$Diagonal@$$CBV?$Block@$$CBV?$Matrix@N$03$03$0A@$03$03@Eigen@@$02$02$0A@@Eigen@@$0A@@2@@Z
	??0?$refcount_ptr@Uerror_info_container@exception_detail@boost@@@exception_detail@boost@@QEAA@AEBV012@@Z
	??0?$refcount_ptr@Uerror_info_container@exception_detail@boost@@@exception_detail@boost@@QEAA@XZ
	??0?$reference_wrapper@$$CBU?$DisplayRobotState_@V?$allocator@X@std@@@moveit_msgs@@@boost@@QEAA@AEBU?$DisplayRobotState_@V?$allocator@X@std@@@moveit_msgs@@@Z
	??0?$reference_wrapper@$$CBU?$Marker_@V?$allocator@X@std@@@visualization_msgs@@@boost@@QEAA@AEBU?$Marker_@V?$allocator@X@std@@@visualization_msgs@@@Z
	??0?$rrlist1@AEBUTimerEvent@ros@@@_bi@boost@@QEAA@AEBUTimerEvent@ros@@@Z
	??0?$rrlist1@AEBV?$shared_ptr@$$CBU?$InteractiveMarkerFeedback_@V?$allocator@X@std@@@visualization_msgs@@@boost@@@_bi@boost@@QEAA@AEBV?$shared_ptr@$$CBU?$InteractiveMarkerFeedback_@V?$allocator@X@std@@@visualization_msgs@@@2@@Z
	??0?$scalar_constant_op@N@internal@Eigen@@QEAA@AEBN@Z
	??0?$scalar_constant_op@N@internal@Eigen@@QEAA@AEBU012@@Z
	??0?$shared_ptr@VRobotModel@core@moveit@@@std@@QEAA@AEBV01@@Z
	??0?$shared_ptr@VRobotModel@core@moveit@@@std@@QEAA@XZ
	??0?$shared_ptr@VRobotState@core@moveit@@@std@@QEAA@XZ
	??0?$sp_counted_impl_pd@PEAEU?$checked_array_deleter@E@boost@@@detail@boost@@QEAA@PEAEAEAU?$checked_array_deleter@E@2@@Z
	??0?$storage1@V?$reference_wrapper@$$CBU?$DisplayRobotState_@V?$allocator@X@std@@@moveit_msgs@@@boost@@@_bi@boost@@QEAA@V?$reference_wrapper@$$CBU?$DisplayRobotState_@V?$allocator@X@std@@@moveit_msgs@@@2@@Z
	??0?$storage1@V?$reference_wrapper@$$CBU?$Marker_@V?$allocator@X@std@@@visualization_msgs@@@boost@@@_bi@boost@@QEAA@V?$reference_wrapper@$$CBU?$Marker_@V?$allocator@X@std@@@visualization_msgs@@@2@@Z
	??0?$storage1@V?$value@PEAVInteractiveRobot@@@_bi@boost@@@_bi@boost@@QEAA@V?$value@PEAVInteractiveRobot@@@12@@Z
	??0?$storage2@V?$value@PEAVInteractiveRobot@@@_bi@boost@@U?$arg@$00@3@@_bi@boost@@QEAA@V?$value@PEAVInteractiveRobot@@@12@U?$arg@$00@2@@Z
	??0?$unary_evaluator@V?$Transpose@$$CBV?$Block@$$CBV?$Matrix@N$02$00$0A@$02$00@Eigen@@$00$00$0A@@Eigen@@@Eigen@@UIndexBased@internal@2@N@internal@Eigen@@QEAA@AEBV?$Transpose@$$CBV?$Block@$$CBV?$Matrix@N$02$00$0A@$02$00@Eigen@@$00$00$0A@@Eigen@@@2@@Z
	??0?$value@PEAVInteractiveRobot@@@_bi@boost@@QEAA@AEBQEAVInteractiveRobot@@@Z
	??0?$variable_if_dynamic@_J$00@internal@Eigen@@QEAA@_J@Z
	??0?$variable_if_dynamic@_J$02@internal@Eigen@@QEAA@_J@Z
	??0?$variable_if_dynamic@_J$03@internal@Eigen@@QEAA@_J@Z
	??0?$variable_if_dynamic@_J$0?0@internal@Eigen@@QEAA@_J@Z
	??0?$variable_if_dynamic@_J$0A@@internal@Eigen@@QEAA@_J@Z
	??0?$variable_if_dynamicindex@_J$0A@@internal@Eigen@@QEAA@_J@Z
	??0?$vector@NV?$allocator@N@std@@@std@@QEAA@XZ
	??0?$vector@U?$AttachedCollisionObject_@V?$allocator@X@std@@@moveit_msgs@@V?$allocator@U?$AttachedCollisionObject_@V?$allocator@X@std@@@moveit_msgs@@@std@@@std@@QEAA@XZ
	??0?$vector@U?$ColorRGBA_@V?$allocator@X@std@@@std_msgs@@V?$allocator@U?$ColorRGBA_@V?$allocator@X@std@@@std_msgs@@@std@@@std@@QEAA@$$QEAV01@@Z
	??0?$vector@U?$ColorRGBA_@V?$allocator@X@std@@@std_msgs@@V?$allocator@U?$ColorRGBA_@V?$allocator@X@std@@@std_msgs@@@std@@@std@@QEAA@AEBV01@@Z
	??0?$vector@U?$ColorRGBA_@V?$allocator@X@std@@@std_msgs@@V?$allocator@U?$ColorRGBA_@V?$allocator@X@std@@@std_msgs@@@std@@@std@@QEAA@XZ
	??0?$vector@U?$InteractiveMarkerControl_@V?$allocator@X@std@@@visualization_msgs@@V?$allocator@U?$InteractiveMarkerControl_@V?$allocator@X@std@@@visualization_msgs@@@std@@@std@@QEAA@XZ
	??0?$vector@U?$Marker_@V?$allocator@X@std@@@visualization_msgs@@V?$allocator@U?$Marker_@V?$allocator@X@std@@@visualization_msgs@@@std@@@std@@QEAA@$$QEAV01@@Z
	??0?$vector@U?$Marker_@V?$allocator@X@std@@@visualization_msgs@@V?$allocator@U?$Marker_@V?$allocator@X@std@@@visualization_msgs@@@std@@@std@@QEAA@AEBV01@@Z
	??0?$vector@U?$Marker_@V?$allocator@X@std@@@visualization_msgs@@V?$allocator@U?$Marker_@V?$allocator@X@std@@@visualization_msgs@@@std@@@std@@QEAA@XZ
	??0?$vector@U?$MenuEntry_@V?$allocator@X@std@@@visualization_msgs@@V?$allocator@U?$MenuEntry_@V?$allocator@X@std@@@visualization_msgs@@@std@@@std@@QEAA@XZ
	??0?$vector@U?$ObjectColor_@V?$allocator@X@std@@@moveit_msgs@@V?$allocator@U?$ObjectColor_@V?$allocator@X@std@@@moveit_msgs@@@std@@@std@@QEAA@XZ
	??0?$vector@U?$Point_@V?$allocator@X@std@@@geometry_msgs@@V?$allocator@U?$Point_@V?$allocator@X@std@@@geometry_msgs@@@std@@@std@@QEAA@$$QEAV01@@Z
	??0?$vector@U?$Point_@V?$allocator@X@std@@@geometry_msgs@@V?$allocator@U?$Point_@V?$allocator@X@std@@@geometry_msgs@@@std@@@std@@QEAA@AEBV01@@Z
	??0?$vector@U?$Point_@V?$allocator@X@std@@@geometry_msgs@@V?$allocator@U?$Point_@V?$allocator@X@std@@@geometry_msgs@@@std@@@std@@QEAA@XZ
	??0?$vector@U?$Transform_@V?$allocator@X@std@@@geometry_msgs@@V?$allocator@U?$Transform_@V?$allocator@X@std@@@geometry_msgs@@@std@@@std@@QEAA@XZ
	??0?$vector@U?$Twist_@V?$allocator@X@std@@@geometry_msgs@@V?$allocator@U?$Twist_@V?$allocator@X@std@@@geometry_msgs@@@std@@@std@@QEAA@XZ
	??0?$vector@U?$Wrench_@V?$allocator@X@std@@@geometry_msgs@@V?$allocator@U?$Wrench_@V?$allocator@X@std@@@geometry_msgs@@@std@@@std@@QEAA@XZ
	??0?$vector@V?$basic_string@DU?$char_traits@D@std@@V?$allocator@D@2@@std@@V?$allocator@V?$basic_string@DU?$char_traits@D@std@@V?$allocator@D@2@@std@@@2@@std@@QEAA@XZ
	??0IMarker@@QEAA@AEAVInteractiveMarkerServer@interactive_markers@@AEBV?$basic_string@DU?$char_traits@D@std@@V?$allocator@D@2@@std@@AEBV?$Transform@N$02$00$0A@@Eigen@@1V?$function@$$A6AXAEBV?$shared_ptr@$$CBU?$InteractiveMarkerFeedback_@V?$allocator@X@std@@@visualization_msgs@@@boost@@@Z@boost@@W4Dof@0@@Z
	??0InteractiveRobot@@QEAA@AEBV?$basic_string@DU?$char_traits@D@std@@V?$allocator@D@2@@std@@000@Z
	??0KinematicsQueryOptions@kinematics@@QEAA@XZ
	??0RobotLoadException@InteractiveRobot@@QEAA@AEBV01@@Z
	??0RobotLoadException@InteractiveRobot@@QEAA@XZ
	??0TimerEvent@ros@@QEAA@XZ
	??0_Bxty@?$_String_val@U?$_Simple_types@D@std@@@std@@QEAA@XZ
	??0_Fake_proxy_ptr_impl@std@@QEAA@AEBU_Fake_allocator@1@AEBU_Container_base0@1@@Z
	??0_Ref_count_base@std@@IEAA@XZ
	??0_Sentry_base@?$basic_ostream@DU?$char_traits@D@std@@@std@@QEAA@AEAV12@@Z
	??0bad_alloc@std@@AEAA@QEBD@Z
	??0bad_alloc@std@@QEAA@AEBV01@@Z
	??0bad_array_new_length@std@@QEAA@AEBV01@@Z
	??0bad_array_new_length@std@@QEAA@XZ
	??0bad_function_call@boost@@QEAA@AEBV01@@Z
	??0bad_function_call@boost@@QEAA@XZ
	??0clone_base@exception_detail@boost@@QEAA@AEBV012@@Z
	??0clone_base@exception_detail@boost@@QEAA@XZ
	??0exception@boost@@IEAA@XZ
	??0exception@boost@@QEAA@AEBV01@@Z
	??0exception@std@@QEAA@AEBV01@@Z
	??0exception@std@@QEAA@QEBD@Z
	??0exception@std@@QEAA@QEBDH@Z
	??0exception@std@@QEAA@XZ
	??0function_base@boost@@QEAA@XZ
	??0list0@_bi@boost@@QEAA@XZ
	??0noncopyable@internal@Eigen@@IEAA@XZ
	??0runtime_error@std@@QEAA@AEBV01@@Z
	??0runtime_error@std@@QEAA@PEBD@Z
	??0sentry@?$basic_ostream@DU?$char_traits@D@std@@@std@@QEAA@AEAV12@@Z
	??0sp_counted_base@detail@boost@@QEAA@XZ
	??0stl_type_index@typeindex@boost@@QEAA@AEBVtype_info@@@Z
	??1<unnamed-type-profile>@TimerEvent@ros@@QEAA@XZ
	??1?$AttachedCollisionObject_@V?$allocator@X@std@@@moveit_msgs@@QEAA@XZ
	??1?$CollisionObject_@V?$allocator@X@std@@@moveit_msgs@@QEAA@XZ
	??1?$DisplayRobotState_@V?$allocator@X@std@@@moveit_msgs@@QEAA@XZ
	??1?$Header_@V?$allocator@X@std@@@std_msgs@@QEAA@XZ
	??1?$InteractiveMarkerControl_@V?$allocator@X@std@@@visualization_msgs@@QEAA@XZ
	??1?$InteractiveMarker_@V?$allocator@X@std@@@visualization_msgs@@QEAA@XZ
	??1?$JointState_@V?$allocator@X@std@@@sensor_msgs@@QEAA@XZ
	??1?$JointTrajectoryPoint_@V?$allocator@X@std@@@trajectory_msgs@@QEAA@XZ
	??1?$JointTrajectory_@V?$allocator@X@std@@@trajectory_msgs@@QEAA@XZ
	??1?$Marker_@V?$allocator@X@std@@@visualization_msgs@@QEAA@XZ
	??1?$MenuEntry_@V?$allocator@X@std@@@visualization_msgs@@QEAA@XZ
	??1?$Mesh_@V?$allocator@X@std@@@shape_msgs@@QEAA@XZ
	??1?$MultiDOFJointState_@V?$allocator@X@std@@@sensor_msgs@@QEAA@XZ
	??1?$ObjectColor_@V?$allocator@X@std@@@moveit_msgs@@QEAA@XZ
	??1?$ObjectType_@V?$allocator@X@std@@@object_recognition_msgs@@QEAA@XZ
	??1?$RobotState_@V?$allocator@X@std@@@moveit_msgs@@QEAA@XZ
	??1?$SolidPrimitive_@V?$allocator@X@std@@@shape_msgs@@QEAA@XZ
	??1?$_Compressed_pair@V?$allocator@D@std@@V?$_String_val@U?$_Simple_types@D@std@@@2@$00@std@@QEAA@XZ
	??1?$_Ref_count@VRobotState@core@moveit@@@std@@UEAA@XZ
	??1?$_String_val@U?$_Simple_types@D@std@@@std@@QEAA@XZ
	??1?$_Temporary_owner@VRobotState@core@moveit@@@std@@QEAA@XZ
	??1?$_Tidy_guard@V?$vector@U?$ColorRGBA_@V?$allocator@X@std@@@std_msgs@@V?$allocator@U?$ColorRGBA_@V?$allocator@X@std@@@std_msgs@@@std@@@std@@@std@@QEAA@XZ
	??1?$_Tidy_guard@V?$vector@U?$Marker_@V?$allocator@X@std@@@visualization_msgs@@V?$allocator@U?$Marker_@V?$allocator@X@std@@@visualization_msgs@@@std@@@std@@@std@@QEAA@XZ
	??1?$_Tidy_guard@V?$vector@U?$Point_@V?$allocator@X@std@@@geometry_msgs@@V?$allocator@U?$Point_@V?$allocator@X@std@@@geometry_msgs@@@std@@@std@@@std@@QEAA@XZ
	??1?$_Tree@V?$_Tmap_traits@V?$basic_string@DU?$char_traits@D@std@@V?$allocator@D@2@@std@@V12@U?$less@V?$basic_string@DU?$char_traits@D@std@@V?$allocator@D@2@@std@@@2@V?$allocator@U?$pair@$$CBV?$basic_string@DU?$char_traits@D@std@@V?$allocator@D@2@@std@@V12@@std@@@2@$0A@@std@@@std@@QEAA@XZ
	??1?$_Uninitialized_backout_al@V?$allocator@U?$ColorRGBA_@V?$allocator@X@std@@@std_msgs@@@std@@@std@@QEAA@XZ
	??1?$_Uninitialized_backout_al@V?$allocator@U?$InteractiveMarkerControl_@V?$allocator@X@std@@@visualization_msgs@@@std@@@std@@QEAA@XZ
	??1?$_Uninitialized_backout_al@V?$allocator@U?$Marker_@V?$allocator@X@std@@@visualization_msgs@@@std@@@std@@QEAA@XZ
	??1?$_Uninitialized_backout_al@V?$allocator@U?$Point_@V?$allocator@X@std@@@geometry_msgs@@@std@@@std@@QEAA@XZ
	??1?$basic_string@DU?$char_traits@D@std@@V?$allocator@D@2@@std@@QEAA@XZ
	??1?$basic_stringbuf@DU?$char_traits@D@std@@V?$allocator@D@2@@std@@UEAA@XZ
	??1?$basic_stringstream@DU?$char_traits@D@std@@V?$allocator@D@2@@std@@UEAA@XZ
	??1?$binary_evaluator@V?$CwiseBinaryOp@U?$scalar_product_op@NN@internal@Eigen@@$$CBV?$Transpose@$$CBV?$Block@$$CBV?$Matrix@N$02$00$0A@$02$00@Eigen@@$00$00$0A@@Eigen@@@3@$$CBV?$Block@$$CBV?$Block@V?$Matrix@N$03$03$0A@$03$03@Eigen@@$00$03$0A@@Eigen@@$00$00$0A@@3@@Eigen@@UIndexBased@internal@2@U342@NN@internal@Eigen@@QEAA@XZ
	??1?$block_evaluator@$$CBV?$Block@V?$Matrix@N$03$03$0A@$03$03@Eigen@@$00$03$0A@@Eigen@@$00$00$0A@$00@internal@Eigen@@QEAA@XZ
	??1?$block_evaluator@$$CBV?$Matrix@N$02$00$0A@$02$00@Eigen@@$00$00$0A@$00@internal@Eigen@@QEAA@XZ
	??1?$block_evaluator@$$CBV?$Matrix@N$03$03$0A@$03$03@Eigen@@$02$00$00$00@internal@Eigen@@QEAA@XZ
	??1?$block_evaluator@$$CBV?$Matrix@N$03$03$0A@$03$03@Eigen@@$02$02$0A@$00@internal@Eigen@@QEAA@XZ
	??1?$block_evaluator@V?$Matrix@N$03$03$0A@$03$03@Eigen@@$00$02$0A@$00@internal@Eigen@@QEAA@XZ
	??1?$block_evaluator@V?$Matrix@N$03$03$0A@$03$03@Eigen@@$00$03$0A@$00@internal@Eigen@@QEAA@XZ
	??1?$block_evaluator@V?$Matrix@N$03$03$0A@$03$03@Eigen@@$02$00$00$00@internal@Eigen@@QEAA@XZ
	??1?$block_evaluator@V?$Matrix@N$03$03$0A@$03$03@Eigen@@$02$02$0A@$00@internal@Eigen@@QEAA@XZ
	??1?$block_evaluator@V?$Matrix@N$03$03$0A@$03$03@Eigen@@$02$03$0A@$00@internal@Eigen@@QEAA@XZ
	??1?$clone_impl@U?$error_info_injector@Vbad_function_call@boost@@@exception_detail@boost@@@exception_detail@boost@@UEAA@XZ
	??1?$error_info_injector@Vbad_function_call@boost@@@exception_detail@boost@@UEAA@XZ
	??1?$evaluator@$$CBV?$Block@$$CBV?$Block@V?$Matrix@N$03$03$0A@$03$03@Eigen@@$00$03$0A@@Eigen@@$00$00$0A@@Eigen@@@internal@Eigen@@QEAA@XZ
	??1?$evaluator@$$CBV?$Block@$$CBV?$Matrix@N$02$00$0A@$02$00@Eigen@@$00$00$0A@@Eigen@@@internal@Eigen@@QEAA@XZ
	??1?$evaluator@$$CBV?$Block@$$CBV?$Matrix@N$03$03$0A@$03$03@Eigen@@$02$02$0A@@Eigen@@@internal@Eigen@@QEAA@XZ
	??1?$evaluator@$$CBV?$Transpose@$$CBV?$Block@$$CBV?$Matrix@N$02$00$0A@$02$00@Eigen@@$00$00$0A@@Eigen@@@Eigen@@@internal@Eigen@@QEAA@XZ
	??1?$evaluator@V?$Block@$$CBV?$Block@V?$Matrix@N$03$03$0A@$03$03@Eigen@@$00$03$0A@@Eigen@@$00$00$0A@@Eigen@@@internal@Eigen@@QEAA@XZ
	??1?$evaluator@V?$Block@$$CBV?$Matrix@N$02$00$0A@$02$00@Eigen@@$00$00$0A@@Eigen@@@internal@Eigen@@QEAA@XZ
	??1?$evaluator@V?$Block@$$CBV?$Matrix@N$03$03$0A@$03$03@Eigen@@$02$00$00@Eigen@@@internal@Eigen@@QEAA@XZ
	??1?$evaluator@V?$Block@$$CBV?$Matrix@N$03$03$0A@$03$03@Eigen@@$02$02$0A@@Eigen@@@internal@Eigen@@QEAA@XZ
	??1?$evaluator@V?$Block@V?$Matrix@N$03$03$0A@$03$03@Eigen@@$00$02$0A@@Eigen@@@internal@Eigen@@QEAA@XZ
	??1?$evaluator@V?$Block@V?$Matrix@N$03$03$0A@$03$03@Eigen@@$00$03$0A@@Eigen@@@internal@Eigen@@QEAA@XZ
	??1?$evaluator@V?$Block@V?$Matrix@N$03$03$0A@$03$03@Eigen@@$02$00$00@Eigen@@@internal@Eigen@@QEAA@XZ
	??1?$evaluator@V?$Block@V?$Matrix@N$03$03$0A@$03$03@Eigen@@$02$02$0A@@Eigen@@@internal@Eigen@@QEAA@XZ
	??1?$evaluator@V?$Block@V?$Matrix@N$03$03$0A@$03$03@Eigen@@$02$03$0A@@Eigen@@@internal@Eigen@@QEAA@XZ
	??1?$evaluator@V?$CwiseBinaryOp@U?$scalar_product_op@NN@internal@Eigen@@$$CBV?$Transpose@$$CBV?$Block@$$CBV?$Matrix@N$02$00$0A@$02$00@Eigen@@$00$00$0A@@Eigen@@@3@$$CBV?$Block@$$CBV?$Block@V?$Matrix@N$03$03$0A@$03$03@Eigen@@$00$03$0A@@Eigen@@$00$00$0A@@3@@Eigen@@@internal@Eigen@@QEAA@XZ
	??1?$evaluator@V?$CwiseNullaryOp@U?$scalar_constant_op@N@internal@Eigen@@V?$Matrix@N$00$02$00$00$02@3@@Eigen@@@internal@Eigen@@QEAA@XZ
	??1?$evaluator@V?$CwiseNullaryOp@U?$scalar_constant_op@N@internal@Eigen@@V?$Matrix@N$02$00$0A@$02$00@3@@Eigen@@@internal@Eigen@@QEAA@XZ
	??1?$evaluator@V?$CwiseNullaryOp@U?$scalar_identity_op@N@internal@Eigen@@V?$Matrix@N$02$02$0A@$02$02@3@@Eigen@@@internal@Eigen@@QEAA@XZ
	??1?$evaluator@V?$Diagonal@$$CBV?$Block@$$CBV?$Matrix@N$03$03$0A@$03$03@Eigen@@$02$02$0A@@Eigen@@$0A@@Eigen@@@internal@Eigen@@QEAA@XZ
	??1?$evaluator@V?$Matrix@N$02$00$0A@$02$00@Eigen@@@internal@Eigen@@QEAA@XZ
	??1?$evaluator@V?$Matrix@N$02$02$0A@$02$02@Eigen@@@internal@Eigen@@QEAA@XZ
	??1?$evaluator@V?$Matrix@N$02$03$0A@$02$03@Eigen@@@internal@Eigen@@QEAA@XZ
	??1?$evaluator@V?$Matrix@N$03$03$0A@$03$03@Eigen@@@internal@Eigen@@QEAA@XZ
	??1?$evaluator@V?$PlainObjectBase@V?$Matrix@N$02$00$0A@$02$00@Eigen@@@Eigen@@@internal@Eigen@@QEAA@XZ
	??1?$evaluator@V?$PlainObjectBase@V?$Matrix@N$02$02$0A@$02$02@Eigen@@@Eigen@@@internal@Eigen@@QEAA@XZ
	??1?$evaluator@V?$PlainObjectBase@V?$Matrix@N$02$03$0A@$02$03@Eigen@@@Eigen@@@internal@Eigen@@QEAA@XZ
	??1?$evaluator@V?$PlainObjectBase@V?$Matrix@N$03$03$0A@$03$03@Eigen@@@Eigen@@@internal@Eigen@@QEAA@XZ
	??1?$evaluator@V?$Product@V?$Matrix@N$02$00$0A@$02$00@Eigen@@V?$Block@V?$Matrix@N$03$03$0A@$03$03@Eigen@@$00$03$0A@@2@$00@Eigen@@@internal@Eigen@@QEAA@XZ
	??1?$evaluator@V?$Transpose@$$CBV?$Block@$$CBV?$Matrix@N$02$00$0A@$02$00@Eigen@@$00$00$0A@@Eigen@@@Eigen@@@internal@Eigen@@QEAA@XZ
	??1?$evaluator_base@V?$Block@$$CBV?$Block@V?$Matrix@N$03$03$0A@$03$03@Eigen@@$00$03$0A@@Eigen@@$00$00$0A@@Eigen@@@internal@Eigen@@QEAA@XZ
	??1?$evaluator_base@V?$Block@$$CBV?$Matrix@N$02$00$0A@$02$00@Eigen@@$00$00$0A@@Eigen@@@internal@Eigen@@QEAA@XZ
	??1?$evaluator_base@V?$Block@$$CBV?$Matrix@N$03$03$0A@$03$03@Eigen@@$02$00$00@Eigen@@@internal@Eigen@@QEAA@XZ
	??1?$evaluator_base@V?$Block@$$CBV?$Matrix@N$03$03$0A@$03$03@Eigen@@$02$02$0A@@Eigen@@@internal@Eigen@@QEAA@XZ
	??1?$evaluator_base@V?$Block@V?$Matrix@N$03$03$0A@$03$03@Eigen@@$00$02$0A@@Eigen@@@internal@Eigen@@QEAA@XZ
	??1?$evaluator_base@V?$Block@V?$Matrix@N$03$03$0A@$03$03@Eigen@@$00$03$0A@@Eigen@@@internal@Eigen@@QEAA@XZ
	??1?$evaluator_base@V?$Block@V?$Matrix@N$03$03$0A@$03$03@Eigen@@$02$00$00@Eigen@@@internal@Eigen@@QEAA@XZ
	??1?$evaluator_base@V?$Block@V?$Matrix@N$03$03$0A@$03$03@Eigen@@$02$02$0A@@Eigen@@@internal@Eigen@@QEAA@XZ
	??1?$evaluator_base@V?$Block@V?$Matrix@N$03$03$0A@$03$03@Eigen@@$02$03$0A@@Eigen@@@internal@Eigen@@QEAA@XZ
	??1?$evaluator_base@V?$CwiseBinaryOp@U?$scalar_product_op@NN@internal@Eigen@@$$CBV?$Transpose@$$CBV?$Block@$$CBV?$Matrix@N$02$00$0A@$02$00@Eigen@@$00$00$0A@@Eigen@@@3@$$CBV?$Block@$$CBV?$Block@V?$Matrix@N$03$03$0A@$03$03@Eigen@@$00$03$0A@@Eigen@@$00$00$0A@@3@@Eigen@@@internal@Eigen@@QEAA@XZ
	??1?$evaluator_base@V?$CwiseNullaryOp@U?$scalar_constant_op@N@internal@Eigen@@V?$Matrix@N$00$02$00$00$02@3@@Eigen@@@internal@Eigen@@QEAA@XZ
	??1?$evaluator_base@V?$CwiseNullaryOp@U?$scalar_constant_op@N@internal@Eigen@@V?$Matrix@N$02$00$0A@$02$00@3@@Eigen@@@internal@Eigen@@QEAA@XZ
	??1?$evaluator_base@V?$CwiseNullaryOp@U?$scalar_identity_op@N@internal@Eigen@@V?$Matrix@N$02$02$0A@$02$02@3@@Eigen@@@internal@Eigen@@QEAA@XZ
	??1?$evaluator_base@V?$Diagonal@$$CBV?$Block@$$CBV?$Matrix@N$03$03$0A@$03$03@Eigen@@$02$02$0A@@Eigen@@$0A@@Eigen@@@internal@Eigen@@QEAA@XZ
	??1?$evaluator_base@V?$Matrix@N$02$00$0A@$02$00@Eigen@@@internal@Eigen@@QEAA@XZ
	??1?$evaluator_base@V?$Matrix@N$02$02$0A@$02$02@Eigen@@@internal@Eigen@@QEAA@XZ
	??1?$evaluator_base@V?$Matrix@N$02$03$0A@$02$03@Eigen@@@internal@Eigen@@QEAA@XZ
	??1?$evaluator_base@V?$Matrix@N$03$03$0A@$03$03@Eigen@@@internal@Eigen@@QEAA@XZ
	??1?$evaluator_base@V?$Product@V?$Matrix@N$02$00$0A@$02$00@Eigen@@V?$Block@V?$Matrix@N$03$03$0A@$03$03@Eigen@@$00$03$0A@@2@$00@Eigen@@@internal@Eigen@@QEAA@XZ
	??1?$evaluator_base@V?$Transpose@$$CBV?$Block@$$CBV?$Matrix@N$02$00$0A@$02$00@Eigen@@$00$00$0A@@Eigen@@@Eigen@@@internal@Eigen@@QEAA@XZ
	??1?$function0@VSerializedMessage@ros@@@boost@@QEAA@XZ
	??1?$function1@XAEAVInteractiveRobot@@@boost@@QEAA@XZ
	??1?$function1@XAEBUTimerEvent@ros@@@boost@@QEAA@XZ
	??1?$function1@XAEBV?$shared_ptr@$$CBU?$InteractiveMarkerFeedback_@V?$allocator@X@std@@@visualization_msgs@@@boost@@@boost@@QEAA@XZ
	??1?$function1@XAEBVSingleSubscriberPublisher@ros@@@boost@@QEAA@XZ
	??1?$function3@_NPEAVRobotState@core@moveit@@PEBVJointModelGroup@23@PEBN@boost@@QEAA@XZ
	??1?$function@$$A6A?AVSerializedMessage@ros@@XZ@boost@@QEAA@XZ
	??1?$function@$$A6AXAEAVInteractiveRobot@@@Z@boost@@QEAA@XZ
	??1?$function@$$A6AXAEBUTimerEvent@ros@@@Z@boost@@QEAA@XZ
	??1?$function@$$A6AXAEBV?$shared_ptr@$$CBU?$InteractiveMarkerFeedback_@V?$allocator@X@std@@@visualization_msgs@@@boost@@@Z@boost@@QEAA@XZ
	??1?$function@$$A6AXAEBVSingleSubscriberPublisher@ros@@@Z@boost@@QEAA@XZ
	??1?$function@$$A6A_NPEAVRobotState@core@moveit@@PEBVJointModelGroup@23@PEBN@Z@boost@@QEAA@XZ
	??1?$map@V?$basic_string@DU?$char_traits@D@std@@V?$allocator@D@2@@std@@V12@U?$less@V?$basic_string@DU?$char_traits@D@std@@V?$allocator@D@2@@std@@@2@V?$allocator@U?$pair@$$CBV?$basic_string@DU?$char_traits@D@std@@V?$allocator@D@2@@std@@V12@@std@@@2@@std@@QEAA@XZ
	??1?$mapbase_evaluator@V?$Block@$$CBV?$Block@V?$Matrix@N$03$03$0A@$03$03@Eigen@@$00$03$0A@@Eigen@@$00$00$0A@@Eigen@@V?$Matrix@N$00$00$00$00$00@2@@internal@Eigen@@QEAA@XZ
	??1?$mapbase_evaluator@V?$Block@$$CBV?$Matrix@N$02$00$0A@$02$00@Eigen@@$00$00$0A@@Eigen@@V?$Matrix@N$00$00$0A@$00$00@2@@internal@Eigen@@QEAA@XZ
	??1?$mapbase_evaluator@V?$Block@$$CBV?$Matrix@N$03$03$0A@$03$03@Eigen@@$02$00$00@Eigen@@V?$Matrix@N$02$00$0A@$02$00@2@@internal@Eigen@@QEAA@XZ
	??1?$mapbase_evaluator@V?$Block@$$CBV?$Matrix@N$03$03$0A@$03$03@Eigen@@$02$02$0A@@Eigen@@V?$Matrix@N$02$02$0A@$02$02@2@@internal@Eigen@@QEAA@XZ
	??1?$mapbase_evaluator@V?$Block@V?$Matrix@N$03$03$0A@$03$03@Eigen@@$00$02$0A@@Eigen@@V?$Matrix@N$00$02$00$00$02@2@@internal@Eigen@@QEAA@XZ
	??1?$mapbase_evaluator@V?$Block@V?$Matrix@N$03$03$0A@$03$03@Eigen@@$00$03$0A@@Eigen@@V?$Matrix@N$00$03$00$00$03@2@@internal@Eigen@@QEAA@XZ
	??1?$mapbase_evaluator@V?$Block@V?$Matrix@N$03$03$0A@$03$03@Eigen@@$02$00$00@Eigen@@V?$Matrix@N$02$00$0A@$02$00@2@@internal@Eigen@@QEAA@XZ
	??1?$mapbase_evaluator@V?$Block@V?$Matrix@N$03$03$0A@$03$03@Eigen@@$02$02$0A@@Eigen@@V?$Matrix@N$02$02$0A@$02$02@2@@internal@Eigen@@QEAA@XZ
	??1?$mapbase_evaluator@V?$Block@V?$Matrix@N$03$03$0A@$03$03@Eigen@@$02$03$0A@@Eigen@@V?$Matrix@N$02$03$0A@$02$03@2@@internal@Eigen@@QEAA@XZ
	??1?$pair@$$CBV?$basic_string@DU?$char_traits@D@std@@V?$allocator@D@2@@std@@V12@@std@@QEAA@XZ
	??1?$product_evaluator@V?$Product@V?$Matrix@N$02$00$0A@$02$00@Eigen@@V?$Block@V?$Matrix@N$03$03$0A@$03$03@Eigen@@$00$03$0A@@2@$00@Eigen@@$03UDenseShape@2@U32@NN@internal@Eigen@@QEAA@XZ
	??1?$redux_evaluator@V?$CwiseBinaryOp@U?$scalar_product_op@NN@internal@Eigen@@$$CBV?$Transpose@$$CBV?$Block@$$CBV?$Matrix@N$02$00$0A@$02$00@Eigen@@$00$00$0A@@Eigen@@@3@$$CBV?$Block@$$CBV?$Block@V?$Matrix@N$03$03$0A@$03$03@Eigen@@$00$03$0A@@Eigen@@$00$00$0A@@3@@Eigen@@@internal@Eigen@@QEAA@XZ
	??1?$redux_evaluator@V?$Diagonal@$$CBV?$Block@$$CBV?$Matrix@N$03$03$0A@$03$03@Eigen@@$02$02$0A@@Eigen@@$0A@@Eigen@@@internal@Eigen@@QEAA@XZ
	??1?$refcount_ptr@Uerror_info_container@exception_detail@boost@@@exception_detail@boost@@QEAA@XZ
	??1?$shared_array@E@boost@@QEAA@XZ
	??1?$shared_ptr@$$CBVRobotModel@core@moveit@@@std@@QEAA@XZ
	??1?$shared_ptr@VRobotModel@core@moveit@@@std@@QEAA@XZ
	??1?$shared_ptr@VRobotState@core@moveit@@@std@@QEAA@XZ
	??1?$sp_counted_impl_pd@PEAEU?$checked_array_deleter@E@boost@@@detail@boost@@UEAA@XZ
	??1?$unary_evaluator@V?$Transpose@$$CBV?$Block@$$CBV?$Matrix@N$02$00$0A@$02$00@Eigen@@$00$00$0A@@Eigen@@@Eigen@@UIndexBased@internal@2@N@internal@Eigen@@QEAA@XZ
	??1?$vector@NV?$allocator@N@std@@@std@@QEAA@XZ
	??1?$vector@U?$AttachedCollisionObject_@V?$allocator@X@std@@@moveit_msgs@@V?$allocator@U?$AttachedCollisionObject_@V?$allocator@X@std@@@moveit_msgs@@@std@@@std@@QEAA@XZ
	??1?$vector@U?$ColorRGBA_@V?$allocator@X@std@@@std_msgs@@V?$allocator@U?$ColorRGBA_@V?$allocator@X@std@@@std_msgs@@@std@@@std@@QEAA@XZ
	??1?$vector@U?$InteractiveMarkerControl_@V?$allocator@X@std@@@visualization_msgs@@V?$allocator@U?$InteractiveMarkerControl_@V?$allocator@X@std@@@visualization_msgs@@@std@@@std@@QEAA@XZ
	??1?$vector@U?$JointTrajectoryPoint_@V?$allocator@X@std@@@trajectory_msgs@@V?$allocator@U?$JointTrajectoryPoint_@V?$allocator@X@std@@@trajectory_msgs@@@std@@@std@@QEAA@XZ
	??1?$vector@U?$Marker_@V?$allocator@X@std@@@visualization_msgs@@V?$allocator@U?$Marker_@V?$allocator@X@std@@@visualization_msgs@@@std@@@std@@QEAA@XZ
	??1?$vector@U?$MenuEntry_@V?$allocator@X@std@@@visualization_msgs@@V?$allocator@U?$MenuEntry_@V?$allocator@X@std@@@visualization_msgs@@@std@@@std@@QEAA@XZ
	??1?$vector@U?$MeshTriangle_@V?$allocator@X@std@@@shape_msgs@@V?$allocator@U?$MeshTriangle_@V?$allocator@X@std@@@shape_msgs@@@std@@@std@@QEAA@XZ
	??1?$vector@U?$Mesh_@V?$allocator@X@std@@@shape_msgs@@V?$allocator@U?$Mesh_@V?$allocator@X@std@@@shape_msgs@@@std@@@std@@QEAA@XZ
	??1?$vector@U?$ObjectColor_@V?$allocator@X@std@@@moveit_msgs@@V?$allocator@U?$ObjectColor_@V?$allocator@X@std@@@moveit_msgs@@@std@@@std@@QEAA@XZ
	??1?$vector@U?$Plane_@V?$allocator@X@std@@@shape_msgs@@V?$allocator@U?$Plane_@V?$allocator@X@std@@@shape_msgs@@@std@@@std@@QEAA@XZ
	??1?$vector@U?$Point_@V?$allocator@X@std@@@geometry_msgs@@V?$allocator@U?$Point_@V?$allocator@X@std@@@geometry_msgs@@@std@@@std@@QEAA@XZ
	??1?$vector@U?$Pose_@V?$allocator@X@std@@@geometry_msgs@@V?$allocator@U?$Pose_@V?$allocator@X@std@@@geometry_msgs@@@std@@@std@@QEAA@XZ
	??1?$vector@U?$SolidPrimitive_@V?$allocator@X@std@@@shape_msgs@@V?$allocator@U?$SolidPrimitive_@V?$allocator@X@std@@@shape_msgs@@@std@@@std@@QEAA@XZ
	??1?$vector@U?$Transform_@V?$allocator@X@std@@@geometry_msgs@@V?$allocator@U?$Transform_@V?$allocator@X@std@@@geometry_msgs@@@std@@@std@@QEAA@XZ
	??1?$vector@U?$Twist_@V?$allocator@X@std@@@geometry_msgs@@V?$allocator@U?$Twist_@V?$allocator@X@std@@@geometry_msgs@@@std@@@std@@QEAA@XZ
	??1?$vector@U?$Wrench_@V?$allocator@X@std@@@geometry_msgs@@V?$allocator@U?$Wrench_@V?$allocator@X@std@@@geometry_msgs@@@std@@@std@@QEAA@XZ
	??1?$vector@V?$basic_string@DU?$char_traits@D@std@@V?$allocator@D@2@@std@@V?$allocator@V?$basic_string@DU?$char_traits@D@std@@V?$allocator@D@2@@std@@@2@@std@@QEAA@XZ
	??1IMarker@@QEAA@XZ
	??1InteractiveRobot@@QEAA@XZ
	??1RobotLoadException@InteractiveRobot@@UEAA@XZ
	??1TimerEvent@ros@@QEAA@XZ
	??1_Bxty@?$_String_val@U?$_Simple_types@D@std@@@std@@QEAA@XZ
	??1_Ref_count_base@std@@UEAA@XZ
	??1_Sentry_base@?$basic_ostream@DU?$char_traits@D@std@@@std@@QEAA@XZ
	??1bad_alloc@std@@UEAA@XZ
	??1bad_array_new_length@std@@UEAA@XZ
	??1bad_function_call@boost@@UEAA@XZ
	??1clone_base@exception_detail@boost@@UEAA@XZ
	??1exception@boost@@MEAA@XZ
	??1exception@std@@UEAA@XZ
	??1noncopyable@internal@Eigen@@IEAA@XZ
	??1runtime_error@std@@UEAA@XZ
	??1sentry@?$basic_ostream@DU?$char_traits@D@std@@@std@@QEAA@XZ
	??1shared_count@detail@boost@@QEAA@XZ
	??1sp_counted_base@detail@boost@@UEAA@XZ
	??2@YAPEAX_KPEAX@Z
	??4?$Matrix@N$03$03$0A@$03$03@Eigen@@QEAAAEAV01@AEBV01@@Z
	??4?$Transform@N$02$00$0A@@Eigen@@QEAAAEAV01@AEBV01@@Z
	??4?$Transform@N$02$00$0A@@Eigen@@QEAAAEAV01@AEBV?$Translation@N$02@1@@Z
	??4?$basic_string@DU?$char_traits@D@std@@V?$allocator@D@2@@std@@QEAAAEAV01@$$QEAV01@@Z
	??4?$basic_string@DU?$char_traits@D@std@@V?$allocator@D@2@@std@@QEAAAEAV01@AEBV01@@Z
	??4?$basic_string@DU?$char_traits@D@std@@V?$allocator@D@2@@std@@QEAAAEAV01@QEBD@Z
	??4?$function@$$A6AXAEBVSingleSubscriberPublisher@ros@@@Z@boost@@QEAAAEAV01@AEBV01@@Z
	??4?$refcount_ptr@Uerror_info_container@exception_detail@boost@@@exception_detail@boost@@QEAAAEAV012@AEBV012@@Z
	??4?$shared_ptr@VRobotModel@core@moveit@@@std@@QEAAAEAV01@AEBV01@@Z
	??7?$shared_ptr@VImpl@Publisher@ros@@@boost@@QEBA_NXZ
	??8?$_Vector_const_iterator@V?$_Vector_val@U?$_Simple_types@U?$AttachedCollisionObject_@V?$allocator@X@std@@@moveit_msgs@@@std@@@std@@@std@@QEBA_NAEBV01@@Z
	??8?$_Vector_const_iterator@V?$_Vector_val@U?$_Simple_types@U?$ColorRGBA_@V?$allocator@X@std@@@std_msgs@@@std@@@std@@@std@@QEBA_NAEBV01@@Z
	??8?$_Vector_const_iterator@V?$_Vector_val@U?$_Simple_types@U?$JointTrajectoryPoint_@V?$allocator@X@std@@@trajectory_msgs@@@std@@@std@@@std@@QEBA_NAEBV01@@Z
	??8?$_Vector_const_iterator@V?$_Vector_val@U?$_Simple_types@U?$MeshTriangle_@V?$allocator@X@std@@@shape_msgs@@@std@@@std@@@std@@QEBA_NAEBV01@@Z
	??8?$_Vector_const_iterator@V?$_Vector_val@U?$_Simple_types@U?$Mesh_@V?$allocator@X@std@@@shape_msgs@@@std@@@std@@@std@@QEBA_NAEBV01@@Z
	??8?$_Vector_const_iterator@V?$_Vector_val@U?$_Simple_types@U?$ObjectColor_@V?$allocator@X@std@@@moveit_msgs@@@std@@@std@@@std@@QEBA_NAEBV01@@Z
	??8?$_Vector_const_iterator@V?$_Vector_val@U?$_Simple_types@U?$Plane_@V?$allocator@X@std@@@shape_msgs@@@std@@@std@@@std@@QEBA_NAEBV01@@Z
	??8?$_Vector_const_iterator@V?$_Vector_val@U?$_Simple_types@U?$Point_@V?$allocator@X@std@@@geometry_msgs@@@std@@@std@@@std@@QEBA_NAEBV01@@Z
	??8?$_Vector_const_iterator@V?$_Vector_val@U?$_Simple_types@U?$Pose_@V?$allocator@X@std@@@geometry_msgs@@@std@@@std@@@std@@QEBA_NAEBV01@@Z
	??8?$_Vector_const_iterator@V?$_Vector_val@U?$_Simple_types@U?$SolidPrimitive_@V?$allocator@X@std@@@shape_msgs@@@std@@@std@@@std@@QEBA_NAEBV01@@Z
	??8?$_Vector_const_iterator@V?$_Vector_val@U?$_Simple_types@U?$Transform_@V?$allocator@X@std@@@geometry_msgs@@@std@@@std@@@std@@QEBA_NAEBV01@@Z
	??8?$_Vector_const_iterator@V?$_Vector_val@U?$_Simple_types@U?$Twist_@V?$allocator@X@std@@@geometry_msgs@@@std@@@std@@@std@@QEBA_NAEBV01@@Z
	??8?$_Vector_const_iterator@V?$_Vector_val@U?$_Simple_types@U?$Wrench_@V?$allocator@X@std@@@geometry_msgs@@@std@@@std@@@std@@QEBA_NAEBV01@@Z
	??8?$_Vector_const_iterator@V?$_Vector_val@U?$_Simple_types@V?$basic_string@DU?$char_traits@D@std@@V?$allocator@D@2@@std@@@std@@@std@@@std@@QEBA_NAEBV01@@Z
	??8type_info@@QEBA_NAEBV0@@Z
	??9?$_Vector_const_iterator@V?$_Vector_val@U?$_Simple_types@U?$AttachedCollisionObject_@V?$allocator@X@std@@@moveit_msgs@@@std@@@std@@@std@@QEBA_NAEBV01@@Z
	??9?$_Vector_const_iterator@V?$_Vector_val@U?$_Simple_types@U?$ColorRGBA_@V?$allocator@X@std@@@std_msgs@@@std@@@std@@@std@@QEBA_NAEBV01@@Z
	??9?$_Vector_const_iterator@V?$_Vector_val@U?$_Simple_types@U?$JointTrajectoryPoint_@V?$allocator@X@std@@@trajectory_msgs@@@std@@@std@@@std@@QEBA_NAEBV01@@Z
	??9?$_Vector_const_iterator@V?$_Vector_val@U?$_Simple_types@U?$MeshTriangle_@V?$allocator@X@std@@@shape_msgs@@@std@@@std@@@std@@QEBA_NAEBV01@@Z
	??9?$_Vector_const_iterator@V?$_Vector_val@U?$_Simple_types@U?$Mesh_@V?$allocator@X@std@@@shape_msgs@@@std@@@std@@@std@@QEBA_NAEBV01@@Z
	??9?$_Vector_const_iterator@V?$_Vector_val@U?$_Simple_types@U?$ObjectColor_@V?$allocator@X@std@@@moveit_msgs@@@std@@@std@@@std@@QEBA_NAEBV01@@Z
	??9?$_Vector_const_iterator@V?$_Vector_val@U?$_Simple_types@U?$Plane_@V?$allocator@X@std@@@shape_msgs@@@std@@@std@@@std@@QEBA_NAEBV01@@Z
	??9?$_Vector_const_iterator@V?$_Vector_val@U?$_Simple_types@U?$Point_@V?$allocator@X@std@@@geometry_msgs@@@std@@@std@@@std@@QEBA_NAEBV01@@Z
	??9?$_Vector_const_iterator@V?$_Vector_val@U?$_Simple_types@U?$Pose_@V?$allocator@X@std@@@geometry_msgs@@@std@@@std@@@std@@QEBA_NAEBV01@@Z
	??9?$_Vector_const_iterator@V?$_Vector_val@U?$_Simple_types@U?$SolidPrimitive_@V?$allocator@X@std@@@shape_msgs@@@std@@@std@@@std@@QEBA_NAEBV01@@Z
	??9?$_Vector_const_iterator@V?$_Vector_val@U?$_Simple_types@U?$Transform_@V?$allocator@X@std@@@geometry_msgs@@@std@@@std@@@std@@QEBA_NAEBV01@@Z
	??9?$_Vector_const_iterator@V?$_Vector_val@U?$_Simple_types@U?$Twist_@V?$allocator@X@std@@@geometry_msgs@@@std@@@std@@@std@@QEBA_NAEBV01@@Z
	??9?$_Vector_const_iterator@V?$_Vector_val@U?$_Simple_types@U?$Wrench_@V?$allocator@X@std@@@geometry_msgs@@@std@@@std@@@std@@QEBA_NAEBV01@@Z
	??9?$_Vector_const_iterator@V?$_Vector_val@U?$_Simple_types@V?$basic_string@DU?$char_traits@D@std@@V?$allocator@D@2@@std@@@std@@@std@@@std@@QEBA_NAEBV01@@Z
	??A?$DenseCoeffsBase@V?$Block@$$CBV?$Matrix@N$03$03$0A@$03$03@Eigen@@$02$00$00@Eigen@@$0A@@Eigen@@QEBAN_J@Z
	??A?$DenseCoeffsBase@V?$Matrix@N$02$00$0A@$02$00@Eigen@@$00@Eigen@@QEAAAEAN_J@Z
	??A?$DenseCoeffsBase@V?$Matrix@N$02$00$0A@$02$00@Eigen@@$0A@@Eigen@@QEBAAEBN_J@Z
	??A?$rrlist1@AEBUTimerEvent@ros@@@_bi@boost@@QEBAAEBUTimerEvent@ros@@P6A?AU?$arg@$00@2@XZ@Z
	??A?$rrlist1@AEBV?$shared_ptr@$$CBU?$InteractiveMarkerFeedback_@V?$allocator@X@std@@@visualization_msgs@@@boost@@@_bi@boost@@QEBAAEBV?$shared_ptr@$$CBU?$InteractiveMarkerFeedback_@V?$allocator@X@std@@@visualization_msgs@@@2@P6A?AU?$arg@$00@2@XZ@Z
	??B?$fpos@U_Mbstatet@@@std@@QEBA_JXZ
	??B?$function1@XAEAVInteractiveRobot@@@boost@@QEBAP8dummy@01@EAAXXZXZ
	??B?$shared_ptr@VRobotModel@core@moveit@@@std@@QEBA_NXZ
	??B?$shared_ptr@VRobotState@core@moveit@@@std@@QEBA_NXZ
	??Bsentry@?$basic_ostream@DU?$char_traits@D@std@@@std@@QEBA_NXZ
	??C?$shared_ptr@$$CBU?$InteractiveMarkerFeedback_@V?$allocator@X@std@@@visualization_msgs@@@boost@@QEBAPEBU?$InteractiveMarkerFeedback_@V?$allocator@X@std@@@visualization_msgs@@XZ
	??C?$shared_ptr@VImpl@Publisher@ros@@@boost@@QEBAPEAVImpl@Publisher@ros@@XZ
	??D?$_Vector_const_iterator@V?$_Vector_val@U?$_Simple_types@U?$AttachedCollisionObject_@V?$allocator@X@std@@@moveit_msgs@@@std@@@std@@@std@@QEBAAEBU?$AttachedCollisionObject_@V?$allocator@X@std@@@moveit_msgs@@XZ
	??D?$_Vector_const_iterator@V?$_Vector_val@U?$_Simple_types@U?$ColorRGBA_@V?$allocator@X@std@@@std_msgs@@@std@@@std@@@std@@QEBAAEBU?$ColorRGBA_@V?$allocator@X@std@@@std_msgs@@XZ
	??D?$_Vector_const_iterator@V?$_Vector_val@U?$_Simple_types@U?$JointTrajectoryPoint_@V?$allocator@X@std@@@trajectory_msgs@@@std@@@std@@@std@@QEBAAEBU?$JointTrajectoryPoint_@V?$allocator@X@std@@@trajectory_msgs@@XZ
	??D?$_Vector_const_iterator@V?$_Vector_val@U?$_Simple_types@U?$MeshTriangle_@V?$allocator@X@std@@@shape_msgs@@@std@@@std@@@std@@QEBAAEBU?$MeshTriangle_@V?$allocator@X@std@@@shape_msgs@@XZ
	??D?$_Vector_const_iterator@V?$_Vector_val@U?$_Simple_types@U?$Mesh_@V?$allocator@X@std@@@shape_msgs@@@std@@@std@@@std@@QEBAAEBU?$Mesh_@V?$allocator@X@std@@@shape_msgs@@XZ
	??D?$_Vector_const_iterator@V?$_Vector_val@U?$_Simple_types@U?$ObjectColor_@V?$allocator@X@std@@@moveit_msgs@@@std@@@std@@@std@@QEBAAEBU?$ObjectColor_@V?$allocator@X@std@@@moveit_msgs@@XZ
	??D?$_Vector_const_iterator@V?$_Vector_val@U?$_Simple_types@U?$Plane_@V?$allocator@X@std@@@shape_msgs@@@std@@@std@@@std@@QEBAAEBU?$Plane_@V?$allocator@X@std@@@shape_msgs@@XZ
	??D?$_Vector_const_iterator@V?$_Vector_val@U?$_Simple_types@U?$Point_@V?$allocator@X@std@@@geometry_msgs@@@std@@@std@@@std@@QEBAAEBU?$Point_@V?$allocator@X@std@@@geometry_msgs@@XZ
	??D?$_Vector_const_iterator@V?$_Vector_val@U?$_Simple_types@U?$Pose_@V?$allocator@X@std@@@geometry_msgs@@@std@@@std@@@std@@QEBAAEBU?$Pose_@V?$allocator@X@std@@@geometry_msgs@@XZ
	??D?$_Vector_const_iterator@V?$_Vector_val@U?$_Simple_types@U?$SolidPrimitive_@V?$allocator@X@std@@@shape_msgs@@@std@@@std@@@std@@QEBAAEBU?$SolidPrimitive_@V?$allocator@X@std@@@shape_msgs@@XZ
	??D?$_Vector_const_iterator@V?$_Vector_val@U?$_Simple_types@U?$Transform_@V?$allocator@X@std@@@geometry_msgs@@@std@@@std@@@std@@QEBAAEBU?$Transform_@V?$allocator@X@std@@@geometry_msgs@@XZ
	??D?$_Vector_const_iterator@V?$_Vector_val@U?$_Simple_types@U?$Twist_@V?$allocator@X@std@@@geometry_msgs@@@std@@@std@@@std@@QEBAAEBU?$Twist_@V?$allocator@X@std@@@geometry_msgs@@XZ
	??D?$_Vector_const_iterator@V?$_Vector_val@U?$_Simple_types@U?$Wrench_@V?$allocator@X@std@@@geometry_msgs@@@std@@@std@@@std@@QEBAAEBU?$Wrench_@V?$allocator@X@std@@@geometry_msgs@@XZ
	??D?$_Vector_const_iterator@V?$_Vector_val@U?$_Simple_types@V?$basic_string@DU?$char_traits@D@std@@V?$allocator@D@2@@std@@@std@@@std@@@std@@QEBAAEBV?$basic_string@DU?$char_traits@D@std@@V?$allocator@D@2@@1@XZ
	??E?$_Vector_const_iterator@V?$_Vector_val@U?$_Simple_types@U?$AttachedCollisionObject_@V?$allocator@X@std@@@moveit_msgs@@@std@@@std@@@std@@QEAAAEAV01@XZ
	??E?$_Vector_const_iterator@V?$_Vector_val@U?$_Simple_types@U?$ColorRGBA_@V?$allocator@X@std@@@std_msgs@@@std@@@std@@@std@@QEAAAEAV01@XZ
	??E?$_Vector_const_iterator@V?$_Vector_val@U?$_Simple_types@U?$JointTrajectoryPoint_@V?$allocator@X@std@@@trajectory_msgs@@@std@@@std@@@std@@QEAAAEAV01@XZ
	??E?$_Vector_const_iterator@V?$_Vector_val@U?$_Simple_types@U?$MeshTriangle_@V?$allocator@X@std@@@shape_msgs@@@std@@@std@@@std@@QEAAAEAV01@XZ
	??E?$_Vector_const_iterator@V?$_Vector_val@U?$_Simple_types@U?$Mesh_@V?$allocator@X@std@@@shape_msgs@@@std@@@std@@@std@@QEAAAEAV01@XZ
	??E?$_Vector_const_iterator@V?$_Vector_val@U?$_Simple_types@U?$ObjectColor_@V?$allocator@X@std@@@moveit_msgs@@@std@@@std@@@std@@QEAAAEAV01@XZ
	??E?$_Vector_const_iterator@V?$_Vector_val@U?$_Simple_types@U?$Plane_@V?$allocator@X@std@@@shape_msgs@@@std@@@std@@@std@@QEAAAEAV01@XZ
	??E?$_Vector_const_iterator@V?$_Vector_val@U?$_Simple_types@U?$Point_@V?$allocator@X@std@@@geometry_msgs@@@std@@@std@@@std@@QEAAAEAV01@XZ
	??E?$_Vector_const_iterator@V?$_Vector_val@U?$_Simple_types@U?$Pose_@V?$allocator@X@std@@@geometry_msgs@@@std@@@std@@@std@@QEAAAEAV01@XZ
	??E?$_Vector_const_iterator@V?$_Vector_val@U?$_Simple_types@U?$SolidPrimitive_@V?$allocator@X@std@@@shape_msgs@@@std@@@std@@@std@@QEAAAEAV01@XZ
	??E?$_Vector_const_iterator@V?$_Vector_val@U?$_Simple_types@U?$Transform_@V?$allocator@X@std@@@geometry_msgs@@@std@@@std@@@std@@QEAAAEAV01@XZ
	??E?$_Vector_const_iterator@V?$_Vector_val@U?$_Simple_types@U?$Twist_@V?$allocator@X@std@@@geometry_msgs@@@std@@@std@@@std@@QEAAAEAV01@XZ
	??E?$_Vector_const_iterator@V?$_Vector_val@U?$_Simple_types@U?$Wrench_@V?$allocator@X@std@@@geometry_msgs@@@std@@@std@@@std@@QEAAAEAV01@XZ
	??E?$_Vector_const_iterator@V?$_Vector_val@U?$_Simple_types@V?$basic_string@DU?$char_traits@D@std@@V?$allocator@D@2@@std@@@std@@@std@@@std@@QEAAAEAV01@XZ
	??R<lambda_138c3d7c38c85abb84c7fc7bfe5747b7>@@QEBAXQEAD_KD@Z
	??R<lambda_66f57f934f28d61049862f64df852ff0>@@QEBAXQEAD_KQEBD@Z
	??R?$bind_t@VSerializedMessage@ros@@P6A?AV12@AEBU?$DisplayRobotState_@V?$allocator@X@std@@@moveit_msgs@@@ZV?$list1@V?$reference_wrapper@$$CBU?$DisplayRobotState_@V?$allocator@X@std@@@moveit_msgs@@@boost@@@_bi@boost@@@_bi@boost@@QEAA?AVSerializedMessage@ros@@XZ
	??R?$bind_t@VSerializedMessage@ros@@P6A?AV12@AEBU?$Marker_@V?$allocator@X@std@@@visualization_msgs@@@ZV?$list1@V?$reference_wrapper@$$CBU?$Marker_@V?$allocator@X@std@@@visualization_msgs@@@boost@@@_bi@boost@@@_bi@boost@@QEAA?AVSerializedMessage@ros@@XZ
	??R?$checked_array_deleter@E@boost@@QEBAXPEAE@Z
	??R?$function1@XAEAVInteractiveRobot@@@boost@@QEBAXAEAVInteractiveRobot@@@Z
	??R?$mf1@XVInteractiveRobot@@AEBUTimerEvent@ros@@@_mfi@boost@@QEBAXPEAVInteractiveRobot@@AEBUTimerEvent@ros@@@Z
	??R?$scalar_constant_op@N@internal@Eigen@@QEBA?BNXZ
	??R?$scalar_product_op@NN@internal@Eigen@@QEBA?BNAEBN0@Z
	??R?$scalar_sum_op@NN@internal@Eigen@@QEBA?BNAEBN0@Z
	??_D?$basic_stringstream@DU?$char_traits@D@std@@V?$allocator@D@2@@std@@QEAAXXZ
	??_D?$clone_impl@U?$error_info_injector@Vbad_function_call@boost@@@exception_detail@boost@@@exception_detail@boost@@QEAAXXZ
	?Constant@?$DenseBase@V?$Block@V?$Matrix@N$03$03$0A@$03$03@Eigen@@$00$02$0A@@Eigen@@@Eigen@@SA?BV?$CwiseNullaryOp@U?$scalar_constant_op@N@internal@Eigen@@V?$Matrix@N$00$02$00$00$02@3@@2@_J0AEBN@Z
	?Constant@?$DenseBase@V?$Block@V?$Matrix@N$03$03$0A@$03$03@Eigen@@$02$00$00@Eigen@@@Eigen@@SA?BV?$CwiseNullaryOp@U?$scalar_constant_op@N@internal@Eigen@@V?$Matrix@N$02$00$0A@$02$00@3@@2@_J0AEBN@Z
	?Identity@?$MatrixBase@V?$Block@V?$Matrix@N$03$03$0A@$03$03@Eigen@@$02$02$0A@@Eigen@@@Eigen@@SA?BV?$CwiseNullaryOp@U?$scalar_identity_op@N@internal@Eigen@@V?$Matrix@N$02$02$0A@$02$02@3@@2@_J0@Z
	?PoseString@@YA?AV?$basic_string@DU?$char_traits@D@std@@V?$allocator@D@2@@std@@AEBU?$Pose_@V?$allocator@X@std@@@geometry_msgs@@@Z
	?PoseString@@YA?AV?$basic_string@DU?$char_traits@D@std@@V?$allocator@D@2@@std@@AEBV?$Transform@N$02$00$0A@@Eigen@@@Z
	?_Adjust_manually_vector_aligned@std@@YAXAEAPEAXAEA_K@Z
	?_Adopt@_Iterator_base0@std@@QEAAXPEBX@Z
	?_Alloc_proxy@_Container_base0@std@@QEAAXAEBU_Fake_allocator@2@@Z
	?_Alloc_sentinel_and_proxy@?$_Tree@V?$_Tmap_traits@V?$basic_string@DU?$char_traits@D@std@@V?$allocator@D@2@@std@@V12@U?$less@V?$basic_string@DU?$char_traits@D@std@@V?$allocator@D@2@@std@@@2@V?$allocator@U?$pair@$$CBV?$basic_string@DU?$char_traits@D@std@@V?$allocator@D@2@@std@@V12@@std@@@2@$0A@@std@@@std@@IEAAXXZ
	?_Allocate@_Default_allocate_traits@std@@SAPEAX_K@Z
	?_Buy_raw@?$vector@U?$ColorRGBA_@V?$allocator@X@std@@@std_msgs@@V?$allocator@U?$ColorRGBA_@V?$allocator@X@std@@@std_msgs@@@std@@@std@@AEAAX_K@Z
	?_Buy_raw@?$vector@U?$Marker_@V?$allocator@X@std@@@visualization_msgs@@V?$allocator@U?$Marker_@V?$allocator@X@std@@@visualization_msgs@@@std@@@std@@AEAAX_K@Z
	?_Buy_raw@?$vector@U?$Point_@V?$allocator@X@std@@@geometry_msgs@@V?$allocator@U?$Point_@V?$allocator@X@std@@@geometry_msgs@@@std@@@std@@AEAAX_K@Z
	?_Calculate_growth@?$basic_string@DU?$char_traits@D@std@@V?$allocator@D@2@@std@@AEBA_K_K@Z
	?_Calculate_growth@?$basic_string@DU?$char_traits@D@std@@V?$allocator@D@2@@std@@CA_K_K00@Z
	?_Calculate_growth@?$vector@U?$InteractiveMarkerControl_@V?$allocator@X@std@@@visualization_msgs@@V?$allocator@U?$InteractiveMarkerControl_@V?$allocator@X@std@@@visualization_msgs@@@std@@@std@@AEBA_K_K@Z
	?_Calculate_growth@?$vector@U?$Marker_@V?$allocator@X@std@@@visualization_msgs@@V?$allocator@U?$Marker_@V?$allocator@X@std@@@visualization_msgs@@@std@@@std@@AEBA_K_K@Z
	?_Change_array@?$vector@U?$InteractiveMarkerControl_@V?$allocator@X@std@@@visualization_msgs@@V?$allocator@U?$InteractiveMarkerControl_@V?$allocator@X@std@@@visualization_msgs@@@std@@@std@@AEAAXQEAU?$InteractiveMarkerControl_@V?$allocator@X@std@@@visualization_msgs@@_K1@Z
	?_Change_array@?$vector@U?$Marker_@V?$allocator@X@std@@@visualization_msgs@@V?$allocator@U?$Marker_@V?$allocator@X@std@@@visualization_msgs@@@std@@@std@@AEAAXQEAU?$Marker_@V?$allocator@X@std@@@visualization_msgs@@_K1@Z
	?_Check_memory_order@std@@YAXW4memory_order@1@@Z
	?_Compat@?$_Vector_const_iterator@V?$_Vector_val@U?$_Simple_types@U?$AttachedCollisionObject_@V?$allocator@X@std@@@moveit_msgs@@@std@@@std@@@std@@QEBAXAEBV12@@Z
	?_Compat@?$_Vector_const_iterator@V?$_Vector_val@U?$_Simple_types@U?$ColorRGBA_@V?$allocator@X@std@@@std_msgs@@@std@@@std@@@std@@QEBAXAEBV12@@Z
	?_Compat@?$_Vector_const_iterator@V?$_Vector_val@U?$_Simple_types@U?$JointTrajectoryPoint_@V?$allocator@X@std@@@trajectory_msgs@@@std@@@std@@@std@@QEBAXAEBV12@@Z
	?_Compat@?$_Vector_const_iterator@V?$_Vector_val@U?$_Simple_types@U?$MeshTriangle_@V?$allocator@X@std@@@shape_msgs@@@std@@@std@@@std@@QEBAXAEBV12@@Z
	?_Compat@?$_Vector_const_iterator@V?$_Vector_val@U?$_Simple_types@U?$Mesh_@V?$allocator@X@std@@@shape_msgs@@@std@@@std@@@std@@QEBAXAEBV12@@Z
	?_Compat@?$_Vector_const_iterator@V?$_Vector_val@U?$_Simple_types@U?$ObjectColor_@V?$allocator@X@std@@@moveit_msgs@@@std@@@std@@@std@@QEBAXAEBV12@@Z
	?_Compat@?$_Vector_const_iterator@V?$_Vector_val@U?$_Simple_types@U?$Plane_@V?$allocator@X@std@@@shape_msgs@@@std@@@std@@@std@@QEBAXAEBV12@@Z
	?_Compat@?$_Vector_const_iterator@V?$_Vector_val@U?$_Simple_types@U?$Point_@V?$allocator@X@std@@@geometry_msgs@@@std@@@std@@@std@@QEBAXAEBV12@@Z
	?_Compat@?$_Vector_const_iterator@V?$_Vector_val@U?$_Simple_types@U?$Pose_@V?$allocator@X@std@@@geometry_msgs@@@std@@@std@@@std@@QEBAXAEBV12@@Z
	?_Compat@?$_Vector_const_iterator@V?$_Vector_val@U?$_Simple_types@U?$SolidPrimitive_@V?$allocator@X@std@@@shape_msgs@@@std@@@std@@@std@@QEBAXAEBV12@@Z
	?_Compat@?$_Vector_const_iterator@V?$_Vector_val@U?$_Simple_types@U?$Transform_@V?$allocator@X@std@@@geometry_msgs@@@std@@@std@@@std@@QEBAXAEBV12@@Z
	?_Compat@?$_Vector_const_iterator@V?$_Vector_val@U?$_Simple_types@U?$Twist_@V?$allocator@X@std@@@geometry_msgs@@@std@@@std@@@std@@QEBAXAEBV12@@Z
	?_Compat@?$_Vector_const_iterator@V?$_Vector_val@U?$_Simple_types@U?$Wrench_@V?$allocator@X@std@@@geometry_msgs@@@std@@@std@@@std@@QEBAXAEBV12@@Z
	?_Compat@?$_Vector_const_iterator@V?$_Vector_val@U?$_Simple_types@V?$basic_string@DU?$char_traits@D@std@@V?$allocator@D@2@@std@@@std@@@std@@@std@@QEBAXAEBV12@@Z
	?_Construct_lv_contents@?$basic_string@DU?$char_traits@D@std@@V?$allocator@D@2@@std@@AEAAXAEBV12@@Z
	?_Copy_assign@?$basic_string@DU?$char_traits@D@std@@V?$allocator@D@2@@std@@AEAAXAEBV12@U?$integral_constant@_N$0A@@2@@Z
	?_Decref@?$_Ptr_base@$$CBVRobotModel@core@moveit@@@std@@IEAAXXZ
	?_Decref@?$_Ptr_base@VRobotModel@core@moveit@@@std@@IEAAXXZ
	?_Decref@?$_Ptr_base@VRobotState@core@moveit@@@std@@IEAAXXZ
	?_Decref@_Ref_count_base@std@@QEAAXXZ
	?_Decwref@_Ref_count_base@std@@QEAAXXZ
	?_Delete_this@?$_Ref_count@VRobotState@core@moveit@@@std@@EEAAXXZ
	?_Destroy@?$_Ref_count@VRobotState@core@moveit@@@std@@EEAAXXZ
	?_Destroy@?$vector@NV?$allocator@N@std@@@std@@AEAAXPEAN0@Z
	?_Destroy@?$vector@U?$AttachedCollisionObject_@V?$allocator@X@std@@@moveit_msgs@@V?$allocator@U?$AttachedCollisionObject_@V?$allocator@X@std@@@moveit_msgs@@@std@@@std@@AEAAXPEAU?$AttachedCollisionObject_@V?$allocator@X@std@@@moveit_msgs@@0@Z
	?_Destroy@?$vector@U?$ColorRGBA_@V?$allocator@X@std@@@std_msgs@@V?$allocator@U?$ColorRGBA_@V?$allocator@X@std@@@std_msgs@@@std@@@std@@AEAAXPEAU?$ColorRGBA_@V?$allocator@X@std@@@std_msgs@@0@Z
	?_Destroy@?$vector@U?$InteractiveMarkerControl_@V?$allocator@X@std@@@visualization_msgs@@V?$allocator@U?$InteractiveMarkerControl_@V?$allocator@X@std@@@visualization_msgs@@@std@@@std@@AEAAXPEAU?$InteractiveMarkerControl_@V?$allocator@X@std@@@visualization_msgs@@0@Z
	?_Destroy@?$vector@U?$JointTrajectoryPoint_@V?$allocator@X@std@@@trajectory_msgs@@V?$allocator@U?$JointTrajectoryPoint_@V?$allocator@X@std@@@trajectory_msgs@@@std@@@std@@AEAAXPEAU?$JointTrajectoryPoint_@V?$allocator@X@std@@@trajectory_msgs@@0@Z
	?_Destroy@?$vector@U?$Marker_@V?$allocator@X@std@@@visualization_msgs@@V?$allocator@U?$Marker_@V?$allocator@X@std@@@visualization_msgs@@@std@@@std@@AEAAXPEAU?$Marker_@V?$allocator@X@std@@@visualization_msgs@@0@Z
	?_Destroy@?$vector@U?$MenuEntry_@V?$allocator@X@std@@@visualization_msgs@@V?$allocator@U?$MenuEntry_@V?$allocator@X@std@@@visualization_msgs@@@std@@@std@@AEAAXPEAU?$MenuEntry_@V?$allocator@X@std@@@visualization_msgs@@0@Z
	?_Destroy@?$vector@U?$MeshTriangle_@V?$allocator@X@std@@@shape_msgs@@V?$allocator@U?$MeshTriangle_@V?$allocator@X@std@@@shape_msgs@@@std@@@std@@AEAAXPEAU?$MeshTriangle_@V?$allocator@X@std@@@shape_msgs@@0@Z
	?_Destroy@?$vector@U?$Mesh_@V?$allocator@X@std@@@shape_msgs@@V?$allocator@U?$Mesh_@V?$allocator@X@std@@@shape_msgs@@@std@@@std@@AEAAXPEAU?$Mesh_@V?$allocator@X@std@@@shape_msgs@@0@Z
	?_Destroy@?$vector@U?$ObjectColor_@V?$allocator@X@std@@@moveit_msgs@@V?$allocator@U?$ObjectColor_@V?$allocator@X@std@@@moveit_msgs@@@std@@@std@@AEAAXPEAU?$ObjectColor_@V?$allocator@X@std@@@moveit_msgs@@0@Z
	?_Destroy@?$vector@U?$Plane_@V?$allocator@X@std@@@shape_msgs@@V?$allocator@U?$Plane_@V?$allocator@X@std@@@shape_msgs@@@std@@@std@@AEAAXPEAU?$Plane_@V?$allocator@X@std@@@shape_msgs@@0@Z
	?_Destroy@?$vector@U?$Point_@V?$allocator@X@std@@@geometry_msgs@@V?$allocator@U?$Point_@V?$allocator@X@std@@@geometry_msgs@@@std@@@std@@AEAAXPEAU?$Point_@V?$allocator@X@std@@@geometry_msgs@@0@Z
	?_Destroy@?$vector@U?$Pose_@V?$allocator@X@std@@@geometry_msgs@@V?$allocator@U?$Pose_@V?$allocator@X@std@@@geometry_msgs@@@std@@@std@@AEAAXPEAU?$Pose_@V?$allocator@X@std@@@geometry_msgs@@0@Z
	?_Destroy@?$vector@U?$SolidPrimitive_@V?$allocator@X@std@@@shape_msgs@@V?$allocator@U?$SolidPrimitive_@V?$allocator@X@std@@@shape_msgs@@@std@@@std@@AEAAXPEAU?$SolidPrimitive_@V?$allocator@X@std@@@shape_msgs@@0@Z
	?_Destroy@?$vector@U?$Transform_@V?$allocator@X@std@@@geometry_msgs@@V?$allocator@U?$Transform_@V?$allocator@X@std@@@geometry_msgs@@@std@@@std@@AEAAXPEAU?$Transform_@V?$allocator@X@std@@@geometry_msgs@@0@Z
	?_Destroy@?$vector@U?$Twist_@V?$allocator@X@std@@@geometry_msgs@@V?$allocator@U?$Twist_@V?$allocator@X@std@@@geometry_msgs@@@std@@@std@@AEAAXPEAU?$Twist_@V?$allocator@X@std@@@geometry_msgs@@0@Z
	?_Destroy@?$vector@U?$Wrench_@V?$allocator@X@std@@@geometry_msgs@@V?$allocator@U?$Wrench_@V?$allocator@X@std@@@geometry_msgs@@@std@@@std@@AEAAXPEAU?$Wrench_@V?$allocator@X@std@@@geometry_msgs@@0@Z
	?_Destroy@?$vector@V?$basic_string@DU?$char_traits@D@std@@V?$allocator@D@2@@std@@V?$allocator@V?$basic_string@DU?$char_traits@D@std@@V?$allocator@D@2@@std@@@2@@std@@AEAAXPEAV?$basic_string@DU?$char_traits@D@std@@V?$allocator@D@2@@2@0@Z
	?_Get_deleter@_Ref_count_base@std@@UEBAPEAXAEBVtype_info@@@Z
	?_Get_first@?$_Compressed_pair@V?$allocator@D@std@@V?$_String_val@U?$_Simple_types@D@std@@@2@$00@std@@QEAAAEAV?$allocator@D@2@XZ
	?_Get_first@?$_Compressed_pair@V?$allocator@D@std@@V?$_String_val@U?$_Simple_types@D@std@@@2@$00@std@@QEBAAEBV?$allocator@D@2@XZ
	?_Get_first@?$_Compressed_pair@V?$allocator@N@std@@V?$_Vector_val@U?$_Simple_types@N@std@@@2@$00@std@@QEAAAEAV?$allocator@N@2@XZ
	?_Get_first@?$_Compressed_pair@V?$allocator@U?$AttachedCollisionObject_@V?$allocator@X@std@@@moveit_msgs@@@std@@V?$_Vector_val@U?$_Simple_types@U?$AttachedCollisionObject_@V?$allocator@X@std@@@moveit_msgs@@@std@@@2@$00@std@@QEAAAEAV?$allocator@U?$AttachedCollisionObject_@V?$allocator@X@std@@@moveit_msgs@@@2@XZ
	?_Get_first@?$_Compressed_pair@V?$allocator@U?$ColorRGBA_@V?$allocator@X@std@@@std_msgs@@@std@@V?$_Vector_val@U?$_Simple_types@U?$ColorRGBA_@V?$allocator@X@std@@@std_msgs@@@std@@@2@$00@std@@QEAAAEAV?$allocator@U?$ColorRGBA_@V?$allocator@X@std@@@std_msgs@@@2@XZ
	?_Get_first@?$_Compressed_pair@V?$allocator@U?$ColorRGBA_@V?$allocator@X@std@@@std_msgs@@@std@@V?$_Vector_val@U?$_Simple_types@U?$ColorRGBA_@V?$allocator@X@std@@@std_msgs@@@std@@@2@$00@std@@QEBAAEBV?$allocator@U?$ColorRGBA_@V?$allocator@X@std@@@std_msgs@@@2@XZ
	?_Get_first@?$_Compressed_pair@V?$allocator@U?$InteractiveMarkerControl_@V?$allocator@X@std@@@visualization_msgs@@@std@@V?$_Vector_val@U?$_Simple_types@U?$InteractiveMarkerControl_@V?$allocator@X@std@@@visualization_msgs@@@std@@@2@$00@std@@QEAAAEAV?$allocator@U?$InteractiveMarkerControl_@V?$allocator@X@std@@@visualization_msgs@@@2@XZ
	?_Get_first@?$_Compressed_pair@V?$allocator@U?$InteractiveMarkerControl_@V?$allocator@X@std@@@visualization_msgs@@@std@@V?$_Vector_val@U?$_Simple_types@U?$InteractiveMarkerControl_@V?$allocator@X@std@@@visualization_msgs@@@std@@@2@$00@std@@QEBAAEBV?$allocator@U?$InteractiveMarkerControl_@V?$allocator@X@std@@@visualization_msgs@@@2@XZ
	?_Get_first@?$_Compressed_pair@V?$allocator@U?$JointTrajectoryPoint_@V?$allocator@X@std@@@trajectory_msgs@@@std@@V?$_Vector_val@U?$_Simple_types@U?$JointTrajectoryPoint_@V?$allocator@X@std@@@trajectory_msgs@@@std@@@2@$00@std@@QEAAAEAV?$allocator@U?$JointTrajectoryPoint_@V?$allocator@X@std@@@trajectory_msgs@@@2@XZ
	?_Get_first@?$_Compressed_pair@V?$allocator@U?$Marker_@V?$allocator@X@std@@@visualization_msgs@@@std@@V?$_Vector_val@U?$_Simple_types@U?$Marker_@V?$allocator@X@std@@@visualization_msgs@@@std@@@2@$00@std@@QEAAAEAV?$allocator@U?$Marker_@V?$allocator@X@std@@@visualization_msgs@@@2@XZ
	?_Get_first@?$_Compressed_pair@V?$allocator@U?$Marker_@V?$allocator@X@std@@@visualization_msgs@@@std@@V?$_Vector_val@U?$_Simple_types@U?$Marker_@V?$allocator@X@std@@@visualization_msgs@@@std@@@2@$00@std@@QEBAAEBV?$allocator@U?$Marker_@V?$allocator@X@std@@@visualization_msgs@@@2@XZ
	?_Get_first@?$_Compressed_pair@V?$allocator@U?$MenuEntry_@V?$allocator@X@std@@@visualization_msgs@@@std@@V?$_Vector_val@U?$_Simple_types@U?$MenuEntry_@V?$allocator@X@std@@@visualization_msgs@@@std@@@2@$00@std@@QEAAAEAV?$allocator@U?$MenuEntry_@V?$allocator@X@std@@@visualization_msgs@@@2@XZ
	?_Get_first@?$_Compressed_pair@V?$allocator@U?$MeshTriangle_@V?$allocator@X@std@@@shape_msgs@@@std@@V?$_Vector_val@U?$_Simple_types@U?$MeshTriangle_@V?$allocator@X@std@@@shape_msgs@@@std@@@2@$00@std@@QEAAAEAV?$allocator@U?$MeshTriangle_@V?$allocator@X@std@@@shape_msgs@@@2@XZ
	?_Get_first@?$_Compressed_pair@V?$allocator@U?$Mesh_@V?$allocator@X@std@@@shape_msgs@@@std@@V?$_Vector_val@U?$_Simple_types@U?$Mesh_@V?$allocator@X@std@@@shape_msgs@@@std@@@2@$00@std@@QEAAAEAV?$allocator@U?$Mesh_@V?$allocator@X@std@@@shape_msgs@@@2@XZ
	?_Get_first@?$_Compressed_pair@V?$allocator@U?$ObjectColor_@V?$allocator@X@std@@@moveit_msgs@@@std@@V?$_Vector_val@U?$_Simple_types@U?$ObjectColor_@V?$allocator@X@std@@@moveit_msgs@@@std@@@2@$00@std@@QEAAAEAV?$allocator@U?$ObjectColor_@V?$allocator@X@std@@@moveit_msgs@@@2@XZ
	?_Get_first@?$_Compressed_pair@V?$allocator@U?$Plane_@V?$allocator@X@std@@@shape_msgs@@@std@@V?$_Vector_val@U?$_Simple_types@U?$Plane_@V?$allocator@X@std@@@shape_msgs@@@std@@@2@$00@std@@QEAAAEAV?$allocator@U?$Plane_@V?$allocator@X@std@@@shape_msgs@@@2@XZ
	?_Get_first@?$_Compressed_pair@V?$allocator@U?$Point_@V?$allocator@X@std@@@geometry_msgs@@@std@@V?$_Vector_val@U?$_Simple_types@U?$Point_@V?$allocator@X@std@@@geometry_msgs@@@std@@@2@$00@std@@QEAAAEAV?$allocator@U?$Point_@V?$allocator@X@std@@@geometry_msgs@@@2@XZ
	?_Get_first@?$_Compressed_pair@V?$allocator@U?$Point_@V?$allocator@X@std@@@geometry_msgs@@@std@@V?$_Vector_val@U?$_Simple_types@U?$Point_@V?$allocator@X@std@@@geometry_msgs@@@std@@@2@$00@std@@QEBAAEBV?$allocator@U?$Point_@V?$allocator@X@std@@@geometry_msgs@@@2@XZ
	?_Get_first@?$_Compressed_pair@V?$allocator@U?$Pose_@V?$allocator@X@std@@@geometry_msgs@@@std@@V?$_Vector_val@U?$_Simple_types@U?$Pose_@V?$allocator@X@std@@@geometry_msgs@@@std@@@2@$00@std@@QEAAAEAV?$allocator@U?$Pose_@V?$allocator@X@std@@@geometry_msgs@@@2@XZ
	?_Get_first@?$_Compressed_pair@V?$allocator@U?$SolidPrimitive_@V?$allocator@X@std@@@shape_msgs@@@std@@V?$_Vector_val@U?$_Simple_types@U?$SolidPrimitive_@V?$allocator@X@std@@@shape_msgs@@@std@@@2@$00@std@@QEAAAEAV?$allocator@U?$SolidPrimitive_@V?$allocator@X@std@@@shape_msgs@@@2@XZ
	?_Get_first@?$_Compressed_pair@V?$allocator@U?$Transform_@V?$allocator@X@std@@@geometry_msgs@@@std@@V?$_Vector_val@U?$_Simple_types@U?$Transform_@V?$allocator@X@std@@@geometry_msgs@@@std@@@2@$00@std@@QEAAAEAV?$allocator@U?$Transform_@V?$allocator@X@std@@@geometry_msgs@@@2@XZ
	?_Get_first@?$_Compressed_pair@V?$allocator@U?$Twist_@V?$allocator@X@std@@@geometry_msgs@@@std@@V?$_Vector_val@U?$_Simple_types@U?$Twist_@V?$allocator@X@std@@@geometry_msgs@@@std@@@2@$00@std@@QEAAAEAV?$allocator@U?$Twist_@V?$allocator@X@std@@@geometry_msgs@@@2@XZ
	?_Get_first@?$_Compressed_pair@V?$allocator@U?$Wrench_@V?$allocator@X@std@@@geometry_msgs@@@std@@V?$_Vector_val@U?$_Simple_types@U?$Wrench_@V?$allocator@X@std@@@geometry_msgs@@@std@@@2@$00@std@@QEAAAEAV?$allocator@U?$Wrench_@V?$allocator@X@std@@@geometry_msgs@@@2@XZ
	?_Get_first@?$_Compressed_pair@V?$allocator@U?$_Tree_node@U?$pair@$$CBV?$basic_string@DU?$char_traits@D@std@@V?$allocator@D@2@@std@@V12@@std@@PEAX@std@@@std@@V?$_Tree_val@U?$_Tree_simple_types@U?$pair@$$CBV?$basic_string@DU?$char_traits@D@std@@V?$allocator@D@2@@std@@V12@@std@@@std@@@2@$00@std@@QEAAAEAV?$allocator@U?$_Tree_node@U?$pair@$$CBV?$basic_string@DU?$char_traits@D@std@@V?$allocator@D@2@@std@@V12@@std@@PEAX@std@@@2@XZ
	?_Get_first@?$_Compressed_pair@V?$allocator@V?$basic_string@DU?$char_traits@D@std@@V?$allocator@D@2@@std@@@std@@V?$_Vector_val@U?$_Simple_types@V?$basic_string@DU?$char_traits@D@std@@V?$allocator@D@2@@std@@@std@@@2@$00@std@@QEAAAEAV?$allocator@V?$basic_string@DU?$char_traits@D@std@@V?$allocator@D@2@@std@@@2@XZ
	?_Get_scary@?$_Tree@V?$_Tmap_traits@V?$basic_string@DU?$char_traits@D@std@@V?$allocator@D@2@@std@@V12@U?$less@V?$basic_string@DU?$char_traits@D@std@@V?$allocator@D@2@@std@@@2@V?$allocator@U?$pair@$$CBV?$basic_string@DU?$char_traits@D@std@@V?$allocator@D@2@@std@@V12@@std@@@2@$0A@@std@@@std@@IEAAPEAV?$_Tree_val@U?$_Tree_simple_types@U?$pair@$$CBV?$basic_string@DU?$char_traits@D@std@@V?$allocator@D@2@@std@@V12@@std@@@std@@@2@XZ
	?_Getal@?$_Tree@V?$_Tmap_traits@V?$basic_string@DU?$char_traits@D@std@@V?$allocator@D@2@@std@@V12@U?$less@V?$basic_string@DU?$char_traits@D@std@@V?$allocator@D@2@@std@@@2@V?$allocator@U?$pair@$$CBV?$basic_string@DU?$char_traits@D@std@@V?$allocator@D@2@@std@@V12@@std@@@2@$0A@@std@@@std@@IEAAAEAV?$allocator@U?$_Tree_node@U?$pair@$$CBV?$basic_string@DU?$char_traits@D@std@@V?$allocator@D@2@@std@@V12@@std@@PEAX@std@@@2@XZ
	?_Getal@?$basic_string@DU?$char_traits@D@std@@V?$allocator@D@2@@std@@AEAAAEAV?$allocator@D@2@XZ
	?_Getal@?$basic_string@DU?$char_traits@D@std@@V?$allocator@D@2@@std@@AEBAAEBV?$allocator@D@2@XZ
	?_Getal@?$vector@NV?$allocator@N@std@@@std@@AEAAAEAV?$allocator@N@2@XZ
	?_Getal@?$vector@U?$AttachedCollisionObject_@V?$allocator@X@std@@@moveit_msgs@@V?$allocator@U?$AttachedCollisionObject_@V?$allocator@X@std@@@moveit_msgs@@@std@@@std@@AEAAAEAV?$allocator@U?$AttachedCollisionObject_@V?$allocator@X@std@@@moveit_msgs@@@2@XZ
	?_Getal@?$vector@U?$ColorRGBA_@V?$allocator@X@std@@@std_msgs@@V?$allocator@U?$ColorRGBA_@V?$allocator@X@std@@@std_msgs@@@std@@@std@@AEAAAEAV?$allocator@U?$ColorRGBA_@V?$allocator@X@std@@@std_msgs@@@2@XZ
	?_Getal@?$vector@U?$ColorRGBA_@V?$allocator@X@std@@@std_msgs@@V?$allocator@U?$ColorRGBA_@V?$allocator@X@std@@@std_msgs@@@std@@@std@@AEBAAEBV?$allocator@U?$ColorRGBA_@V?$allocator@X@std@@@std_msgs@@@2@XZ
	?_Getal@?$vector@U?$InteractiveMarkerControl_@V?$allocator@X@std@@@visualization_msgs@@V?$allocator@U?$InteractiveMarkerControl_@V?$allocator@X@std@@@visualization_msgs@@@std@@@std@@AEAAAEAV?$allocator@U?$InteractiveMarkerControl_@V?$allocator@X@std@@@visualization_msgs@@@2@XZ
	?_Getal@?$vector@U?$InteractiveMarkerControl_@V?$allocator@X@std@@@visualization_msgs@@V?$allocator@U?$InteractiveMarkerControl_@V?$allocator@X@std@@@visualization_msgs@@@std@@@std@@AEBAAEBV?$allocator@U?$InteractiveMarkerControl_@V?$allocator@X@std@@@visualization_msgs@@@2@XZ
	?_Getal@?$vector@U?$JointTrajectoryPoint_@V?$allocator@X@std@@@trajectory_msgs@@V?$allocator@U?$JointTrajectoryPoint_@V?$allocator@X@std@@@trajectory_msgs@@@std@@@std@@AEAAAEAV?$allocator@U?$JointTrajectoryPoint_@V?$allocator@X@std@@@trajectory_msgs@@@2@XZ
	?_Getal@?$vector@U?$Marker_@V?$allocator@X@std@@@visualization_msgs@@V?$allocator@U?$Marker_@V?$allocator@X@std@@@visualization_msgs@@@std@@@std@@AEAAAEAV?$allocator@U?$Marker_@V?$allocator@X@std@@@visualization_msgs@@@2@XZ
	?_Getal@?$vector@U?$Marker_@V?$allocator@X@std@@@visualization_msgs@@V?$allocator@U?$Marker_@V?$allocator@X@std@@@visualization_msgs@@@std@@@std@@AEBAAEBV?$allocator@U?$Marker_@V?$allocator@X@std@@@visualization_msgs@@@2@XZ
	?_Getal@?$vector@U?$MenuEntry_@V?$allocator@X@std@@@visualization_msgs@@V?$allocator@U?$MenuEntry_@V?$allocator@X@std@@@visualization_msgs@@@std@@@std@@AEAAAEAV?$allocator@U?$MenuEntry_@V?$allocator@X@std@@@visualization_msgs@@@2@XZ
	?_Getal@?$vector@U?$MeshTriangle_@V?$allocator@X@std@@@shape_msgs@@V?$allocator@U?$MeshTriangle_@V?$allocator@X@std@@@shape_msgs@@@std@@@std@@AEAAAEAV?$allocator@U?$MeshTriangle_@V?$allocator@X@std@@@shape_msgs@@@2@XZ
	?_Getal@?$vector@U?$Mesh_@V?$allocator@X@std@@@shape_msgs@@V?$allocator@U?$Mesh_@V?$allocator@X@std@@@shape_msgs@@@std@@@std@@AEAAAEAV?$allocator@U?$Mesh_@V?$allocator@X@std@@@shape_msgs@@@2@XZ
	?_Getal@?$vector@U?$ObjectColor_@V?$allocator@X@std@@@moveit_msgs@@V?$allocator@U?$ObjectColor_@V?$allocator@X@std@@@moveit_msgs@@@std@@@std@@AEAAAEAV?$allocator@U?$ObjectColor_@V?$allocator@X@std@@@moveit_msgs@@@2@XZ
	?_Getal@?$vector@U?$Plane_@V?$allocator@X@std@@@shape_msgs@@V?$allocator@U?$Plane_@V?$allocator@X@std@@@shape_msgs@@@std@@@std@@AEAAAEAV?$allocator@U?$Plane_@V?$allocator@X@std@@@shape_msgs@@@2@XZ
	?_Getal@?$vector@U?$Point_@V?$allocator@X@std@@@geometry_msgs@@V?$allocator@U?$Point_@V?$allocator@X@std@@@geometry_msgs@@@std@@@std@@AEAAAEAV?$allocator@U?$Point_@V?$allocator@X@std@@@geometry_msgs@@@2@XZ
	?_Getal@?$vector@U?$Point_@V?$allocator@X@std@@@geometry_msgs@@V?$allocator@U?$Point_@V?$allocator@X@std@@@geometry_msgs@@@std@@@std@@AEBAAEBV?$allocator@U?$Point_@V?$allocator@X@std@@@geometry_msgs@@@2@XZ
	?_Getal@?$vector@U?$Pose_@V?$allocator@X@std@@@geometry_msgs@@V?$allocator@U?$Pose_@V?$allocator@X@std@@@geometry_msgs@@@std@@@std@@AEAAAEAV?$allocator@U?$Pose_@V?$allocator@X@std@@@geometry_msgs@@@2@XZ
	?_Getal@?$vector@U?$SolidPrimitive_@V?$allocator@X@std@@@shape_msgs@@V?$allocator@U?$SolidPrimitive_@V?$allocator@X@std@@@shape_msgs@@@std@@@std@@AEAAAEAV?$allocator@U?$SolidPrimitive_@V?$allocator@X@std@@@shape_msgs@@@2@XZ
	?_Getal@?$vector@U?$Transform_@V?$allocator@X@std@@@geometry_msgs@@V?$allocator@U?$Transform_@V?$allocator@X@std@@@geometry_msgs@@@std@@@std@@AEAAAEAV?$allocator@U?$Transform_@V?$allocator@X@std@@@geometry_msgs@@@2@XZ
	?_Getal@?$vector@U?$Twist_@V?$allocator@X@std@@@geometry_msgs@@V?$allocator@U?$Twist_@V?$allocator@X@std@@@geometry_msgs@@@std@@@std@@AEAAAEAV?$allocator@U?$Twist_@V?$allocator@X@std@@@geometry_msgs@@@2@XZ
	?_Getal@?$vector@U?$Wrench_@V?$allocator@X@std@@@geometry_msgs@@V?$allocator@U?$Wrench_@V?$allocator@X@std@@@geometry_msgs@@@std@@@std@@AEAAAEAV?$allocator@U?$Wrench_@V?$allocator@X@std@@@geometry_msgs@@@2@XZ
	?_Getal@?$vector@V?$basic_string@DU?$char_traits@D@std@@V?$allocator@D@2@@std@@V?$allocator@V?$basic_string@DU?$char_traits@D@std@@V?$allocator@D@2@@std@@@2@@std@@AEAAAEAV?$allocator@V?$basic_string@DU?$char_traits@D@std@@V?$allocator@D@2@@std@@@2@XZ
	?_Getstate@?$basic_stringbuf@DU?$char_traits@D@std@@V?$allocator@D@2@@std@@CAHH@Z
	?_Incref@?$_Ptr_base@VRobotModel@core@moveit@@@std@@IEBAXXZ
	?_Incref@_Ref_count_base@std@@QEAAXXZ
	?_Large_string_engaged@?$_String_val@U?$_Simple_types@D@std@@@std@@QEBA_NXZ
	?_Maklocwcs@std@@YAPEA_WPEB_W@Z
	?_Memcpy_val_from@?$basic_string@DU?$char_traits@D@std@@V?$allocator@D@2@@std@@AEAAXAEBV12@@Z
	?_Move_assign@?$basic_string@DU?$char_traits@D@std@@V?$allocator@D@2@@std@@AEAAXAEAV12@U_Equal_allocators@2@@Z
	?_Myptr@?$_String_val@U?$_Simple_types@D@std@@@std@@QEAAPEADXZ
	?_Myptr@?$_String_val@U?$_Simple_types@D@std@@@std@@QEBAPEBDXZ
	?_Negate@?$_Atomic_integral_facade@H@std@@SAHH@Z
	?_Orphan_all@_Container_base0@std@@QEAAXXZ
	?_Orphan_range@?$vector@U?$InteractiveMarkerControl_@V?$allocator@X@std@@@visualization_msgs@@V?$allocator@U?$InteractiveMarkerControl_@V?$allocator@X@std@@@visualization_msgs@@@std@@@std@@AEBAXPEAU?$InteractiveMarkerControl_@V?$allocator@X@std@@@visualization_msgs@@0@Z
	?_Orphan_range@?$vector@U?$Marker_@V?$allocator@X@std@@@visualization_msgs@@V?$allocator@U?$Marker_@V?$allocator@X@std@@@visualization_msgs@@@std@@@std@@AEBAXPEAU?$Marker_@V?$allocator@X@std@@@visualization_msgs@@0@Z
	?_Release@?$_Uninitialized_backout_al@V?$allocator@U?$ColorRGBA_@V?$allocator@X@std@@@std_msgs@@@std@@@std@@QEAAPEAU?$ColorRGBA_@V?$allocator@X@std@@@std_msgs@@XZ
	?_Release@?$_Uninitialized_backout_al@V?$allocator@U?$InteractiveMarkerControl_@V?$allocator@X@std@@@visualization_msgs@@@std@@@std@@QEAAPEAU?$InteractiveMarkerControl_@V?$allocator@X@std@@@visualization_msgs@@XZ
	?_Release@?$_Uninitialized_backout_al@V?$allocator@U?$Marker_@V?$allocator@X@std@@@visualization_msgs@@@std@@@std@@QEAAPEAU?$Marker_@V?$allocator@X@std@@@visualization_msgs@@XZ
	?_Release@?$_Uninitialized_backout_al@V?$allocator@U?$Point_@V?$allocator@X@std@@@geometry_msgs@@@std@@@std@@QEAAPEAU?$Point_@V?$allocator@X@std@@@geometry_msgs@@XZ
	?_Release@_Fake_proxy_ptr_impl@std@@QEAAXXZ
	?_Swap@?$_Ptr_base@VRobotModel@core@moveit@@@std@@IEAAXAEAV12@@Z
	?_Swap@?$_Ptr_base@VRobotState@core@moveit@@@std@@IEAAXAEAV12@@Z
	?_Swap_proxy_and_iterators@_Container_base0@std@@QEAAXAEAU12@@Z
	?_Take_contents@?$basic_string@DU?$char_traits@D@std@@V?$allocator@D@2@@std@@AEAAXAEAV12@U?$integral_constant@_N$00@2@@Z
	?_Throw_bad_array_new_length@std@@YAXXZ
	?_Tidy@?$basic_stringbuf@DU?$char_traits@D@std@@V?$allocator@D@2@@std@@IEAAXXZ
	?_Tidy@?$vector@NV?$allocator@N@std@@@std@@AEAAXXZ
	?_Tidy@?$vector@U?$AttachedCollisionObject_@V?$allocator@X@std@@@moveit_msgs@@V?$allocator@U?$AttachedCollisionObject_@V?$allocator@X@std@@@moveit_msgs@@@std@@@std@@AEAAXXZ
	?_Tidy@?$vector@U?$ColorRGBA_@V?$allocator@X@std@@@std_msgs@@V?$allocator@U?$ColorRGBA_@V?$allocator@X@std@@@std_msgs@@@std@@@std@@AEAAXXZ
	?_Tidy@?$vector@U?$InteractiveMarkerControl_@V?$allocator@X@std@@@visualization_msgs@@V?$allocator@U?$InteractiveMarkerControl_@V?$allocator@X@std@@@visualization_msgs@@@std@@@std@@AEAAXXZ
	?_Tidy@?$vector@U?$JointTrajectoryPoint_@V?$allocator@X@std@@@trajectory_msgs@@V?$allocator@U?$JointTrajectoryPoint_@V?$allocator@X@std@@@trajectory_msgs@@@std@@@std@@AEAAXXZ
	?_Tidy@?$vector@U?$Marker_@V?$allocator@X@std@@@visualization_msgs@@V?$allocator@U?$Marker_@V?$allocator@X@std@@@visualization_msgs@@@std@@@std@@AEAAXXZ
	?_Tidy@?$vector@U?$MenuEntry_@V?$allocator@X@std@@@visualization_msgs@@V?$allocator@U?$MenuEntry_@V?$allocator@X@std@@@visualization_msgs@@@std@@@std@@AEAAXXZ
	?_Tidy@?$vector@U?$MeshTriangle_@V?$allocator@X@std@@@shape_msgs@@V?$allocator@U?$MeshTriangle_@V?$allocator@X@std@@@shape_msgs@@@std@@@std@@AEAAXXZ
	?_Tidy@?$vector@U?$Mesh_@V?$allocator@X@std@@@shape_msgs@@V?$allocator@U?$Mesh_@V?$allocator@X@std@@@shape_msgs@@@std@@@std@@AEAAXXZ
	?_Tidy@?$vector@U?$ObjectColor_@V?$allocator@X@std@@@moveit_msgs@@V?$allocator@U?$ObjectColor_@V?$allocator@X@std@@@moveit_msgs@@@std@@@std@@AEAAXXZ
	?_Tidy@?$vector@U?$Plane_@V?$allocator@X@std@@@shape_msgs@@V?$allocator@U?$Plane_@V?$allocator@X@std@@@shape_msgs@@@std@@@std@@AEAAXXZ
	?_Tidy@?$vector@U?$Point_@V?$allocator@X@std@@@geometry_msgs@@V?$allocator@U?$Point_@V?$allocator@X@std@@@geometry_msgs@@@std@@@std@@AEAAXXZ
	?_Tidy@?$vector@U?$Pose_@V?$allocator@X@std@@@geometry_msgs@@V?$allocator@U?$Pose_@V?$allocator@X@std@@@geometry_msgs@@@std@@@std@@AEAAXXZ
	?_Tidy@?$vector@U?$SolidPrimitive_@V?$allocator@X@std@@@shape_msgs@@V?$allocator@U?$SolidPrimitive_@V?$allocator@X@std@@@shape_msgs@@@std@@@std@@AEAAXXZ
	?_Tidy@?$vector@U?$Transform_@V?$allocator@X@std@@@geometry_msgs@@V?$allocator@U?$Transform_@V?$allocator@X@std@@@geometry_msgs@@@std@@@std@@AEAAXXZ
	?_Tidy@?$vector@U?$Twist_@V?$allocator@X@std@@@geometry_msgs@@V?$allocator@U?$Twist_@V?$allocator@X@std@@@geometry_msgs@@@std@@@std@@AEAAXXZ
	?_Tidy@?$vector@U?$Wrench_@V?$allocator@X@std@@@geometry_msgs@@V?$allocator@U?$Wrench_@V?$allocator@X@std@@@geometry_msgs@@@std@@@std@@AEAAXXZ
	?_Tidy@?$vector@V?$basic_string@DU?$char_traits@D@std@@V?$allocator@D@2@@std@@V?$allocator@V?$basic_string@DU?$char_traits@D@std@@V?$allocator@D@2@@std@@@2@@std@@AEAAXXZ
	?_Tidy_deallocate@?$basic_string@DU?$char_traits@D@std@@V?$allocator@D@2@@std@@AEAAXXZ
	?_Tidy_init@?$basic_string@DU?$char_traits@D@std@@V?$allocator@D@2@@std@@AEAAXXZ
	?_Umove@?$vector@U?$InteractiveMarkerControl_@V?$allocator@X@std@@@visualization_msgs@@V?$allocator@U?$InteractiveMarkerControl_@V?$allocator@X@std@@@visualization_msgs@@@std@@@std@@AEAAPEAU?$InteractiveMarkerControl_@V?$allocator@X@std@@@visualization_msgs@@PEAU34@00@Z
	?_Umove@?$vector@U?$Marker_@V?$allocator@X@std@@@visualization_msgs@@V?$allocator@U?$Marker_@V?$allocator@X@std@@@visualization_msgs@@@std@@@std@@AEAAPEAU?$Marker_@V?$allocator@X@std@@@visualization_msgs@@PEAU34@00@Z
	?_Umove_if_noexcept1@?$vector@U?$InteractiveMarkerControl_@V?$allocator@X@std@@@visualization_msgs@@V?$allocator@U?$InteractiveMarkerControl_@V?$allocator@X@std@@@visualization_msgs@@@std@@@std@@AEAAXPEAU?$InteractiveMarkerControl_@V?$allocator@X@std@@@visualization_msgs@@00U?$integral_constant@_N$00@2@@Z
	?_Umove_if_noexcept1@?$vector@U?$Marker_@V?$allocator@X@std@@@visualization_msgs@@V?$allocator@U?$Marker_@V?$allocator@X@std@@@visualization_msgs@@@std@@@std@@AEAAXPEAU?$Marker_@V?$allocator@X@std@@@visualization_msgs@@00U?$integral_constant@_N$00@2@@Z
	?_Umove_if_noexcept@?$vector@U?$InteractiveMarkerControl_@V?$allocator@X@std@@@visualization_msgs@@V?$allocator@U?$InteractiveMarkerControl_@V?$allocator@X@std@@@visualization_msgs@@@std@@@std@@AEAAXPEAU?$InteractiveMarkerControl_@V?$allocator@X@std@@@visualization_msgs@@00@Z
	?_Umove_if_noexcept@?$vector@U?$Marker_@V?$allocator@X@std@@@visualization_msgs@@V?$allocator@U?$Marker_@V?$allocator@X@std@@@visualization_msgs@@@std@@@std@@AEAAXPEAU?$Marker_@V?$allocator@X@std@@@visualization_msgs@@00@Z
	?_Xlen_string@std@@YAXXZ
	?_Xlength@?$vector@U?$InteractiveMarkerControl_@V?$allocator@X@std@@@visualization_msgs@@V?$allocator@U?$InteractiveMarkerControl_@V?$allocator@X@std@@@visualization_msgs@@@std@@@std@@CAXXZ
	?_Xlength@?$vector@U?$Marker_@V?$allocator@X@std@@@visualization_msgs@@V?$allocator@U?$Marker_@V?$allocator@X@std@@@visualization_msgs@@@std@@@std@@CAXXZ
	?_check_template_params@?$PlainObjectBase@V?$Matrix@N$02$00$0A@$02$00@Eigen@@@Eigen@@SAXXZ
	?_check_template_params@?$PlainObjectBase@V?$Matrix@N$02$02$0A@$02$02@Eigen@@@Eigen@@SAXXZ
	?_check_template_params@?$PlainObjectBase@V?$Matrix@N$02$03$0A@$02$03@Eigen@@@Eigen@@SAXXZ
	?_check_template_params@?$PlainObjectBase@V?$Matrix@N$03$00$0A@$03$00@Eigen@@@Eigen@@SAXXZ
	?_check_template_params@?$PlainObjectBase@V?$Matrix@N$03$03$0A@$03$03@Eigen@@@Eigen@@SAXXZ
	?a2_@?$storage2@V?$value@PEAVInteractiveRobot@@@_bi@boost@@U?$arg@$00@3@@_bi@boost@@SA?AU?$arg@$00@3@XZ
	?add_ref@?$refcount_ptr@Uerror_info_container@exception_detail@boost@@@exception_detail@boost@@AEAAXXZ
	?adopt@?$refcount_ptr@Uerror_info_container@exception_detail@boost@@@exception_detail@boost@@QEAAXPEAUerror_info_container@23@@Z
	?affine@?$Transform@N$02$00$0A@@Eigen@@QEAA?AV?$Block@V?$Matrix@N$03$03$0A@$03$03@Eigen@@$02$03$0A@@2@XZ
	?allocate@?$allocator@D@std@@QEAAPEAD_K@Z
	?allocate@?$allocator@U?$ColorRGBA_@V?$allocator@X@std@@@std_msgs@@@std@@QEAAPEAU?$ColorRGBA_@V?$allocator@X@std@@@std_msgs@@_K@Z
	?allocate@?$allocator@U?$InteractiveMarkerControl_@V?$allocator@X@std@@@visualization_msgs@@@std@@QEAAPEAU?$InteractiveMarkerControl_@V?$allocator@X@std@@@visualization_msgs@@_K@Z
	?allocate@?$allocator@U?$Marker_@V?$allocator@X@std@@@visualization_msgs@@@std@@QEAAPEAU?$Marker_@V?$allocator@X@std@@@visualization_msgs@@_K@Z
	?allocate@?$allocator@U?$Point_@V?$allocator@X@std@@@geometry_msgs@@@std@@QEAAPEAU?$Point_@V?$allocator@X@std@@@geometry_msgs@@_K@Z
	?allocate@?$allocator@U?$_Tree_node@U?$pair@$$CBV?$basic_string@DU?$char_traits@D@std@@V?$allocator@D@2@@std@@V12@@std@@PEAX@std@@@std@@QEAAPEAU?$_Tree_node@U?$pair@$$CBV?$basic_string@DU?$char_traits@D@std@@V?$allocator@D@2@@std@@V12@@std@@PEAX@2@_K@Z
	?assign@?$_Narrow_char_traits@DH@std@@SAPEADQEAD_KD@Z
	?assign@?$_Narrow_char_traits@DH@std@@SAXAEADAEBD@Z
	?assign@?$basic_string@DU?$char_traits@D@std@@V?$allocator@D@2@@std@@QEAAAEAV12@QEBD@Z
	?assign@?$basic_string@DU?$char_traits@D@std@@V?$allocator@D@2@@std@@QEAAAEAV12@QEBD_K@Z
	?assign@?$basic_string@DU?$char_traits@D@std@@V?$allocator@D@2@@std@@QEAAAEAV12@_KD@Z
	?assignCoeff@?$add_assign_op@NN@internal@Eigen@@QEBAXAEANAEBN@Z
	?assignCoeff@?$assign_op@NN@internal@Eigen@@QEBAXAEANAEBN@Z
	?assignCoeff@?$generic_dense_assignment_kernel@U?$evaluator@V?$Block@V?$Matrix@N$03$03$0A@$03$03@Eigen@@$00$02$0A@@Eigen@@@internal@Eigen@@U?$evaluator@V?$CwiseNullaryOp@U?$scalar_constant_op@N@internal@Eigen@@V?$Matrix@N$00$02$00$00$02@3@@Eigen@@@23@U?$assign_op@NN@23@$0A@@internal@Eigen@@QEAAX_J@Z
	?assignCoeff@?$generic_dense_assignment_kernel@U?$evaluator@V?$Block@V?$Matrix@N$03$03$0A@$03$03@Eigen@@$02$00$00@Eigen@@@internal@Eigen@@U?$evaluator@V?$CwiseNullaryOp@U?$scalar_constant_op@N@internal@Eigen@@V?$Matrix@N$02$00$0A@$02$00@3@@Eigen@@@23@U?$assign_op@NN@23@$0A@@internal@Eigen@@QEAAX_J0@Z
	?assignCoeff@?$generic_dense_assignment_kernel@U?$evaluator@V?$Block@V?$Matrix@N$03$03$0A@$03$03@Eigen@@$02$00$00@Eigen@@@internal@Eigen@@U?$evaluator@V?$Matrix@N$02$00$0A@$02$00@Eigen@@@23@U?$add_assign_op@NN@23@$0A@@internal@Eigen@@QEAAX_J0@Z
	?assignCoeff@?$generic_dense_assignment_kernel@U?$evaluator@V?$Block@V?$Matrix@N$03$03$0A@$03$03@Eigen@@$02$00$00@Eigen@@@internal@Eigen@@U?$evaluator@V?$Matrix@N$02$00$0A@$02$00@Eigen@@@23@U?$assign_op@NN@23@$0A@@internal@Eigen@@QEAAX_J0@Z
	?assignCoeff@?$generic_dense_assignment_kernel@U?$evaluator@V?$Block@V?$Matrix@N$03$03$0A@$03$03@Eigen@@$02$02$0A@@Eigen@@@internal@Eigen@@U?$evaluator@V?$CwiseNullaryOp@U?$scalar_identity_op@N@internal@Eigen@@V?$Matrix@N$02$02$0A@$02$02@3@@Eigen@@@23@U?$assign_op@NN@23@$0A@@internal@Eigen@@QEAAX_J0@Z
	?assignCoeff@?$generic_dense_assignment_kernel@U?$evaluator@V?$Block@V?$Matrix@N$03$03$0A@$03$03@Eigen@@$02$02$0A@@Eigen@@@internal@Eigen@@U?$evaluator@V?$Matrix@N$02$02$0A@$02$02@Eigen@@@23@U?$assign_op@NN@23@$0A@@internal@Eigen@@QEAAX_J0@Z
	?assignCoeff@?$generic_dense_assignment_kernel@U?$evaluator@V?$Block@V?$Matrix@N$03$03$0A@$03$03@Eigen@@$02$03$0A@@Eigen@@@internal@Eigen@@U?$evaluator@V?$Matrix@N$02$03$0A@$02$03@Eigen@@@23@U?$add_assign_op@NN@23@$0A@@internal@Eigen@@QEAAX_J0@Z
	?assignCoeff@?$generic_dense_assignment_kernel@U?$evaluator@V?$Matrix@N$02$00$0A@$02$00@Eigen@@@internal@Eigen@@U?$evaluator@V?$Block@$$CBV?$Matrix@N$03$03$0A@$03$03@Eigen@@$02$00$00@Eigen@@@23@U?$assign_op@NN@23@$0A@@internal@Eigen@@QEAAX_J0@Z
	?assignCoeff@?$generic_dense_assignment_kernel@U?$evaluator@V?$Matrix@N$02$02$0A@$02$02@Eigen@@@internal@Eigen@@U123@U?$assign_op@NN@23@$0A@@internal@Eigen@@QEAAX_J0@Z
	?assignCoeff@?$generic_dense_assignment_kernel@U?$evaluator@V?$Matrix@N$02$03$0A@$02$03@Eigen@@@internal@Eigen@@U?$evaluator@V?$Product@V?$Matrix@N$02$00$0A@$02$00@Eigen@@V?$Block@V?$Matrix@N$03$03$0A@$03$03@Eigen@@$00$03$0A@@2@$00@Eigen@@@23@U?$assign_op@NN@23@$0A@@internal@Eigen@@QEAAX_J0@Z
	?assignCoeffByOuterInner@?$generic_dense_assignment_kernel@U?$evaluator@V?$Block@V?$Matrix@N$03$03$0A@$03$03@Eigen@@$02$00$00@Eigen@@@internal@Eigen@@U?$evaluator@V?$CwiseNullaryOp@U?$scalar_constant_op@N@internal@Eigen@@V?$Matrix@N$02$00$0A@$02$00@3@@Eigen@@@23@U?$assign_op@NN@23@$0A@@internal@Eigen@@QEAAX_J0@Z
	?assignCoeffByOuterInner@?$generic_dense_assignment_kernel@U?$evaluator@V?$Block@V?$Matrix@N$03$03$0A@$03$03@Eigen@@$02$00$00@Eigen@@@internal@Eigen@@U?$evaluator@V?$Matrix@N$02$00$0A@$02$00@Eigen@@@23@U?$add_assign_op@NN@23@$0A@@internal@Eigen@@QEAAX_J0@Z
	?assignCoeffByOuterInner@?$generic_dense_assignment_kernel@U?$evaluator@V?$Block@V?$Matrix@N$03$03$0A@$03$03@Eigen@@$02$00$00@Eigen@@@internal@Eigen@@U?$evaluator@V?$Matrix@N$02$00$0A@$02$00@Eigen@@@23@U?$assign_op@NN@23@$0A@@internal@Eigen@@QEAAX_J0@Z
	?assignCoeffByOuterInner@?$generic_dense_assignment_kernel@U?$evaluator@V?$Block@V?$Matrix@N$03$03$0A@$03$03@Eigen@@$02$02$0A@@Eigen@@@internal@Eigen@@U?$evaluator@V?$CwiseNullaryOp@U?$scalar_identity_op@N@internal@Eigen@@V?$Matrix@N$02$02$0A@$02$02@3@@Eigen@@@23@U?$assign_op@NN@23@$0A@@internal@Eigen@@QEAAX_J0@Z
	?assignCoeffByOuterInner@?$generic_dense_assignment_kernel@U?$evaluator@V?$Block@V?$Matrix@N$03$03$0A@$03$03@Eigen@@$02$02$0A@@Eigen@@@internal@Eigen@@U?$evaluator@V?$Matrix@N$02$02$0A@$02$02@Eigen@@@23@U?$assign_op@NN@23@$0A@@internal@Eigen@@QEAAX_J0@Z
	?assignCoeffByOuterInner@?$generic_dense_assignment_kernel@U?$evaluator@V?$Block@V?$Matrix@N$03$03$0A@$03$03@Eigen@@$02$03$0A@@Eigen@@@internal@Eigen@@U?$evaluator@V?$Matrix@N$02$03$0A@$02$03@Eigen@@@23@U?$add_assign_op@NN@23@$0A@@internal@Eigen@@QEAAX_J0@Z
	?assignCoeffByOuterInner@?$generic_dense_assignment_kernel@U?$evaluator@V?$Matrix@N$02$00$0A@$02$00@Eigen@@@internal@Eigen@@U?$evaluator@V?$Block@$$CBV?$Matrix@N$03$03$0A@$03$03@Eigen@@$02$00$00@Eigen@@@23@U?$assign_op@NN@23@$0A@@internal@Eigen@@QEAAX_J0@Z
	?assignCoeffByOuterInner@?$generic_dense_assignment_kernel@U?$evaluator@V?$Matrix@N$02$02$0A@$02$02@Eigen@@@internal@Eigen@@U123@U?$assign_op@NN@23@$0A@@internal@Eigen@@QEAAX_J0@Z
	?assignCoeffByOuterInner@?$generic_dense_assignment_kernel@U?$evaluator@V?$Matrix@N$02$03$0A@$02$03@Eigen@@@internal@Eigen@@U?$evaluator@V?$Product@V?$Matrix@N$02$00$0A@$02$00@Eigen@@V?$Block@V?$Matrix@N$03$03$0A@$03$03@Eigen@@$00$03$0A@@2@$00@Eigen@@@23@U?$assign_op@NN@23@$0A@@internal@Eigen@@QEAAX_J0@Z
	?assign_to_own@?$function1@XAEBV?$shared_ptr@$$CBU?$InteractiveMarkerFeedback_@V?$allocator@X@std@@@visualization_msgs@@@boost@@@boost@@AEAAXAEBV12@@Z
	?assign_to_own@?$function1@XAEBVSingleSubscriberPublisher@ros@@@boost@@AEAAXAEBV12@@Z
	?atomic_decrement@detail@boost@@YAHPEAU?$atomic@H@std@@@Z
	?back@?$vector@V?$basic_string@DU?$char_traits@D@std@@V?$allocator@D@2@@std@@V?$allocator@V?$basic_string@DU?$char_traits@D@std@@V?$allocator@D@2@@std@@@2@@std@@QEBAAEBV?$basic_string@DU?$char_traits@D@std@@V?$allocator@D@2@@2@XZ
	?begin@?$vector@U?$AttachedCollisionObject_@V?$allocator@X@std@@@moveit_msgs@@V?$allocator@U?$AttachedCollisionObject_@V?$allocator@X@std@@@moveit_msgs@@@std@@@std@@QEBA?AV?$_Vector_const_iterator@V?$_Vector_val@U?$_Simple_types@U?$AttachedCollisionObject_@V?$allocator@X@std@@@moveit_msgs@@@std@@@std@@@2@XZ
	?begin@?$vector@U?$ColorRGBA_@V?$allocator@X@std@@@std_msgs@@V?$allocator@U?$ColorRGBA_@V?$allocator@X@std@@@std_msgs@@@std@@@std@@QEBA?AV?$_Vector_const_iterator@V?$_Vector_val@U?$_Simple_types@U?$ColorRGBA_@V?$allocator@X@std@@@std_msgs@@@std@@@std@@@2@XZ
	?begin@?$vector@U?$JointTrajectoryPoint_@V?$allocator@X@std@@@trajectory_msgs@@V?$allocator@U?$JointTrajectoryPoint_@V?$allocator@X@std@@@trajectory_msgs@@@std@@@std@@QEBA?AV?$_Vector_const_iterator@V?$_Vector_val@U?$_Simple_types@U?$JointTrajectoryPoint_@V?$allocator@X@std@@@trajectory_msgs@@@std@@@std@@@2@XZ
	?begin@?$vector@U?$MeshTriangle_@V?$allocator@X@std@@@shape_msgs@@V?$allocator@U?$MeshTriangle_@V?$allocator@X@std@@@shape_msgs@@@std@@@std@@QEBA?AV?$_Vector_const_iterator@V?$_Vector_val@U?$_Simple_types@U?$MeshTriangle_@V?$allocator@X@std@@@shape_msgs@@@std@@@std@@@2@XZ
	?begin@?$vector@U?$Mesh_@V?$allocator@X@std@@@shape_msgs@@V?$allocator@U?$Mesh_@V?$allocator@X@std@@@shape_msgs@@@std@@@std@@QEBA?AV?$_Vector_const_iterator@V?$_Vector_val@U?$_Simple_types@U?$Mesh_@V?$allocator@X@std@@@shape_msgs@@@std@@@std@@@2@XZ
	?begin@?$vector@U?$ObjectColor_@V?$allocator@X@std@@@moveit_msgs@@V?$allocator@U?$ObjectColor_@V?$allocator@X@std@@@moveit_msgs@@@std@@@std@@QEBA?AV?$_Vector_const_iterator@V?$_Vector_val@U?$_Simple_types@U?$ObjectColor_@V?$allocator@X@std@@@moveit_msgs@@@std@@@std@@@2@XZ
	?begin@?$vector@U?$Plane_@V?$allocator@X@std@@@shape_msgs@@V?$allocator@U?$Plane_@V?$allocator@X@std@@@shape_msgs@@@std@@@std@@QEBA?AV?$_Vector_const_iterator@V?$_Vector_val@U?$_Simple_types@U?$Plane_@V?$allocator@X@std@@@shape_msgs@@@std@@@std@@@2@XZ
	?begin@?$vector@U?$Point_@V?$allocator@X@std@@@geometry_msgs@@V?$allocator@U?$Point_@V?$allocator@X@std@@@geometry_msgs@@@std@@@std@@QEBA?AV?$_Vector_const_iterator@V?$_Vector_val@U?$_Simple_types@U?$Point_@V?$allocator@X@std@@@geometry_msgs@@@std@@@std@@@2@XZ
	?begin@?$vector@U?$Pose_@V?$allocator@X@std@@@geometry_msgs@@V?$allocator@U?$Pose_@V?$allocator@X@std@@@geometry_msgs@@@std@@@std@@QEBA?AV?$_Vector_const_iterator@V?$_Vector_val@U?$_Simple_types@U?$Pose_@V?$allocator@X@std@@@geometry_msgs@@@std@@@std@@@2@XZ
	?begin@?$vector@U?$SolidPrimitive_@V?$allocator@X@std@@@shape_msgs@@V?$allocator@U?$SolidPrimitive_@V?$allocator@X@std@@@shape_msgs@@@std@@@std@@QEBA?AV?$_Vector_const_iterator@V?$_Vector_val@U?$_Simple_types@U?$SolidPrimitive_@V?$allocator@X@std@@@shape_msgs@@@std@@@std@@@2@XZ
	?begin@?$vector@U?$Transform_@V?$allocator@X@std@@@geometry_msgs@@V?$allocator@U?$Transform_@V?$allocator@X@std@@@geometry_msgs@@@std@@@std@@QEBA?AV?$_Vector_const_iterator@V?$_Vector_val@U?$_Simple_types@U?$Transform_@V?$allocator@X@std@@@geometry_msgs@@@std@@@std@@@2@XZ
	?begin@?$vector@U?$Twist_@V?$allocator@X@std@@@geometry_msgs@@V?$allocator@U?$Twist_@V?$allocator@X@std@@@geometry_msgs@@@std@@@std@@QEBA?AV?$_Vector_const_iterator@V?$_Vector_val@U?$_Simple_types@U?$Twist_@V?$allocator@X@std@@@geometry_msgs@@@std@@@std@@@2@XZ
	?begin@?$vector@U?$Wrench_@V?$allocator@X@std@@@geometry_msgs@@V?$allocator@U?$Wrench_@V?$allocator@X@std@@@geometry_msgs@@@std@@@std@@QEBA?AV?$_Vector_const_iterator@V?$_Vector_val@U?$_Simple_types@U?$Wrench_@V?$allocator@X@std@@@geometry_msgs@@@std@@@std@@@2@XZ
	?begin@?$vector@V?$basic_string@DU?$char_traits@D@std@@V?$allocator@D@2@@std@@V?$allocator@V?$basic_string@DU?$char_traits@D@std@@V?$allocator@D@2@@std@@@2@@std@@QEBA?AV?$_Vector_const_iterator@V?$_Vector_val@U?$_Simple_types@V?$basic_string@DU?$char_traits@D@std@@V?$allocator@D@2@@std@@@std@@@std@@@2@XZ
	?c_str@?$basic_string@DU?$char_traits@D@std@@V?$allocator@D@2@@std@@QEBAPEBDXZ
	?capacity@?$vector@U?$InteractiveMarkerControl_@V?$allocator@X@std@@@visualization_msgs@@V?$allocator@U?$InteractiveMarkerControl_@V?$allocator@X@std@@@visualization_msgs@@@std@@@std@@QEBA_KXZ
	?capacity@?$vector@U?$Marker_@V?$allocator@X@std@@@visualization_msgs@@V?$allocator@U?$Marker_@V?$allocator@X@std@@@visualization_msgs@@@std@@@std@@QEBA_KXZ
	?check_template_params@?$Transform@N$02$00$0A@@Eigen@@KAXXZ
	?clear@?$basic_vtable0@VSerializedMessage@ros@@@function@detail@boost@@QEBAXAEATfunction_buffer@234@@Z
	?clear@?$basic_vtable1@XAEAVInteractiveRobot@@@function@detail@boost@@QEBAXAEATfunction_buffer@234@@Z
	?clear@?$basic_vtable1@XAEBUTimerEvent@ros@@@function@detail@boost@@QEBAXAEATfunction_buffer@234@@Z
	?clear@?$basic_vtable1@XAEBV?$shared_ptr@$$CBU?$InteractiveMarkerFeedback_@V?$allocator@X@std@@@visualization_msgs@@@boost@@@function@detail@boost@@QEBAXAEATfunction_buffer@234@@Z
	?clear@?$basic_vtable1@XAEBVSingleSubscriberPublisher@ros@@@function@detail@boost@@QEBAXAEATfunction_buffer@234@@Z
	?clear@?$basic_vtable3@_NPEAVRobotState@core@moveit@@PEBVJointModelGroup@23@PEBN@function@detail@boost@@QEBAXAEATfunction_buffer@234@@Z
	?clear@?$function0@VSerializedMessage@ros@@@boost@@QEAAXXZ
	?clear@?$function1@XAEAVInteractiveRobot@@@boost@@QEAAXXZ
	?clear@?$function1@XAEBUTimerEvent@ros@@@boost@@QEAAXXZ
	?clear@?$function1@XAEBV?$shared_ptr@$$CBU?$InteractiveMarkerFeedback_@V?$allocator@X@std@@@visualization_msgs@@@boost@@@boost@@QEAAXXZ
	?clear@?$function1@XAEBVSingleSubscriberPublisher@ros@@@boost@@QEAAXXZ
	?clear@?$function3@_NPEAVRobotState@core@moveit@@PEBVJointModelGroup@23@PEBN@boost@@QEAAXXZ
	?clone@?$clone_impl@U?$error_info_injector@Vbad_function_call@boost@@@exception_detail@boost@@@exception_detail@boost@@$0PPPPPPPM@A@EBAPEBVclone_base@23@XZ
	?clone@?$clone_impl@U?$error_info_injector@Vbad_function_call@boost@@@exception_detail@boost@@@exception_detail@boost@@EEBAPEBVclone_base@23@XZ
	?coeff@?$DenseCoeffsBase@V?$Block@$$CBV?$Matrix@N$03$03$0A@$03$03@Eigen@@$02$00$00@Eigen@@$0A@@Eigen@@QEBAN_J@Z
	?coeff@?$DenseCoeffsBase@V?$Matrix@N$02$00$0A@$02$00@Eigen@@$0A@@Eigen@@QEBAAEBN_J@Z
	?coeff@?$MapBase@V?$Block@$$CBV?$Matrix@N$03$03$0A@$03$03@Eigen@@$02$02$0A@@Eigen@@$0A@@Eigen@@QEBAAEBN_J0@Z
	?coeff@?$PlainObjectBase@V?$Matrix@N$03$00$0A@$03$00@Eigen@@@Eigen@@QEBAAEBN_J@Z
	?coeff@?$binary_evaluator@V?$CwiseBinaryOp@U?$scalar_product_op@NN@internal@Eigen@@$$CBV?$Transpose@$$CBV?$Block@$$CBV?$Matrix@N$02$00$0A@$02$00@Eigen@@$00$00$0A@@Eigen@@@3@$$CBV?$Block@$$CBV?$Block@V?$Matrix@N$03$03$0A@$03$03@Eigen@@$00$03$0A@@Eigen@@$00$00$0A@@3@@Eigen@@UIndexBased@internal@2@U342@NN@internal@Eigen@@QEBAN_J0@Z
	?coeff@?$evaluator@V?$Diagonal@$$CBV?$Block@$$CBV?$Matrix@N$03$03$0A@$03$03@Eigen@@$02$02$0A@@Eigen@@$0A@@Eigen@@@internal@Eigen@@QEBAN_J0@Z
	?coeff@?$evaluator@V?$PlainObjectBase@V?$Matrix@N$02$00$0A@$02$00@Eigen@@@Eigen@@@internal@Eigen@@QEBAAEBN_J0@Z
	?coeff@?$evaluator@V?$PlainObjectBase@V?$Matrix@N$02$00$0A@$02$00@Eigen@@@Eigen@@@internal@Eigen@@QEBAAEBN_J@Z
	?coeff@?$evaluator@V?$PlainObjectBase@V?$Matrix@N$02$02$0A@$02$02@Eigen@@@Eigen@@@internal@Eigen@@QEBAAEBN_J0@Z
	?coeff@?$evaluator@V?$PlainObjectBase@V?$Matrix@N$02$03$0A@$02$03@Eigen@@@Eigen@@@internal@Eigen@@QEBAAEBN_J0@Z
	?coeff@?$mapbase_evaluator@V?$Block@$$CBV?$Block@V?$Matrix@N$03$03$0A@$03$03@Eigen@@$00$03$0A@@Eigen@@$00$00$0A@@Eigen@@V?$Matrix@N$00$00$00$00$00@2@@internal@Eigen@@QEBAN_J0@Z
	?coeff@?$mapbase_evaluator@V?$Block@$$CBV?$Matrix@N$02$00$0A@$02$00@Eigen@@$00$00$0A@@Eigen@@V?$Matrix@N$00$00$0A@$00$00@2@@internal@Eigen@@QEBAN_J0@Z
	?coeff@?$mapbase_evaluator@V?$Block@$$CBV?$Matrix@N$03$03$0A@$03$03@Eigen@@$02$00$00@Eigen@@V?$Matrix@N$02$00$0A@$02$00@2@@internal@Eigen@@QEBAN_J0@Z
	?coeff@?$mapbase_evaluator@V?$Block@$$CBV?$Matrix@N$03$03$0A@$03$03@Eigen@@$02$00$00@Eigen@@V?$Matrix@N$02$00$0A@$02$00@2@@internal@Eigen@@QEBAN_J@Z
	?coeff@?$mapbase_evaluator@V?$Block@$$CBV?$Matrix@N$03$03$0A@$03$03@Eigen@@$02$02$0A@@Eigen@@V?$Matrix@N$02$02$0A@$02$02@2@@internal@Eigen@@QEBAN_J0@Z
	?coeff@?$mapbase_evaluator@V?$Block@V?$Matrix@N$03$03$0A@$03$03@Eigen@@$00$03$0A@@Eigen@@V?$Matrix@N$00$03$00$00$03@2@@internal@Eigen@@QEBAAEBN_J0@Z
	?coeff@?$product_evaluator@V?$Product@V?$Matrix@N$02$00$0A@$02$00@Eigen@@V?$Block@V?$Matrix@N$03$03$0A@$03$03@Eigen@@$00$03$0A@@2@$00@Eigen@@$03UDenseShape@2@U32@NN@internal@Eigen@@QEBA?BN_J0@Z
	?coeff@?$unary_evaluator@V?$Transpose@$$CBV?$Block@$$CBV?$Matrix@N$02$00$0A@$02$00@Eigen@@$00$00$0A@@Eigen@@@Eigen@@UIndexBased@internal@2@N@internal@Eigen@@QEBAN_J0@Z
	?coeffByOuterInner@?$redux_evaluator@V?$CwiseBinaryOp@U?$scalar_product_op@NN@internal@Eigen@@$$CBV?$Transpose@$$CBV?$Block@$$CBV?$Matrix@N$02$00$0A@$02$00@Eigen@@$00$00$0A@@Eigen@@@3@$$CBV?$Block@$$CBV?$Block@V?$Matrix@N$03$03$0A@$03$03@Eigen@@$00$03$0A@@Eigen@@$00$00$0A@@3@@Eigen@@@internal@Eigen@@QEBAN_J0@Z
	?coeffByOuterInner@?$redux_evaluator@V?$Diagonal@$$CBV?$Block@$$CBV?$Matrix@N$03$03$0A@$03$03@Eigen@@$02$02$0A@@Eigen@@$0A@@Eigen@@@internal@Eigen@@QEBAN_J0@Z
	?coeffRef@?$DenseCoeffsBase@V?$Matrix@N$02$00$0A@$02$00@Eigen@@$00@Eigen@@QEAAAEAN_J@Z
	?coeffRef@?$PlainObjectBase@V?$Matrix@N$02$02$0A@$02$02@Eigen@@@Eigen@@QEAAAEAN_J0@Z
	?coeffRef@?$PlainObjectBase@V?$Matrix@N$03$00$0A@$03$00@Eigen@@@Eigen@@QEAAAEAN_J@Z
	?coeffRef@?$PlainObjectBase@V?$Matrix@N$03$03$0A@$03$03@Eigen@@@Eigen@@QEAAAEAN_J0@Z
	?coeffRef@?$evaluator@V?$PlainObjectBase@V?$Matrix@N$02$00$0A@$02$00@Eigen@@@Eigen@@@internal@Eigen@@QEAAAEAN_J0@Z
	?coeffRef@?$evaluator@V?$PlainObjectBase@V?$Matrix@N$02$00$0A@$02$00@Eigen@@@Eigen@@@internal@Eigen@@QEAAAEAN_J@Z
	?coeffRef@?$evaluator@V?$PlainObjectBase@V?$Matrix@N$02$02$0A@$02$02@Eigen@@@Eigen@@@internal@Eigen@@QEAAAEAN_J0@Z
	?coeffRef@?$evaluator@V?$PlainObjectBase@V?$Matrix@N$02$03$0A@$02$03@Eigen@@@Eigen@@@internal@Eigen@@QEAAAEAN_J0@Z
	?coeffRef@?$evaluator@V?$PlainObjectBase@V?$Matrix@N$03$03$0A@$03$03@Eigen@@@Eigen@@@internal@Eigen@@QEAAAEAN_J0@Z
	?coeffRef@?$mapbase_evaluator@V?$Block@V?$Matrix@N$03$03$0A@$03$03@Eigen@@$00$02$0A@@Eigen@@V?$Matrix@N$00$02$00$00$02@2@@internal@Eigen@@QEAAAEAN_J@Z
	?coeffRef@?$mapbase_evaluator@V?$Block@V?$Matrix@N$03$03$0A@$03$03@Eigen@@$02$00$00@Eigen@@V?$Matrix@N$02$00$0A@$02$00@2@@internal@Eigen@@QEAAAEAN_J0@Z
	?coeffRef@?$mapbase_evaluator@V?$Block@V?$Matrix@N$03$03$0A@$03$03@Eigen@@$02$02$0A@@Eigen@@V?$Matrix@N$02$02$0A@$02$02@2@@internal@Eigen@@QEAAAEAN_J0@Z
	?coeffRef@?$mapbase_evaluator@V?$Block@V?$Matrix@N$03$03$0A@$03$03@Eigen@@$02$03$0A@@Eigen@@V?$Matrix@N$02$03$0A@$02$03@2@@internal@Eigen@@QEAAAEAN_J0@Z
	?coeffs@?$Quaternion@N$0A@@Eigen@@QEAAAEAV?$Matrix@N$03$00$0A@$03$00@2@XZ
	?coeffs@?$Quaternion@N$0A@@Eigen@@QEBAAEBV?$Matrix@N$03$00$0A@$03$00@2@XZ
	?coeffs@?$QuaternionBase@V?$Quaternion@N$0A@@Eigen@@@Eigen@@QEAAAEAV?$Matrix@N$03$00$0A@$03$00@2@XZ
	?col@?$DenseBase@V?$Block@V?$Matrix@N$03$03$0A@$03$03@Eigen@@$00$03$0A@@Eigen@@@Eigen@@QEBA?BV?$Block@$$CBV?$Block@V?$Matrix@N$03$03$0A@$03$03@Eigen@@$00$03$0A@@Eigen@@$00$00$0A@@2@_J@Z
	?colIndexByOuterInner@?$generic_dense_assignment_kernel@U?$evaluator@V?$Block@V?$Matrix@N$03$03$0A@$03$03@Eigen@@$02$00$00@Eigen@@@internal@Eigen@@U?$evaluator@V?$CwiseNullaryOp@U?$scalar_constant_op@N@internal@Eigen@@V?$Matrix@N$02$00$0A@$02$00@3@@Eigen@@@23@U?$assign_op@NN@23@$0A@@internal@Eigen@@SA_J_J0@Z
	?colIndexByOuterInner@?$generic_dense_assignment_kernel@U?$evaluator@V?$Block@V?$Matrix@N$03$03$0A@$03$03@Eigen@@$02$00$00@Eigen@@@internal@Eigen@@U?$evaluator@V?$Matrix@N$02$00$0A@$02$00@Eigen@@@23@U?$add_assign_op@NN@23@$0A@@internal@Eigen@@SA_J_J0@Z
	?colIndexByOuterInner@?$generic_dense_assignment_kernel@U?$evaluator@V?$Block@V?$Matrix@N$03$03$0A@$03$03@Eigen@@$02$00$00@Eigen@@@internal@Eigen@@U?$evaluator@V?$Matrix@N$02$00$0A@$02$00@Eigen@@@23@U?$assign_op@NN@23@$0A@@internal@Eigen@@SA_J_J0@Z
	?colIndexByOuterInner@?$generic_dense_assignment_kernel@U?$evaluator@V?$Block@V?$Matrix@N$03$03$0A@$03$03@Eigen@@$02$02$0A@@Eigen@@@internal@Eigen@@U?$evaluator@V?$CwiseNullaryOp@U?$scalar_identity_op@N@internal@Eigen@@V?$Matrix@N$02$02$0A@$02$02@3@@Eigen@@@23@U?$assign_op@NN@23@$0A@@internal@Eigen@@SA_J_J0@Z
	?colIndexByOuterInner@?$generic_dense_assignment_kernel@U?$evaluator@V?$Block@V?$Matrix@N$03$03$0A@$03$03@Eigen@@$02$02$0A@@Eigen@@@internal@Eigen@@U?$evaluator@V?$Matrix@N$02$02$0A@$02$02@Eigen@@@23@U?$assign_op@NN@23@$0A@@internal@Eigen@@SA_J_J0@Z
	?colIndexByOuterInner@?$generic_dense_assignment_kernel@U?$evaluator@V?$Block@V?$Matrix@N$03$03$0A@$03$03@Eigen@@$02$03$0A@@Eigen@@@internal@Eigen@@U?$evaluator@V?$Matrix@N$02$03$0A@$02$03@Eigen@@@23@U?$add_assign_op@NN@23@$0A@@internal@Eigen@@SA_J_J0@Z
	?colIndexByOuterInner@?$generic_dense_assignment_kernel@U?$evaluator@V?$Matrix@N$02$00$0A@$02$00@Eigen@@@internal@Eigen@@U?$evaluator@V?$Block@$$CBV?$Matrix@N$03$03$0A@$03$03@Eigen@@$02$00$00@Eigen@@@23@U?$assign_op@NN@23@$0A@@internal@Eigen@@SA_J_J0@Z
	?colIndexByOuterInner@?$generic_dense_assignment_kernel@U?$evaluator@V?$Matrix@N$02$02$0A@$02$02@Eigen@@@internal@Eigen@@U123@U?$assign_op@NN@23@$0A@@internal@Eigen@@SA_J_J0@Z
	?colIndexByOuterInner@?$generic_dense_assignment_kernel@U?$evaluator@V?$Matrix@N$02$03$0A@$02$03@Eigen@@@internal@Eigen@@U?$evaluator@V?$Product@V?$Matrix@N$02$00$0A@$02$00@Eigen@@V?$Block@V?$Matrix@N$03$03$0A@$03$03@Eigen@@$00$03$0A@@2@$00@Eigen@@@23@U?$assign_op@NN@23@$0A@@internal@Eigen@@SA_J_J0@Z
	?colIndexByOuterInner@?$generic_dense_assignment_kernel@U?$evaluator@V?$Matrix@N$03$03$0A@$03$03@Eigen@@@internal@Eigen@@U123@U?$assign_op@NN@23@$0A@@internal@Eigen@@SA_J_J0@Z
	?colOffset@?$evaluator@V?$Diagonal@$$CBV?$Block@$$CBV?$Matrix@N$03$03$0A@$03$03@Eigen@@$02$02$0A@@Eigen@@$0A@@Eigen@@@internal@Eigen@@AEBA_JXZ
	?colStride@?$DenseCoeffsBase@V?$Block@$$CBV?$Matrix@N$03$03$0A@$03$03@Eigen@@$02$02$0A@@Eigen@@$01@Eigen@@QEBA_JXZ
	?colStride@?$mapbase_evaluator@V?$Block@$$CBV?$Block@V?$Matrix@N$03$03$0A@$03$03@Eigen@@$00$03$0A@@Eigen@@$00$00$0A@@Eigen@@V?$Matrix@N$00$00$00$00$00@2@@internal@Eigen@@IEBA_JXZ
	?colStride@?$mapbase_evaluator@V?$Block@$$CBV?$Matrix@N$02$00$0A@$02$00@Eigen@@$00$00$0A@@Eigen@@V?$Matrix@N$00$00$0A@$00$00@2@@internal@Eigen@@IEBA_JXZ
	?colStride@?$mapbase_evaluator@V?$Block@$$CBV?$Matrix@N$03$03$0A@$03$03@Eigen@@$02$00$00@Eigen@@V?$Matrix@N$02$00$0A@$02$00@2@@internal@Eigen@@IEBA_JXZ
	?colStride@?$mapbase_evaluator@V?$Block@$$CBV?$Matrix@N$03$03$0A@$03$03@Eigen@@$02$02$0A@@Eigen@@V?$Matrix@N$02$02$0A@$02$02@2@@internal@Eigen@@IEBA_JXZ
	?colStride@?$mapbase_evaluator@V?$Block@V?$Matrix@N$03$03$0A@$03$03@Eigen@@$00$03$0A@@Eigen@@V?$Matrix@N$00$03$00$00$03@2@@internal@Eigen@@IEBA_JXZ
	?colStride@?$mapbase_evaluator@V?$Block@V?$Matrix@N$03$03$0A@$03$03@Eigen@@$02$00$00@Eigen@@V?$Matrix@N$02$00$0A@$02$00@2@@internal@Eigen@@IEBA_JXZ
	?colStride@?$mapbase_evaluator@V?$Block@V?$Matrix@N$03$03$0A@$03$03@Eigen@@$02$02$0A@@Eigen@@V?$Matrix@N$02$02$0A@$02$02@2@@internal@Eigen@@IEBA_JXZ
	?colStride@?$mapbase_evaluator@V?$Block@V?$Matrix@N$03$03$0A@$03$03@Eigen@@$02$03$0A@@Eigen@@V?$Matrix@N$02$03$0A@$02$03@2@@internal@Eigen@@IEBA_JXZ
	?cols@?$CwiseNullaryOp@U?$scalar_constant_op@N@internal@Eigen@@V?$Matrix@N$00$02$00$00$02@3@@Eigen@@QEBA_JXZ
	?cols@?$CwiseNullaryOp@U?$scalar_constant_op@N@internal@Eigen@@V?$Matrix@N$02$00$0A@$02$00@3@@Eigen@@QEBA_JXZ
	?cols@?$CwiseNullaryOp@U?$scalar_identity_op@N@internal@Eigen@@V?$Matrix@N$02$02$0A@$02$02@3@@Eigen@@QEBA_JXZ
	?cols@?$DenseStorage@N$02$02$00$0A@@Eigen@@SA_JXZ
	?cols@?$DenseStorage@N$08$02$02$0A@@Eigen@@SA_JXZ
	?cols@?$DenseStorage@N$0BA@$03$03$0A@@Eigen@@SA_JXZ
	?cols@?$DenseStorage@N$0M@$02$03$0A@@Eigen@@SA_JXZ
	?cols@?$EigenBase@V?$Block@V?$Matrix@N$03$03$0A@$03$03@Eigen@@$00$02$0A@@Eigen@@@Eigen@@QEBA_JXZ
	?cols@?$EigenBase@V?$Block@V?$Matrix@N$03$03$0A@$03$03@Eigen@@$02$00$00@Eigen@@@Eigen@@QEBA_JXZ
	?cols@?$EigenBase@V?$Block@V?$Matrix@N$03$03$0A@$03$03@Eigen@@$02$02$0A@@Eigen@@@Eigen@@QEBA_JXZ
	?cols@?$EigenBase@V?$Block@V?$Matrix@N$03$03$0A@$03$03@Eigen@@$02$03$0A@@Eigen@@@Eigen@@QEBA_JXZ
	?cols@?$EigenBase@V?$Matrix@N$02$00$0A@$02$00@Eigen@@@Eigen@@QEBA_JXZ
	?cols@?$EigenBase@V?$Matrix@N$02$02$0A@$02$02@Eigen@@@Eigen@@QEBA_JXZ
	?cols@?$EigenBase@V?$Matrix@N$02$03$0A@$02$03@Eigen@@@Eigen@@QEBA_JXZ
	?cols@?$EigenBase@V?$Matrix@N$03$03$0A@$03$03@Eigen@@@Eigen@@QEBA_JXZ
	?cols@?$MapBase@V?$Block@$$CBV?$Matrix@N$03$03$0A@$03$03@Eigen@@$02$00$00@Eigen@@$0A@@Eigen@@QEBA_JXZ
	?cols@?$MapBase@V?$Block@V?$Matrix@N$03$03$0A@$03$03@Eigen@@$00$02$0A@@Eigen@@$0A@@Eigen@@QEBA_JXZ
	?cols@?$MapBase@V?$Block@V?$Matrix@N$03$03$0A@$03$03@Eigen@@$00$03$0A@@Eigen@@$0A@@Eigen@@QEBA_JXZ
	?cols@?$MapBase@V?$Block@V?$Matrix@N$03$03$0A@$03$03@Eigen@@$02$00$00@Eigen@@$0A@@Eigen@@QEBA_JXZ
	?cols@?$MapBase@V?$Block@V?$Matrix@N$03$03$0A@$03$03@Eigen@@$02$02$0A@@Eigen@@$0A@@Eigen@@QEBA_JXZ
	?cols@?$MapBase@V?$Block@V?$Matrix@N$03$03$0A@$03$03@Eigen@@$02$03$0A@@Eigen@@$0A@@Eigen@@QEBA_JXZ
	?cols@?$PlainObjectBase@V?$Matrix@N$02$00$0A@$02$00@Eigen@@@Eigen@@QEBA_JXZ
	?cols@?$PlainObjectBase@V?$Matrix@N$02$02$0A@$02$02@Eigen@@@Eigen@@QEBA_JXZ
	?cols@?$PlainObjectBase@V?$Matrix@N$02$03$0A@$02$03@Eigen@@@Eigen@@QEBA_JXZ
	?cols@?$PlainObjectBase@V?$Matrix@N$03$03$0A@$03$03@Eigen@@@Eigen@@QEBA_JXZ
	?cols@?$Product@V?$Matrix@N$02$00$0A@$02$00@Eigen@@V?$Block@V?$Matrix@N$03$03$0A@$03$03@Eigen@@$00$03$0A@@2@$00@Eigen@@QEBA_JXZ
	?cols@?$Product@V?$Matrix@N$02$00$0A@$02$00@Eigen@@V?$Block@V?$Matrix@N$03$03$0A@$03$03@Eigen@@$00$03$0A@@2@$0A@@Eigen@@QEBA_JXZ
	?const_cast_derived@?$EigenBase@V?$Block@V?$Matrix@N$03$03$0A@$03$03@Eigen@@$00$02$0A@@Eigen@@@Eigen@@QEBAAEAV?$Block@V?$Matrix@N$03$03$0A@$03$03@Eigen@@$00$02$0A@@2@XZ
	?const_cast_derived@?$EigenBase@V?$Block@V?$Matrix@N$03$03$0A@$03$03@Eigen@@$02$00$00@Eigen@@@Eigen@@QEBAAEAV?$Block@V?$Matrix@N$03$03$0A@$03$03@Eigen@@$02$00$00@2@XZ
	?const_cast_derived@?$EigenBase@V?$Block@V?$Matrix@N$03$03$0A@$03$03@Eigen@@$02$02$0A@@Eigen@@@Eigen@@QEBAAEAV?$Block@V?$Matrix@N$03$03$0A@$03$03@Eigen@@$02$02$0A@@2@XZ
	?const_cast_derived@?$EigenBase@V?$Block@V?$Matrix@N$03$03$0A@$03$03@Eigen@@$02$03$0A@@Eigen@@@Eigen@@QEBAAEAV?$Block@V?$Matrix@N$03$03$0A@$03$03@Eigen@@$02$03$0A@@2@XZ
	?const_cast_derived@?$EigenBase@V?$Matrix@N$02$00$0A@$02$00@Eigen@@@Eigen@@QEBAAEAV?$Matrix@N$02$00$0A@$02$00@2@XZ
	?const_cast_derived@?$EigenBase@V?$Matrix@N$02$02$0A@$02$02@Eigen@@@Eigen@@QEBAAEAV?$Matrix@N$02$02$0A@$02$02@2@XZ
	?const_cast_derived@?$EigenBase@V?$Matrix@N$02$03$0A@$02$03@Eigen@@@Eigen@@QEBAAEAV?$Matrix@N$02$03$0A@$02$03@2@XZ
	?const_cast_derived@?$EigenBase@V?$Matrix@N$03$03$0A@$03$03@Eigen@@@Eigen@@QEBAAEAV?$Matrix@N$03$03$0A@$03$03@2@XZ
	?copy@?$_Char_traits@DH@std@@SAPEADQEADQEBD_K@Z
	?copy_boost_exception@exception_detail@boost@@YAXPEAVexception@2@PEBV32@@Z
	?data@?$DenseStorage@N$02$02$00$0A@@Eigen@@QEBAPEBNXZ
	?data@?$DenseStorage@N$03$03$00$0A@@Eigen@@QEAAPEANXZ
	?data@?$DenseStorage@N$03$03$00$0A@@Eigen@@QEBAPEBNXZ
	?data@?$DenseStorage@N$08$02$02$0A@@Eigen@@QEAAPEANXZ
	?data@?$DenseStorage@N$08$02$02$0A@@Eigen@@QEBAPEBNXZ
	?data@?$DenseStorage@N$0BA@$03$03$0A@@Eigen@@QEAAPEANXZ
	?data@?$DenseStorage@N$0BA@$03$03$0A@@Eigen@@QEBAPEBNXZ
	?data@?$DenseStorage@N$0M@$02$03$0A@@Eigen@@QEBAPEBNXZ
	?data@?$MapBase@V?$Block@$$CBV?$Block@V?$Matrix@N$03$03$0A@$03$03@Eigen@@$00$03$0A@@Eigen@@$00$00$0A@@Eigen@@$0A@@Eigen@@QEBAPEBNXZ
	?data@?$MapBase@V?$Block@$$CBV?$Matrix@N$02$00$0A@$02$00@Eigen@@$00$00$0A@@Eigen@@$0A@@Eigen@@QEBAPEBNXZ
	?data@?$MapBase@V?$Block@$$CBV?$Matrix@N$03$03$0A@$03$03@Eigen@@$02$00$00@Eigen@@$0A@@Eigen@@QEBAPEBNXZ
	?data@?$MapBase@V?$Block@$$CBV?$Matrix@N$03$03$0A@$03$03@Eigen@@$02$02$0A@@Eigen@@$0A@@Eigen@@QEBAPEBNXZ
	?data@?$MapBase@V?$Block@V?$Matrix@N$03$03$0A@$03$03@Eigen@@$00$02$0A@@Eigen@@$00@Eigen@@QEBAPEBNXZ
	?data@?$MapBase@V?$Block@V?$Matrix@N$03$03$0A@$03$03@Eigen@@$00$03$0A@@Eigen@@$00@Eigen@@QEBAPEBNXZ
	?data@?$MapBase@V?$Block@V?$Matrix@N$03$03$0A@$03$03@Eigen@@$02$00$00@Eigen@@$00@Eigen@@QEBAPEBNXZ
	?data@?$MapBase@V?$Block@V?$Matrix@N$03$03$0A@$03$03@Eigen@@$02$02$0A@@Eigen@@$00@Eigen@@QEBAPEBNXZ
	?data@?$MapBase@V?$Block@V?$Matrix@N$03$03$0A@$03$03@Eigen@@$02$03$0A@@Eigen@@$00@Eigen@@QEBAPEBNXZ
	?data@?$PlainObjectBase@V?$Matrix@N$02$00$0A@$02$00@Eigen@@@Eigen@@QEBAPEBNXZ
	?data@?$PlainObjectBase@V?$Matrix@N$02$02$0A@$02$02@Eigen@@@Eigen@@QEBAPEBNXZ
	?data@?$PlainObjectBase@V?$Matrix@N$02$03$0A@$02$03@Eigen@@@Eigen@@QEBAPEBNXZ
	?data@?$PlainObjectBase@V?$Matrix@N$03$03$0A@$03$03@Eigen@@@Eigen@@QEAAPEANXZ
	?data@?$PlainObjectBase@V?$Matrix@N$03$03$0A@$03$03@Eigen@@@Eigen@@QEBAPEBNXZ
	?data@?$basic_string@DU?$char_traits@D@std@@V?$allocator@D@2@@std@@QEBAPEBDXZ
	?deallocate@?$_Default_allocator_traits@V?$allocator@U?$_Tree_node@U?$pair@$$CBV?$basic_string@DU?$char_traits@D@std@@V?$allocator@D@2@@std@@V12@@std@@PEAX@std@@@std@@@std@@SAXAEAV?$allocator@U?$_Tree_node@U?$pair@$$CBV?$basic_string@DU?$char_traits@D@std@@V?$allocator@D@2@@std@@V12@@std@@PEAX@std@@@2@QEAU?$_Tree_node@U?$pair@$$CBV?$basic_string@DU?$char_traits@D@std@@V?$allocator@D@2@@std@@V12@@std@@PEAX@2@_K@Z
	?deallocate@?$allocator@D@std@@QEAAXQEAD_K@Z
	?deallocate@?$allocator@N@std@@QEAAXQEAN_K@Z
	?deallocate@?$allocator@U?$AttachedCollisionObject_@V?$allocator@X@std@@@moveit_msgs@@@std@@QEAAXQEAU?$AttachedCollisionObject_@V?$allocator@X@std@@@moveit_msgs@@_K@Z
	?deallocate@?$allocator@U?$ColorRGBA_@V?$allocator@X@std@@@std_msgs@@@std@@QEAAXQEAU?$ColorRGBA_@V?$allocator@X@std@@@std_msgs@@_K@Z
	?deallocate@?$allocator@U?$InteractiveMarkerControl_@V?$allocator@X@std@@@visualization_msgs@@@std@@QEAAXQEAU?$InteractiveMarkerControl_@V?$allocator@X@std@@@visualization_msgs@@_K@Z
	?deallocate@?$allocator@U?$JointTrajectoryPoint_@V?$allocator@X@std@@@trajectory_msgs@@@std@@QEAAXQEAU?$JointTrajectoryPoint_@V?$allocator@X@std@@@trajectory_msgs@@_K@Z
	?deallocate@?$allocator@U?$Marker_@V?$allocator@X@std@@@visualization_msgs@@@std@@QEAAXQEAU?$Marker_@V?$allocator@X@std@@@visualization_msgs@@_K@Z
	?deallocate@?$allocator@U?$MenuEntry_@V?$allocator@X@std@@@visualization_msgs@@@std@@QEAAXQEAU?$MenuEntry_@V?$allocator@X@std@@@visualization_msgs@@_K@Z
	?deallocate@?$allocator@U?$MeshTriangle_@V?$allocator@X@std@@@shape_msgs@@@std@@QEAAXQEAU?$MeshTriangle_@V?$allocator@X@std@@@shape_msgs@@_K@Z
	?deallocate@?$allocator@U?$Mesh_@V?$allocator@X@std@@@shape_msgs@@@std@@QEAAXQEAU?$Mesh_@V?$allocator@X@std@@@shape_msgs@@_K@Z
	?deallocate@?$allocator@U?$ObjectColor_@V?$allocator@X@std@@@moveit_msgs@@@std@@QEAAXQEAU?$ObjectColor_@V?$allocator@X@std@@@moveit_msgs@@_K@Z
	?deallocate@?$allocator@U?$Plane_@V?$allocator@X@std@@@shape_msgs@@@std@@QEAAXQEAU?$Plane_@V?$allocator@X@std@@@shape_msgs@@_K@Z
	?deallocate@?$allocator@U?$Point_@V?$allocator@X@std@@@geometry_msgs@@@std@@QEAAXQEAU?$Point_@V?$allocator@X@std@@@geometry_msgs@@_K@Z
	?deallocate@?$allocator@U?$Pose_@V?$allocator@X@std@@@geometry_msgs@@@std@@QEAAXQEAU?$Pose_@V?$allocator@X@std@@@geometry_msgs@@_K@Z
	?deallocate@?$allocator@U?$SolidPrimitive_@V?$allocator@X@std@@@shape_msgs@@@std@@QEAAXQEAU?$SolidPrimitive_@V?$allocator@X@std@@@shape_msgs@@_K@Z
	?deallocate@?$allocator@U?$Transform_@V?$allocator@X@std@@@geometry_msgs@@@std@@QEAAXQEAU?$Transform_@V?$allocator@X@std@@@geometry_msgs@@_K@Z
	?deallocate@?$allocator@U?$Twist_@V?$allocator@X@std@@@geometry_msgs@@@std@@QEAAXQEAU?$Twist_@V?$allocator@X@std@@@geometry_msgs@@_K@Z
	?deallocate@?$allocator@U?$Wrench_@V?$allocator@X@std@@@geometry_msgs@@@std@@QEAAXQEAU?$Wrench_@V?$allocator@X@std@@@geometry_msgs@@_K@Z
	?deallocate@?$allocator@V?$basic_string@DU?$char_traits@D@std@@V?$allocator@D@2@@std@@@std@@QEAAXQEAV?$basic_string@DU?$char_traits@D@std@@V?$allocator@D@2@@2@_K@Z
	?derived@?$EigenBase@V?$Block@$$CBV?$Block@V?$Matrix@N$03$03$0A@$03$03@Eigen@@$00$03$0A@@Eigen@@$00$00$0A@@Eigen@@@Eigen@@QEBAAEBV?$Block@$$CBV?$Block@V?$Matrix@N$03$03$0A@$03$03@Eigen@@$00$03$0A@@Eigen@@$00$00$0A@@2@XZ
	?derived@?$EigenBase@V?$Block@$$CBV?$Matrix@N$02$00$0A@$02$00@Eigen@@$00$00$0A@@Eigen@@@Eigen@@QEBAAEBV?$Block@$$CBV?$Matrix@N$02$00$0A@$02$00@Eigen@@$00$00$0A@@2@XZ
	?derived@?$EigenBase@V?$Block@$$CBV?$Matrix@N$03$03$0A@$03$03@Eigen@@$02$00$00@Eigen@@@Eigen@@QEBAAEBV?$Block@$$CBV?$Matrix@N$03$03$0A@$03$03@Eigen@@$02$00$00@2@XZ
	?derived@?$EigenBase@V?$Block@$$CBV?$Matrix@N$03$03$0A@$03$03@Eigen@@$02$02$0A@@Eigen@@@Eigen@@QEBAAEBV?$Block@$$CBV?$Matrix@N$03$03$0A@$03$03@Eigen@@$02$02$0A@@2@XZ
	?derived@?$EigenBase@V?$Block@V?$Matrix@N$03$03$0A@$03$03@Eigen@@$00$02$0A@@Eigen@@@Eigen@@QEAAAEAV?$Block@V?$Matrix@N$03$03$0A@$03$03@Eigen@@$00$02$0A@@2@XZ
	?derived@?$EigenBase@V?$Block@V?$Matrix@N$03$03$0A@$03$03@Eigen@@$00$02$0A@@Eigen@@@Eigen@@QEBAAEBV?$Block@V?$Matrix@N$03$03$0A@$03$03@Eigen@@$00$02$0A@@2@XZ
	?derived@?$EigenBase@V?$Block@V?$Matrix@N$03$03$0A@$03$03@Eigen@@$00$03$0A@@Eigen@@@Eigen@@QEBAAEBV?$Block@V?$Matrix@N$03$03$0A@$03$03@Eigen@@$00$03$0A@@2@XZ
	?derived@?$EigenBase@V?$Block@V?$Matrix@N$03$03$0A@$03$03@Eigen@@$02$00$00@Eigen@@@Eigen@@QEAAAEAV?$Block@V?$Matrix@N$03$03$0A@$03$03@Eigen@@$02$00$00@2@XZ
	?derived@?$EigenBase@V?$Block@V?$Matrix@N$03$03$0A@$03$03@Eigen@@$02$00$00@Eigen@@@Eigen@@QEBAAEBV?$Block@V?$Matrix@N$03$03$0A@$03$03@Eigen@@$02$00$00@2@XZ
	?derived@?$EigenBase@V?$Block@V?$Matrix@N$03$03$0A@$03$03@Eigen@@$02$02$0A@@Eigen@@@Eigen@@QEAAAEAV?$Block@V?$Matrix@N$03$03$0A@$03$03@Eigen@@$02$02$0A@@2@XZ
	?derived@?$EigenBase@V?$Block@V?$Matrix@N$03$03$0A@$03$03@Eigen@@$02$02$0A@@Eigen@@@Eigen@@QEBAAEBV?$Block@V?$Matrix@N$03$03$0A@$03$03@Eigen@@$02$02$0A@@2@XZ
	?derived@?$EigenBase@V?$Block@V?$Matrix@N$03$03$0A@$03$03@Eigen@@$02$03$0A@@Eigen@@@Eigen@@QEAAAEAV?$Block@V?$Matrix@N$03$03$0A@$03$03@Eigen@@$02$03$0A@@2@XZ
	?derived@?$EigenBase@V?$Block@V?$Matrix@N$03$03$0A@$03$03@Eigen@@$02$03$0A@@Eigen@@@Eigen@@QEBAAEBV?$Block@V?$Matrix@N$03$03$0A@$03$03@Eigen@@$02$03$0A@@2@XZ
	?derived@?$EigenBase@V?$CwiseBinaryOp@U?$scalar_product_op@NN@internal@Eigen@@$$CBV?$Transpose@$$CBV?$Block@$$CBV?$Matrix@N$02$00$0A@$02$00@Eigen@@$00$00$0A@@Eigen@@@3@$$CBV?$Block@$$CBV?$Block@V?$Matrix@N$03$03$0A@$03$03@Eigen@@$00$03$0A@@Eigen@@$00$00$0A@@3@@Eigen@@@Eigen@@QEBAAEBV?$CwiseBinaryOp@U?$scalar_product_op@NN@internal@Eigen@@$$CBV?$Transpose@$$CBV?$Block@$$CBV?$Matrix@N$02$00$0A@$02$00@Eigen@@$00$00$0A@@Eigen@@@3@$$CBV?$Block@$$CBV?$Block@V?$Matrix@N$03$03$0A@$03$03@Eigen@@$00$03$0A@@Eigen@@$00$00$0A@@3@@2@XZ
	?derived@?$EigenBase@V?$CwiseNullaryOp@U?$scalar_constant_op@N@internal@Eigen@@V?$Matrix@N$00$02$00$00$02@3@@Eigen@@@Eigen@@QEBAAEBV?$CwiseNullaryOp@U?$scalar_constant_op@N@internal@Eigen@@V?$Matrix@N$00$02$00$00$02@3@@2@XZ
	?derived@?$EigenBase@V?$CwiseNullaryOp@U?$scalar_constant_op@N@internal@Eigen@@V?$Matrix@N$02$00$0A@$02$00@3@@Eigen@@@Eigen@@QEBAAEBV?$CwiseNullaryOp@U?$scalar_constant_op@N@internal@Eigen@@V?$Matrix@N$02$00$0A@$02$00@3@@2@XZ
	?derived@?$EigenBase@V?$CwiseNullaryOp@U?$scalar_identity_op@N@internal@Eigen@@V?$Matrix@N$02$02$0A@$02$02@3@@Eigen@@@Eigen@@QEBAAEBV?$CwiseNullaryOp@U?$scalar_identity_op@N@internal@Eigen@@V?$Matrix@N$02$02$0A@$02$02@3@@2@XZ
	?derived@?$EigenBase@V?$Diagonal@$$CBV?$Block@$$CBV?$Matrix@N$03$03$0A@$03$03@Eigen@@$02$02$0A@@Eigen@@$0A@@Eigen@@@Eigen@@QEBAAEBV?$Diagonal@$$CBV?$Block@$$CBV?$Matrix@N$03$03$0A@$03$03@Eigen@@$02$02$0A@@Eigen@@$0A@@2@XZ
	?derived@?$EigenBase@V?$Matrix@N$02$00$0A@$02$00@Eigen@@@Eigen@@QEAAAEAV?$Matrix@N$02$00$0A@$02$00@2@XZ
	?derived@?$EigenBase@V?$Matrix@N$02$00$0A@$02$00@Eigen@@@Eigen@@QEBAAEBV?$Matrix@N$02$00$0A@$02$00@2@XZ
	?derived@?$EigenBase@V?$Matrix@N$02$02$0A@$02$02@Eigen@@@Eigen@@QEAAAEAV?$Matrix@N$02$02$0A@$02$02@2@XZ
	?derived@?$EigenBase@V?$Matrix@N$02$02$0A@$02$02@Eigen@@@Eigen@@QEBAAEBV?$Matrix@N$02$02$0A@$02$02@2@XZ
	?derived@?$EigenBase@V?$Matrix@N$02$03$0A@$02$03@Eigen@@@Eigen@@QEAAAEAV?$Matrix@N$02$03$0A@$02$03@2@XZ
	?derived@?$EigenBase@V?$Matrix@N$02$03$0A@$02$03@Eigen@@@Eigen@@QEBAAEBV?$Matrix@N$02$03$0A@$02$03@2@XZ
	?derived@?$EigenBase@V?$Matrix@N$03$03$0A@$03$03@Eigen@@@Eigen@@QEAAAEAV?$Matrix@N$03$03$0A@$03$03@2@XZ
	?derived@?$EigenBase@V?$Matrix@N$03$03$0A@$03$03@Eigen@@@Eigen@@QEBAAEBV?$Matrix@N$03$03$0A@$03$03@2@XZ
	?derived@?$EigenBase@V?$Product@V?$Matrix@N$02$00$0A@$02$00@Eigen@@V?$Block@V?$Matrix@N$03$03$0A@$03$03@Eigen@@$00$03$0A@@2@$0A@@Eigen@@@Eigen@@QEBAAEBV?$Product@V?$Matrix@N$02$00$0A@$02$00@Eigen@@V?$Block@V?$Matrix@N$03$03$0A@$03$03@Eigen@@$00$03$0A@@2@$0A@@2@XZ
	?derived@?$EigenBase@V?$Transpose@$$CBV?$Block@$$CBV?$Matrix@N$02$00$0A@$02$00@Eigen@@$00$00$0A@@Eigen@@@Eigen@@@Eigen@@QEBAAEBV?$Transpose@$$CBV?$Block@$$CBV?$Matrix@N$02$00$0A@$02$00@Eigen@@$00$00$0A@@Eigen@@@2@XZ
	?derived@?$RotationBase@V?$Quaternion@N$0A@@Eigen@@$02@Eigen@@QEAAAEAV?$Quaternion@N$0A@@2@XZ
	?derived@?$RotationBase@V?$Quaternion@N$0A@@Eigen@@$02@Eigen@@QEBAAEBV?$Quaternion@N$0A@@2@XZ
	?destroy@sp_counted_base@detail@boost@@UEAAXXZ
	?diagonal@?$MatrixBase@V?$Block@$$CBV?$Matrix@N$03$03$0A@$03$03@Eigen@@$02$02$0A@@Eigen@@@Eigen@@QEBA?BV?$Diagonal@$$CBV?$Block@$$CBV?$Matrix@N$03$03$0A@$03$03@Eigen@@$02$02$0A@@Eigen@@$0A@@2@XZ
	?dispose@?$sp_counted_impl_pd@PEAEU?$checked_array_deleter@E@boost@@@detail@boost@@UEAAXXZ
	?empty@?$vector@NV?$allocator@N@std@@@std@@QEBA_NXZ
	?empty@?$vector@U?$ColorRGBA_@V?$allocator@X@std@@@std_msgs@@V?$allocator@U?$ColorRGBA_@V?$allocator@X@std@@@std_msgs@@@std@@@std@@QEBA_NXZ
	?empty@?$vector@U?$MeshTriangle_@V?$allocator@X@std@@@shape_msgs@@V?$allocator@U?$MeshTriangle_@V?$allocator@X@std@@@shape_msgs@@@std@@@std@@QEBA_NXZ
	?empty@?$vector@U?$Plane_@V?$allocator@X@std@@@shape_msgs@@V?$allocator@U?$Plane_@V?$allocator@X@std@@@shape_msgs@@@std@@@std@@QEBA_NXZ
	?empty@?$vector@U?$Point_@V?$allocator@X@std@@@geometry_msgs@@V?$allocator@U?$Point_@V?$allocator@X@std@@@geometry_msgs@@@std@@@std@@QEBA_NXZ
	?empty@?$vector@U?$Pose_@V?$allocator@X@std@@@geometry_msgs@@V?$allocator@U?$Pose_@V?$allocator@X@std@@@geometry_msgs@@@std@@@std@@QEBA_NXZ
	?empty@?$vector@U?$Transform_@V?$allocator@X@std@@@geometry_msgs@@V?$allocator@U?$Transform_@V?$allocator@X@std@@@geometry_msgs@@@std@@@std@@QEBA_NXZ
	?empty@?$vector@U?$Twist_@V?$allocator@X@std@@@geometry_msgs@@V?$allocator@U?$Twist_@V?$allocator@X@std@@@geometry_msgs@@@std@@@std@@QEBA_NXZ
	?empty@?$vector@U?$Wrench_@V?$allocator@X@std@@@geometry_msgs@@V?$allocator@U?$Wrench_@V?$allocator@X@std@@@geometry_msgs@@@std@@@std@@QEBA_NXZ
	?empty@function_base@boost@@QEBA_NXZ
	?end@?$vector@U?$AttachedCollisionObject_@V?$allocator@X@std@@@moveit_msgs@@V?$allocator@U?$AttachedCollisionObject_@V?$allocator@X@std@@@moveit_msgs@@@std@@@std@@QEBA?AV?$_Vector_const_iterator@V?$_Vector_val@U?$_Simple_types@U?$AttachedCollisionObject_@V?$allocator@X@std@@@moveit_msgs@@@std@@@std@@@2@XZ
	?end@?$vector@U?$ColorRGBA_@V?$allocator@X@std@@@std_msgs@@V?$allocator@U?$ColorRGBA_@V?$allocator@X@std@@@std_msgs@@@std@@@std@@QEBA?AV?$_Vector_const_iterator@V?$_Vector_val@U?$_Simple_types@U?$ColorRGBA_@V?$allocator@X@std@@@std_msgs@@@std@@@std@@@2@XZ
	?end@?$vector@U?$JointTrajectoryPoint_@V?$allocator@X@std@@@trajectory_msgs@@V?$allocator@U?$JointTrajectoryPoint_@V?$allocator@X@std@@@trajectory_msgs@@@std@@@std@@QEBA?AV?$_Vector_const_iterator@V?$_Vector_val@U?$_Simple_types@U?$JointTrajectoryPoint_@V?$allocator@X@std@@@trajectory_msgs@@@std@@@std@@@2@XZ
	?end@?$vector@U?$MeshTriangle_@V?$allocator@X@std@@@shape_msgs@@V?$allocator@U?$MeshTriangle_@V?$allocator@X@std@@@shape_msgs@@@std@@@std@@QEBA?AV?$_Vector_const_iterator@V?$_Vector_val@U?$_Simple_types@U?$MeshTriangle_@V?$allocator@X@std@@@shape_msgs@@@std@@@std@@@2@XZ
	?end@?$vector@U?$Mesh_@V?$allocator@X@std@@@shape_msgs@@V?$allocator@U?$Mesh_@V?$allocator@X@std@@@shape_msgs@@@std@@@std@@QEBA?AV?$_Vector_const_iterator@V?$_Vector_val@U?$_Simple_types@U?$Mesh_@V?$allocator@X@std@@@shape_msgs@@@std@@@std@@@2@XZ
	?end@?$vector@U?$ObjectColor_@V?$allocator@X@std@@@moveit_msgs@@V?$allocator@U?$ObjectColor_@V?$allocator@X@std@@@moveit_msgs@@@std@@@std@@QEBA?AV?$_Vector_const_iterator@V?$_Vector_val@U?$_Simple_types@U?$ObjectColor_@V?$allocator@X@std@@@moveit_msgs@@@std@@@std@@@2@XZ
	?end@?$vector@U?$Plane_@V?$allocator@X@std@@@shape_msgs@@V?$allocator@U?$Plane_@V?$allocator@X@std@@@shape_msgs@@@std@@@std@@QEBA?AV?$_Vector_const_iterator@V?$_Vector_val@U?$_Simple_types@U?$Plane_@V?$allocator@X@std@@@shape_msgs@@@std@@@std@@@2@XZ
	?end@?$vector@U?$Point_@V?$allocator@X@std@@@geometry_msgs@@V?$allocator@U?$Point_@V?$allocator@X@std@@@geometry_msgs@@@std@@@std@@QEBA?AV?$_Vector_const_iterator@V?$_Vector_val@U?$_Simple_types@U?$Point_@V?$allocator@X@std@@@geometry_msgs@@@std@@@std@@@2@XZ
	?end@?$vector@U?$Pose_@V?$allocator@X@std@@@geometry_msgs@@V?$allocator@U?$Pose_@V?$allocator@X@std@@@geometry_msgs@@@std@@@std@@QEBA?AV?$_Vector_const_iterator@V?$_Vector_val@U?$_Simple_types@U?$Pose_@V?$allocator@X@std@@@geometry_msgs@@@std@@@std@@@2@XZ
	?end@?$vector@U?$SolidPrimitive_@V?$allocator@X@std@@@shape_msgs@@V?$allocator@U?$SolidPrimitive_@V?$allocator@X@std@@@shape_msgs@@@std@@@std@@QEBA?AV?$_Vector_const_iterator@V?$_Vector_val@U?$_Simple_types@U?$SolidPrimitive_@V?$allocator@X@std@@@shape_msgs@@@std@@@std@@@2@XZ
	?end@?$vector@U?$Transform_@V?$allocator@X@std@@@geometry_msgs@@V?$allocator@U?$Transform_@V?$allocator@X@std@@@geometry_msgs@@@std@@@std@@QEBA?AV?$_Vector_const_iterator@V?$_Vector_val@U?$_Simple_types@U?$Transform_@V?$allocator@X@std@@@geometry_msgs@@@std@@@std@@@2@XZ
	?end@?$vector@U?$Twist_@V?$allocator@X@std@@@geometry_msgs@@V?$allocator@U?$Twist_@V?$allocator@X@std@@@geometry_msgs@@@std@@@std@@QEBA?AV?$_Vector_const_iterator@V?$_Vector_val@U?$_Simple_types@U?$Twist_@V?$allocator@X@std@@@geometry_msgs@@@std@@@std@@@2@XZ
	?end@?$vector@U?$Wrench_@V?$allocator@X@std@@@geometry_msgs@@V?$allocator@U?$Wrench_@V?$allocator@X@std@@@geometry_msgs@@@std@@@std@@QEBA?AV?$_Vector_const_iterator@V?$_Vector_val@U?$_Simple_types@U?$Wrench_@V?$allocator@X@std@@@geometry_msgs@@@std@@@std@@@2@XZ
	?end@?$vector@V?$basic_string@DU?$char_traits@D@std@@V?$allocator@D@2@@std@@V?$allocator@V?$basic_string@DU?$char_traits@D@std@@V?$allocator@D@2@@std@@@2@@std@@QEBA?AV?$_Vector_const_iterator@V?$_Vector_val@U?$_Simple_types@V?$basic_string@DU?$char_traits@D@std@@V?$allocator@D@2@@std@@@std@@@std@@@2@XZ
	?eof@?$_Narrow_char_traits@DH@std@@SAHXZ
	?eq@?$_Narrow_char_traits@DH@std@@SA_NAEBD0@Z
	?eq_int_type@?$_Narrow_char_traits@DH@std@@SA_NAEBH0@Z
	?equal@stl_type_index@typeindex@boost@@QEBA_NAEBV123@@Z
	?fetch_add@?$_Atomic_integral@H$03@std@@QEAAHHW4memory_order@2@@Z
	?fetch_sub@?$_Atomic_integral_facade@H@std@@QEAAHHW4memory_order@2@@Z
	?fromMsg@tf2@@YAXAEBU?$Pose_@V?$allocator@X@std@@@geometry_msgs@@AEAV?$Transform@N$02$00$0A@@Eigen@@@Z
	?front@?$array@I$02@boost@@QEBAAEBIXZ
	?front@?$array@N$03@boost@@QEBAAEBNXZ
	?front@?$vector@NV?$allocator@N@std@@@std@@QEBAAEBNXZ
	?front@?$vector@U?$ColorRGBA_@V?$allocator@X@std@@@std_msgs@@V?$allocator@U?$ColorRGBA_@V?$allocator@X@std@@@std_msgs@@@std@@@std@@QEBAAEBU?$ColorRGBA_@V?$allocator@X@std@@@std_msgs@@XZ
	?front@?$vector@U?$MeshTriangle_@V?$allocator@X@std@@@shape_msgs@@V?$allocator@U?$MeshTriangle_@V?$allocator@X@std@@@shape_msgs@@@std@@@std@@QEBAAEBU?$MeshTriangle_@V?$allocator@X@std@@@shape_msgs@@XZ
	?front@?$vector@U?$Plane_@V?$allocator@X@std@@@shape_msgs@@V?$allocator@U?$Plane_@V?$allocator@X@std@@@shape_msgs@@@std@@@std@@QEBAAEBU?$Plane_@V?$allocator@X@std@@@shape_msgs@@XZ
	?front@?$vector@U?$Point_@V?$allocator@X@std@@@geometry_msgs@@V?$allocator@U?$Point_@V?$allocator@X@std@@@geometry_msgs@@@std@@@std@@QEBAAEBU?$Point_@V?$allocator@X@std@@@geometry_msgs@@XZ
	?front@?$vector@U?$Pose_@V?$allocator@X@std@@@geometry_msgs@@V?$allocator@U?$Pose_@V?$allocator@X@std@@@geometry_msgs@@@std@@@std@@QEBAAEBU?$Pose_@V?$allocator@X@std@@@geometry_msgs@@XZ
	?front@?$vector@U?$Transform_@V?$allocator@X@std@@@geometry_msgs@@V?$allocator@U?$Transform_@V?$allocator@X@std@@@geometry_msgs@@@std@@@std@@QEBAAEBU?$Transform_@V?$allocator@X@std@@@geometry_msgs@@XZ
	?front@?$vector@U?$Twist_@V?$allocator@X@std@@@geometry_msgs@@V?$allocator@U?$Twist_@V?$allocator@X@std@@@geometry_msgs@@@std@@@std@@QEBAAEBU?$Twist_@V?$allocator@X@std@@@geometry_msgs@@XZ
	?front@?$vector@U?$Wrench_@V?$allocator@X@std@@@geometry_msgs@@V?$allocator@U?$Wrench_@V?$allocator@X@std@@@geometry_msgs@@@std@@@std@@QEBAAEBU?$Wrench_@V?$allocator@X@std@@@geometry_msgs@@XZ
	?functor@?$CwiseBinaryOp@U?$scalar_product_op@NN@internal@Eigen@@$$CBV?$Transpose@$$CBV?$Block@$$CBV?$Matrix@N$02$00$0A@$02$00@Eigen@@$00$00$0A@@Eigen@@@3@$$CBV?$Block@$$CBV?$Block@V?$Matrix@N$03$03$0A@$03$03@Eigen@@$00$03$0A@@Eigen@@$00$00$0A@@3@@Eigen@@QEBAAEBU?$scalar_product_op@NN@internal@2@XZ
	?functor@?$CwiseNullaryOp@U?$scalar_constant_op@N@internal@Eigen@@V?$Matrix@N$00$02$00$00$02@3@@Eigen@@QEBAAEBU?$scalar_constant_op@N@internal@2@XZ
	?functor@?$CwiseNullaryOp@U?$scalar_constant_op@N@internal@Eigen@@V?$Matrix@N$02$00$0A@$02$00@3@@Eigen@@QEBAAEBU?$scalar_constant_op@N@internal@2@XZ
	?functor@?$CwiseNullaryOp@U?$scalar_identity_op@N@internal@Eigen@@V?$Matrix@N$02$02$0A@$02$02@3@@Eigen@@QEBAAEBU?$scalar_identity_op@N@internal@2@XZ
	?get@?$_Ptr_base@$$CBVRobotModel@core@moveit@@@std@@IEBAPEBVRobotModel@core@moveit@@XZ
	?get@?$_Ptr_base@VRobotModel@core@moveit@@@std@@IEBAPEAVRobotModel@core@moveit@@XZ
	?get@?$_Ptr_base@VRobotState@core@moveit@@@std@@IEBAPEAVRobotState@core@moveit@@XZ
	?get@?$refcount_ptr@Uerror_info_container@exception_detail@boost@@@exception_detail@boost@@QEBAPEAUerror_info_container@23@XZ
	?get@?$reference_wrapper@$$CBU?$DisplayRobotState_@V?$allocator@X@std@@@moveit_msgs@@@boost@@QEBAAEBU?$DisplayRobotState_@V?$allocator@X@std@@@moveit_msgs@@XZ
	?get@?$reference_wrapper@$$CBU?$Marker_@V?$allocator@X@std@@@visualization_msgs@@@boost@@QEBAAEBU?$Marker_@V?$allocator@X@std@@@visualization_msgs@@XZ
	?get@?$shared_array@E@boost@@QEBAPEAEXZ
	?get@?$value@PEAVInteractiveRobot@@@_bi@boost@@QEAAAEAPEAVInteractiveRobot@@XZ
	?getGlobalLinkTransform@RobotState@core@moveit@@QEAAAEBV?$Transform@N$02$00$0A@@Eigen@@AEBV?$basic_string@DU?$char_traits@D@std@@V?$allocator@D@2@@std@@@Z
	?getGlobalLinkTransform@RobotState@core@moveit@@QEAAAEBV?$Transform@N$02$00$0A@@Eigen@@PEBVLinkModel@23@@Z
	?getGroupName@InteractiveRobot@@QEBAAEBV?$basic_string@DU?$char_traits@D@std@@V?$allocator@D@2@@std@@XZ
	?getJointModelGroup@RobotState@core@moveit@@QEBAPEBVJointModelGroup@23@AEBV?$basic_string@DU?$char_traits@D@std@@V?$allocator@D@2@@std@@@Z
	?getLinkIndex@LinkModel@core@moveit@@QEBAHXZ
	?getLinkModelNames@JointModelGroup@core@moveit@@QEBAAEBV?$vector@V?$basic_string@DU?$char_traits@D@std@@V?$allocator@D@2@@std@@V?$allocator@V?$basic_string@DU?$char_traits@D@std@@V?$allocator@D@2@@std@@@2@@std@@XZ
	?getModel@RobotModelLoader@robot_model_loader@@QEBAAEBV?$shared_ptr@VRobotModel@core@moveit@@@std@@XZ
	?getName@JointModelGroup@core@moveit@@QEBAAEBV?$basic_string@DU?$char_traits@D@std@@V?$allocator@D@2@@std@@XZ
	?getWorldGeometry@InteractiveRobot@@QEAAXAEAV?$Transform@N$02$00$0A@@Eigen@@AEAN@Z
	?get_deleter@?$sp_counted_impl_pd@PEAEU?$checked_array_deleter@E@boost@@@detail@boost@@UEAAPEAXAEBVtype_info@@@Z
	?get_local_deleter@?$sp_counted_impl_pd@PEAEU?$checked_array_deleter@E@boost@@@detail@boost@@UEAAPEAXAEBVtype_info@@@Z
	?get_untyped_deleter@?$sp_counted_impl_pd@PEAEU?$checked_array_deleter@E@boost@@@detail@boost@@UEAAPEAXXZ
	?get_vtable@?$function0@VSerializedMessage@ros@@@boost@@AEBAPEAU?$basic_vtable0@VSerializedMessage@ros@@@function@detail@2@XZ
	?get_vtable@?$function1@XAEAVInteractiveRobot@@@boost@@AEBAPEAU?$basic_vtable1@XAEAVInteractiveRobot@@@function@detail@2@XZ
	?get_vtable@?$function1@XAEBUTimerEvent@ros@@@boost@@AEBAPEAU?$basic_vtable1@XAEBUTimerEvent@ros@@@function@detail@2@XZ
	?get_vtable@?$function1@XAEBV?$shared_ptr@$$CBU?$InteractiveMarkerFeedback_@V?$allocator@X@std@@@visualization_msgs@@@boost@@@boost@@AEBAPEAU?$basic_vtable1@XAEBV?$shared_ptr@$$CBU?$InteractiveMarkerFeedback_@V?$allocator@X@std@@@visualization_msgs@@@boost@@@function@detail@2@XZ
	?get_vtable@?$function1@XAEBVSingleSubscriberPublisher@ros@@@boost@@AEBAPEAU?$basic_vtable1@XAEBVSingleSubscriberPublisher@ros@@@function@detail@2@XZ
	?get_vtable@?$function3@_NPEAVRobotState@core@moveit@@PEBVJointModelGroup@23@PEBN@boost@@AEBAPEAU?$basic_vtable3@_NPEAVRobotState@core@moveit@@PEBVJointModelGroup@23@PEBN@function@detail@2@XZ
	?has_empty_target@function@detail@boost@@YA_NZZ
	?has_trivial_copy_and_destroy@function_base@boost@@QEBA_NXZ
	?index@?$Diagonal@$$CBV?$Block@$$CBV?$Matrix@N$03$03$0A@$03$03@Eigen@@$02$02$0A@@Eigen@@$0A@@Eigen@@QEBA_JXZ
	?init@?$BlockImpl_dense@$$CBV?$Block@V?$Matrix@N$03$03$0A@$03$03@Eigen@@$00$03$0A@@Eigen@@$00$00$0A@$00@internal@Eigen@@IEAAXXZ
	?init@?$BlockImpl_dense@$$CBV?$Matrix@N$02$00$0A@$02$00@Eigen@@$00$00$0A@$00@internal@Eigen@@IEAAXXZ
	?init@?$BlockImpl_dense@$$CBV?$Matrix@N$03$03$0A@$03$03@Eigen@@$02$00$00$00@internal@Eigen@@IEAAXXZ
	?init@?$BlockImpl_dense@$$CBV?$Matrix@N$03$03$0A@$03$03@Eigen@@$02$02$0A@$00@internal@Eigen@@IEAAXXZ
	?init@?$BlockImpl_dense@V?$Matrix@N$03$03$0A@$03$03@Eigen@@$00$02$0A@$00@internal@Eigen@@IEAAXXZ
	?init@?$BlockImpl_dense@V?$Matrix@N$03$03$0A@$03$03@Eigen@@$00$03$0A@$00@internal@Eigen@@IEAAXXZ
	?init@?$BlockImpl_dense@V?$Matrix@N$03$03$0A@$03$03@Eigen@@$02$00$00$00@internal@Eigen@@IEAAXXZ
	?init@?$BlockImpl_dense@V?$Matrix@N$03$03$0A@$03$03@Eigen@@$02$02$0A@$00@internal@Eigen@@IEAAXXZ
	?init@?$BlockImpl_dense@V?$Matrix@N$03$03$0A@$03$03@Eigen@@$02$03$0A@$00@internal@Eigen@@IEAAXXZ
	?initialize@IMarker@@AEAAXAEAVInteractiveMarkerServer@interactive_markers@@AEBV?$basic_string@DU?$char_traits@D@std@@V?$allocator@D@2@@std@@AEBV?$Matrix@N$02$00$0A@$02$00@Eigen@@AEBV?$Quaternion@N$0A@@7@1V?$function@$$A6AXAEBV?$shared_ptr@$$CBU?$InteractiveMarkerFeedback_@V?$allocator@X@std@@@visualization_msgs@@@boost@@@Z@boost@@W4Dof@1@@Z
	?innerSize@?$DenseBase@V?$Matrix@N$02$00$0A@$02$00@Eigen@@@Eigen@@QEBA_JXZ
	?innerSize@?$DenseBase@V?$Matrix@N$02$02$0A@$02$02@Eigen@@@Eigen@@QEBA_JXZ
	?innerSize@?$DenseBase@V?$Matrix@N$02$03$0A@$02$03@Eigen@@@Eigen@@QEBA_JXZ
	?innerSize@?$DenseBase@V?$Matrix@N$03$03$0A@$03$03@Eigen@@@Eigen@@QEBA_JXZ
	?innerStride@?$BlockImpl_dense@$$CBV?$Block@V?$Matrix@N$03$03$0A@$03$03@Eigen@@$00$03$0A@@Eigen@@$00$00$0A@$00@internal@Eigen@@QEBA_JXZ
	?innerStride@?$BlockImpl_dense@$$CBV?$Matrix@N$02$00$0A@$02$00@Eigen@@$00$00$0A@$00@internal@Eigen@@QEBA_JXZ
	?innerStride@?$BlockImpl_dense@$$CBV?$Matrix@N$03$03$0A@$03$03@Eigen@@$02$00$00$00@internal@Eigen@@QEBA_JXZ
	?innerStride@?$BlockImpl_dense@$$CBV?$Matrix@N$03$03$0A@$03$03@Eigen@@$02$02$0A@$00@internal@Eigen@@QEBA_JXZ
	?innerStride@?$BlockImpl_dense@V?$Matrix@N$03$03$0A@$03$03@Eigen@@$00$02$0A@$00@internal@Eigen@@QEBA_JXZ
	?innerStride@?$BlockImpl_dense@V?$Matrix@N$03$03$0A@$03$03@Eigen@@$00$03$0A@$00@internal@Eigen@@QEBA_JXZ
	?innerStride@?$BlockImpl_dense@V?$Matrix@N$03$03$0A@$03$03@Eigen@@$02$00$00$00@internal@Eigen@@QEBA_JXZ
	?innerStride@?$BlockImpl_dense@V?$Matrix@N$03$03$0A@$03$03@Eigen@@$02$02$0A@$00@internal@Eigen@@QEBA_JXZ
	?innerStride@?$BlockImpl_dense@V?$Matrix@N$03$03$0A@$03$03@Eigen@@$02$03$0A@$00@internal@Eigen@@QEBA_JXZ
	?innerStride@?$DenseCoeffsBase@V?$Block@$$CBV?$Matrix@N$03$03$0A@$03$03@Eigen@@$02$02$0A@@Eigen@@$01@Eigen@@QEBA_JXZ
	?innerStride@?$Matrix@N$02$00$0A@$02$00@Eigen@@QEBA_JXZ
	?innerStride@?$Matrix@N$03$03$0A@$03$03@Eigen@@QEBA_JXZ
	?invoke@?$function_obj_invoker0@V?$bind_t@VSerializedMessage@ros@@P6A?AV12@AEBU?$DisplayRobotState_@V?$allocator@X@std@@@moveit_msgs@@@ZV?$list1@V?$reference_wrapper@$$CBU?$DisplayRobotState_@V?$allocator@X@std@@@moveit_msgs@@@boost@@@_bi@boost@@@_bi@boost@@VSerializedMessage@ros@@@function@detail@boost@@SA?AVSerializedMessage@ros@@AEATfunction_buffer@234@@Z
	?invoke@?$function_obj_invoker0@V?$bind_t@VSerializedMessage@ros@@P6A?AV12@AEBU?$Marker_@V?$allocator@X@std@@@visualization_msgs@@@ZV?$list1@V?$reference_wrapper@$$CBU?$Marker_@V?$allocator@X@std@@@visualization_msgs@@@boost@@@_bi@boost@@@_bi@boost@@VSerializedMessage@ros@@@function@detail@boost@@SA?AVSerializedMessage@ros@@AEATfunction_buffer@234@@Z
	?invoke@?$void_function_obj_invoker1@V?$bind_t@XP6AXPEAVInteractiveRobot@@AEBV?$shared_ptr@$$CBU?$InteractiveMarkerFeedback_@V?$allocator@X@std@@@visualization_msgs@@@boost@@@ZV?$list2@V?$value@PEAVInteractiveRobot@@@_bi@boost@@U?$arg@$00@3@@_bi@3@@_bi@boost@@XAEBV?$shared_ptr@$$CBU?$InteractiveMarkerFeedback_@V?$allocator@X@std@@@visualization_msgs@@@3@@function@detail@boost@@SAXAEATfunction_buffer@234@AEBV?$shared_ptr@$$CBU?$InteractiveMarkerFeedback_@V?$allocator@X@std@@@visualization_msgs@@@4@@Z
	?invoke@?$void_function_obj_invoker1@V?$bind_t@XV?$mf1@XVInteractiveRobot@@AEBUTimerEvent@ros@@@_mfi@boost@@V?$list2@V?$value@PEAVInteractiveRobot@@@_bi@boost@@U?$arg@$00@3@@_bi@3@@_bi@boost@@XAEBUTimerEvent@ros@@@function@detail@boost@@SAXAEATfunction_buffer@234@AEBUTimerEvent@ros@@@Z
	?length@?$_Narrow_char_traits@DH@std@@SA_KQEBD@Z
	?lhs@?$CwiseBinaryOp@U?$scalar_product_op@NN@internal@Eigen@@$$CBV?$Transpose@$$CBV?$Block@$$CBV?$Matrix@N$02$00$0A@$02$00@Eigen@@$00$00$0A@@Eigen@@@3@$$CBV?$Block@$$CBV?$Block@V?$Matrix@N$03$03$0A@$03$03@Eigen@@$00$03$0A@@Eigen@@$00$00$0A@@3@@Eigen@@QEBAAEBV?$Transpose@$$CBV?$Block@$$CBV?$Matrix@N$02$00$0A@$02$00@Eigen@@$00$00$0A@@Eigen@@@2@XZ
	?lhs@?$Product@V?$Matrix@N$02$00$0A@$02$00@Eigen@@V?$Block@V?$Matrix@N$03$03$0A@$03$03@Eigen@@$00$03$0A@@2@$00@Eigen@@QEBAAEBV?$Matrix@N$02$00$0A@$02$00@2@XZ
	?lhs@?$Product@V?$Matrix@N$02$00$0A@$02$00@Eigen@@V?$Block@V?$Matrix@N$03$03$0A@$03$03@Eigen@@$00$03$0A@@2@$0A@@Eigen@@QEBAAEBV?$Matrix@N$02$00$0A@$02$00@2@XZ
	?linear@?$Transform@N$02$00$0A@@Eigen@@QEAA?AV?$Block@V?$Matrix@N$03$03$0A@$03$03@Eigen@@$02$02$0A@@2@XZ
	?linear@?$Transform@N$02$00$0A@@Eigen@@QEBA?BV?$Block@$$CBV?$Matrix@N$03$03$0A@$03$03@Eigen@@$02$02$0A@@2@XZ
	?makeAffine@?$Transform@N$02$00$0A@@Eigen@@QEAAXXZ
	?makeAxisControl@IMarker@@AEAAXXZ
	?makeAxisCyl@IMarker@@AEAA?AU?$Marker_@V?$allocator@X@std@@@visualization_msgs@@W4Axis@1@@Z
	?makeBallControl@IMarker@@AEAAXXZ
	?manage@?$functor_manager@V?$bind_t@VSerializedMessage@ros@@P6A?AV12@AEBU?$DisplayRobotState_@V?$allocator@X@std@@@moveit_msgs@@@ZV?$list1@V?$reference_wrapper@$$CBU?$DisplayRobotState_@V?$allocator@X@std@@@moveit_msgs@@@boost@@@_bi@boost@@@_bi@boost@@@function@detail@boost@@SAXAEBTfunction_buffer@234@AEAT5234@W4functor_manager_operation_type@234@@Z
	?manage@?$functor_manager@V?$bind_t@VSerializedMessage@ros@@P6A?AV12@AEBU?$Marker_@V?$allocator@X@std@@@visualization_msgs@@@ZV?$list1@V?$reference_wrapper@$$CBU?$Marker_@V?$allocator@X@std@@@visualization_msgs@@@boost@@@_bi@boost@@@_bi@boost@@@function@detail@boost@@SAXAEBTfunction_buffer@234@AEAT5234@W4functor_manager_operation_type@234@@Z
	?manage@?$functor_manager@V?$bind_t@XP6AXPEAVInteractiveRobot@@AEBV?$shared_ptr@$$CBU?$InteractiveMarkerFeedback_@V?$allocator@X@std@@@visualization_msgs@@@boost@@@ZV?$list2@V?$value@PEAVInteractiveRobot@@@_bi@boost@@U?$arg@$00@3@@_bi@3@@_bi@boost@@@function@detail@boost@@SAXAEBTfunction_buffer@234@AEAT5234@W4functor_manager_operation_type@234@@Z
	?manage@?$functor_manager@V?$bind_t@XV?$mf1@XVInteractiveRobot@@AEBUTimerEvent@ros@@@_mfi@boost@@V?$list2@V?$value@PEAVInteractiveRobot@@@_bi@boost@@U?$arg@$00@3@@_bi@3@@_bi@boost@@@function@detail@boost@@SAXAEBTfunction_buffer@234@AEAT5234@W4functor_manager_operation_type@234@@Z
	?manage_small@?$functor_manager_common@V?$bind_t@VSerializedMessage@ros@@P6A?AV12@AEBU?$DisplayRobotState_@V?$allocator@X@std@@@moveit_msgs@@@ZV?$list1@V?$reference_wrapper@$$CBU?$DisplayRobotState_@V?$allocator@X@std@@@moveit_msgs@@@boost@@@_bi@boost@@@_bi@boost@@@function@detail@boost@@SAXAEBTfunction_buffer@234@AEAT5234@W4functor_manager_operation_type@234@@Z
	?manage_small@?$functor_manager_common@V?$bind_t@VSerializedMessage@ros@@P6A?AV12@AEBU?$Marker_@V?$allocator@X@std@@@visualization_msgs@@@ZV?$list1@V?$reference_wrapper@$$CBU?$Marker_@V?$allocator@X@std@@@visualization_msgs@@@boost@@@_bi@boost@@@_bi@boost@@@function@detail@boost@@SAXAEBTfunction_buffer@234@AEAT5234@W4functor_manager_operation_type@234@@Z
	?manage_small@?$functor_manager_common@V?$bind_t@XP6AXPEAVInteractiveRobot@@AEBV?$shared_ptr@$$CBU?$InteractiveMarkerFeedback_@V?$allocator@X@std@@@visualization_msgs@@@boost@@@ZV?$list2@V?$value@PEAVInteractiveRobot@@@_bi@boost@@U?$arg@$00@3@@_bi@3@@_bi@boost@@@function@detail@boost@@SAXAEBTfunction_buffer@234@AEAT5234@W4functor_manager_operation_type@234@@Z
	?manage_small@?$functor_manager_common@V?$bind_t@XV?$mf1@XVInteractiveRobot@@AEBUTimerEvent@ros@@@_mfi@boost@@V?$list2@V?$value@PEAVInteractiveRobot@@@_bi@boost@@U?$arg@$00@3@@_bi@3@@_bi@boost@@@function@detail@boost@@SAXAEBTfunction_buffer@234@AEAT5234@W4functor_manager_operation_type@234@@Z
	?manager@?$functor_manager@V?$bind_t@VSerializedMessage@ros@@P6A?AV12@AEBU?$DisplayRobotState_@V?$allocator@X@std@@@moveit_msgs@@@ZV?$list1@V?$reference_wrapper@$$CBU?$DisplayRobotState_@V?$allocator@X@std@@@moveit_msgs@@@boost@@@_bi@boost@@@_bi@boost@@@function@detail@boost@@CAXAEBTfunction_buffer@234@AEAT5234@W4functor_manager_operation_type@234@U?$bool_@$00@mpl@4@@Z
	?manager@?$functor_manager@V?$bind_t@VSerializedMessage@ros@@P6A?AV12@AEBU?$DisplayRobotState_@V?$allocator@X@std@@@moveit_msgs@@@ZV?$list1@V?$reference_wrapper@$$CBU?$DisplayRobotState_@V?$allocator@X@std@@@moveit_msgs@@@boost@@@_bi@boost@@@_bi@boost@@@function@detail@boost@@CAXAEBTfunction_buffer@234@AEAT5234@W4functor_manager_operation_type@234@Ufunction_obj_tag@234@@Z
	?manager@?$functor_manager@V?$bind_t@VSerializedMessage@ros@@P6A?AV12@AEBU?$Marker_@V?$allocator@X@std@@@visualization_msgs@@@ZV?$list1@V?$reference_wrapper@$$CBU?$Marker_@V?$allocator@X@std@@@visualization_msgs@@@boost@@@_bi@boost@@@_bi@boost@@@function@detail@boost@@CAXAEBTfunction_buffer@234@AEAT5234@W4functor_manager_operation_type@234@U?$bool_@$00@mpl@4@@Z
	?manager@?$functor_manager@V?$bind_t@VSerializedMessage@ros@@P6A?AV12@AEBU?$Marker_@V?$allocator@X@std@@@visualization_msgs@@@ZV?$list1@V?$reference_wrapper@$$CBU?$Marker_@V?$allocator@X@std@@@visualization_msgs@@@boost@@@_bi@boost@@@_bi@boost@@@function@detail@boost@@CAXAEBTfunction_buffer@234@AEAT5234@W4functor_manager_operation_type@234@Ufunction_obj_tag@234@@Z
	?manager@?$functor_manager@V?$bind_t@XP6AXPEAVInteractiveRobot@@AEBV?$shared_ptr@$$CBU?$InteractiveMarkerFeedback_@V?$allocator@X@std@@@visualization_msgs@@@boost@@@ZV?$list2@V?$value@PEAVInteractiveRobot@@@_bi@boost@@U?$arg@$00@3@@_bi@3@@_bi@boost@@@function@detail@boost@@CAXAEBTfunction_buffer@234@AEAT5234@W4functor_manager_operation_type@234@U?$bool_@$00@mpl@4@@Z
	?manager@?$functor_manager@V?$bind_t@XP6AXPEAVInteractiveRobot@@AEBV?$shared_ptr@$$CBU?$InteractiveMarkerFeedback_@V?$allocator@X@std@@@visualization_msgs@@@boost@@@ZV?$list2@V?$value@PEAVInteractiveRobot@@@_bi@boost@@U?$arg@$00@3@@_bi@3@@_bi@boost@@@function@detail@boost@@CAXAEBTfunction_buffer@234@AEAT5234@W4functor_manager_operation_type@234@Ufunction_obj_tag@234@@Z
	?manager@?$functor_manager@V?$bind_t@XV?$mf1@XVInteractiveRobot@@AEBUTimerEvent@ros@@@_mfi@boost@@V?$list2@V?$value@PEAVInteractiveRobot@@@_bi@boost@@U?$arg@$00@3@@_bi@3@@_bi@boost@@@function@detail@boost@@CAXAEBTfunction_buffer@234@AEAT5234@W4functor_manager_operation_type@234@U?$bool_@$00@mpl@4@@Z
	?manager@?$functor_manager@V?$bind_t@XV?$mf1@XVInteractiveRobot@@AEBUTimerEvent@ros@@@_mfi@boost@@V?$list2@V?$value@PEAVInteractiveRobot@@@_bi@boost@@U?$arg@$00@3@@_bi@3@@_bi@boost@@@function@detail@boost@@CAXAEBTfunction_buffer@234@AEAT5234@W4functor_manager_operation_type@234@Ufunction_obj_tag@234@@Z
	?max@?$numeric_limits@_J@std@@SA_JXZ
	?max_size@?$_Default_allocator_traits@V?$allocator@D@std@@@std@@SA_KAEBV?$allocator@D@2@@Z
	?max_size@?$_Default_allocator_traits@V?$allocator@U?$InteractiveMarkerControl_@V?$allocator@X@std@@@visualization_msgs@@@std@@@std@@SA_KAEBV?$allocator@U?$InteractiveMarkerControl_@V?$allocator@X@std@@@visualization_msgs@@@2@@Z
	?max_size@?$_Default_allocator_traits@V?$allocator@U?$Marker_@V?$allocator@X@std@@@visualization_msgs@@@std@@@std@@SA_KAEBV?$allocator@U?$Marker_@V?$allocator@X@std@@@visualization_msgs@@@2@@Z
	?max_size@?$basic_string@DU?$char_traits@D@std@@V?$allocator@D@2@@std@@QEBA_KXZ
	?max_size@?$vector@U?$InteractiveMarkerControl_@V?$allocator@X@std@@@visualization_msgs@@V?$allocator@U?$InteractiveMarkerControl_@V?$allocator@X@std@@@visualization_msgs@@@std@@@std@@QEBA_KXZ
	?max_size@?$vector@U?$Marker_@V?$allocator@X@std@@@visualization_msgs@@V?$allocator@U?$Marker_@V?$allocator@X@std@@@visualization_msgs@@@std@@@std@@QEBA_KXZ
	?move@?$_Char_traits@DH@std@@SAPEADQEADQEBD_K@Z
	?move@IMarker@@QEAAXAEBV?$Transform@N$02$00$0A@@Eigen@@@Z
	?move_assign@?$function1@XAEBVSingleSubscriberPublisher@ros@@@boost@@AEAAXAEAV12@@Z
	?movedRobotMarkerCallback@InteractiveRobot@@CAXPEAV1@AEBV?$shared_ptr@$$CBU?$InteractiveMarkerFeedback_@V?$allocator@X@std@@@visualization_msgs@@@boost@@@Z
	?movedWorldMarkerCallback@InteractiveRobot@@CAXPEAV1@AEBV?$shared_ptr@$$CBU?$InteractiveMarkerFeedback_@V?$allocator@X@std@@@visualization_msgs@@@boost@@@Z
	?nestedExpression@?$Diagonal@$$CBV?$Block@$$CBV?$Matrix@N$03$03$0A@$03$03@Eigen@@$02$02$0A@@Eigen@@$0A@@Eigen@@QEBAAEBV?$Block@$$CBV?$Matrix@N$03$03$0A@$03$03@Eigen@@$02$02$0A@@2@XZ
	?nestedExpression@?$Transpose@$$CBV?$Block@$$CBV?$Matrix@N$02$00$0A@$02$00@Eigen@@$00$00$0A@@Eigen@@@Eigen@@QEBAAEBV?$Block@$$CBV?$Matrix@N$02$00$0A@$02$00@Eigen@@$00$00$0A@@2@XZ
	?nonnull@dummy@?$function1@XAEAVInteractiveRobot@@@boost@@QEAAXXZ
	?not_eof@?$_Narrow_char_traits@DH@std@@SAHAEBH@Z
	?outerSize@?$DenseBase@V?$Block@V?$Matrix@N$03$03$0A@$03$03@Eigen@@$02$02$0A@@Eigen@@@Eigen@@QEBA_JXZ
	?outerSize@?$DenseBase@V?$Block@V?$Matrix@N$03$03$0A@$03$03@Eigen@@$02$03$0A@@Eigen@@@Eigen@@QEBA_JXZ
	?outerSize@?$DenseBase@V?$Matrix@N$02$03$0A@$02$03@Eigen@@@Eigen@@QEBA_JXZ
	?outerSize@?$generic_dense_assignment_kernel@U?$evaluator@V?$Block@V?$Matrix@N$03$03$0A@$03$03@Eigen@@$02$02$0A@@Eigen@@@internal@Eigen@@U?$evaluator@V?$Matrix@N$02$02$0A@$02$02@Eigen@@@23@U?$assign_op@NN@23@$0A@@internal@Eigen@@QEBA_JXZ
	?outerSize@?$generic_dense_assignment_kernel@U?$evaluator@V?$Block@V?$Matrix@N$03$03$0A@$03$03@Eigen@@$02$03$0A@@Eigen@@@internal@Eigen@@U?$evaluator@V?$Matrix@N$02$03$0A@$02$03@Eigen@@@23@U?$add_assign_op@NN@23@$0A@@internal@Eigen@@QEBA_JXZ
	?outerSize@?$generic_dense_assignment_kernel@U?$evaluator@V?$Matrix@N$02$03$0A@$02$03@Eigen@@@internal@Eigen@@U?$evaluator@V?$Product@V?$Matrix@N$02$00$0A@$02$00@Eigen@@V?$Block@V?$Matrix@N$03$03$0A@$03$03@Eigen@@$00$03$0A@@2@$00@Eigen@@@23@U?$assign_op@NN@23@$0A@@internal@Eigen@@QEBA_JXZ
	?outerStride@?$BlockImpl_dense@$$CBV?$Block@V?$Matrix@N$03$03$0A@$03$03@Eigen@@$00$03$0A@@Eigen@@$00$00$0A@$00@internal@Eigen@@QEBA_JXZ
	?outerStride@?$BlockImpl_dense@$$CBV?$Matrix@N$02$00$0A@$02$00@Eigen@@$00$00$0A@$00@internal@Eigen@@QEBA_JXZ
	?outerStride@?$BlockImpl_dense@$$CBV?$Matrix@N$03$03$0A@$03$03@Eigen@@$02$00$00$00@internal@Eigen@@QEBA_JXZ
	?outerStride@?$BlockImpl_dense@$$CBV?$Matrix@N$03$03$0A@$03$03@Eigen@@$02$02$0A@$00@internal@Eigen@@QEBA_JXZ
	?outerStride@?$BlockImpl_dense@V?$Matrix@N$03$03$0A@$03$03@Eigen@@$00$02$0A@$00@internal@Eigen@@QEBA_JXZ
	?outerStride@?$BlockImpl_dense@V?$Matrix@N$03$03$0A@$03$03@Eigen@@$00$03$0A@$00@internal@Eigen@@QEBA_JXZ
	?outerStride@?$BlockImpl_dense@V?$Matrix@N$03$03$0A@$03$03@Eigen@@$02$00$00$00@internal@Eigen@@QEBA_JXZ
	?outerStride@?$BlockImpl_dense@V?$Matrix@N$03$03$0A@$03$03@Eigen@@$02$02$0A@$00@internal@Eigen@@QEBA_JXZ
	?outerStride@?$BlockImpl_dense@V?$Matrix@N$03$03$0A@$03$03@Eigen@@$02$03$0A@$00@internal@Eigen@@QEBA_JXZ
	?outerStride@?$DenseCoeffsBase@V?$Block@$$CBV?$Matrix@N$03$03$0A@$03$03@Eigen@@$02$02$0A@@Eigen@@$01@Eigen@@QEBA_JXZ
	?outerStride@?$DenseCoeffsBase@V?$Matrix@N$02$00$0A@$02$00@Eigen@@$02@Eigen@@QEBA_JXZ
	?outerStride@?$DenseCoeffsBase@V?$Matrix@N$02$02$0A@$02$02@Eigen@@$02@Eigen@@QEBA_JXZ
	?outerStride@?$DenseCoeffsBase@V?$Matrix@N$02$03$0A@$02$03@Eigen@@$02@Eigen@@QEBA_JXZ
	?outerStride@?$DenseCoeffsBase@V?$Matrix@N$03$03$0A@$03$03@Eigen@@$02@Eigen@@QEBA_JXZ
	?outerStride@?$Matrix@N$02$00$0A@$02$00@Eigen@@QEBA_JXZ
	?outerStride@?$Matrix@N$02$02$0A@$02$02@Eigen@@QEBA_JXZ
	?outerStride@?$Matrix@N$02$03$0A@$02$03@Eigen@@QEBA_JXZ
	?outerStride@?$Matrix@N$03$03$0A@$03$03@Eigen@@QEBA_JXZ
	?overflow@?$basic_stringbuf@DU?$char_traits@D@std@@V?$allocator@D@2@@std@@MEAAHH@Z
	?pbackfail@?$basic_stringbuf@DU?$char_traits@D@std@@V?$allocator@D@2@@std@@MEAAHH@Z
	?pointer_to@?$pointer_traits@PEAD@std@@SAPEADAEAD@Z
	?printFeedback@IMarker@@SAXAEBV?$shared_ptr@$$CBU?$InteractiveMarkerFeedback_@V?$allocator@X@std@@@visualization_msgs@@@boost@@@Z
	?publishRobotState@InteractiveRobot@@AEAAXXZ
	?publishWorldState@InteractiveRobot@@AEAAXXZ
	?push_back@?$vector@U?$InteractiveMarkerControl_@V?$allocator@X@std@@@visualization_msgs@@V?$allocator@U?$InteractiveMarkerControl_@V?$allocator@X@std@@@visualization_msgs@@@std@@@std@@QEAAXAEBU?$InteractiveMarkerControl_@V?$allocator@X@std@@@visualization_msgs@@@Z
	?push_back@?$vector@U?$Marker_@V?$allocator@X@std@@@visualization_msgs@@V?$allocator@U?$Marker_@V?$allocator@X@std@@@visualization_msgs@@@std@@@std@@QEAAX$$QEAU?$Marker_@V?$allocator@X@std@@@visualization_msgs@@@Z
	?release@?$refcount_ptr@Uerror_info_container@exception_detail@boost@@@exception_detail@boost@@AEAAXXZ
	?release@sp_counted_base@detail@boost@@QEAAXXZ
	?resize@?$DenseBase@V?$Block@V?$Matrix@N$03$03$0A@$03$03@Eigen@@$00$02$0A@@Eigen@@@Eigen@@QEAAX_J0@Z
	?resize@?$DenseBase@V?$Block@V?$Matrix@N$03$03$0A@$03$03@Eigen@@$02$00$00@Eigen@@@Eigen@@QEAAX_J0@Z
	?resize@?$DenseBase@V?$Block@V?$Matrix@N$03$03$0A@$03$03@Eigen@@$02$02$0A@@Eigen@@@Eigen@@QEAAX_J0@Z
	?resize@?$DenseStorage@N$02$02$00$0A@@Eigen@@QEAAX_J00@Z
	?resize@?$DenseStorage@N$08$02$02$0A@@Eigen@@QEAAX_J00@Z
	?resize@?$DenseStorage@N$0BA@$03$03$0A@@Eigen@@QEAAX_J00@Z
	?resize@?$DenseStorage@N$0M@$02$03$0A@@Eigen@@QEAAX_J00@Z
	?resize@?$PlainObjectBase@V?$Matrix@N$02$00$0A@$02$00@Eigen@@@Eigen@@QEAAX_J0@Z
	?resize@?$PlainObjectBase@V?$Matrix@N$02$02$0A@$02$02@Eigen@@@Eigen@@QEAAX_J0@Z
	?resize@?$PlainObjectBase@V?$Matrix@N$02$03$0A@$02$03@Eigen@@@Eigen@@QEAAX_J0@Z
	?resize@?$PlainObjectBase@V?$Matrix@N$03$03$0A@$03$03@Eigen@@@Eigen@@QEAAX_J0@Z
	?rethrow@?$clone_impl@U?$error_info_injector@Vbad_function_call@boost@@@exception_detail@boost@@@exception_detail@boost@@$0PPPPPPPM@A@EBAXXZ
	?rethrow@?$clone_impl@U?$error_info_injector@Vbad_function_call@boost@@@exception_detail@boost@@@exception_detail@boost@@EEBAXXZ
	?rhs@?$CwiseBinaryOp@U?$scalar_product_op@NN@internal@Eigen@@$$CBV?$Transpose@$$CBV?$Block@$$CBV?$Matrix@N$02$00$0A@$02$00@Eigen@@$00$00$0A@@Eigen@@@3@$$CBV?$Block@$$CBV?$Block@V?$Matrix@N$03$03$0A@$03$03@Eigen@@$00$03$0A@@Eigen@@$00$00$0A@@3@@Eigen@@QEBAAEBV?$Block@$$CBV?$Block@V?$Matrix@N$03$03$0A@$03$03@Eigen@@$00$03$0A@@Eigen@@$00$00$0A@@2@XZ
	?rhs@?$Product@V?$Matrix@N$02$00$0A@$02$00@Eigen@@V?$Block@V?$Matrix@N$03$03$0A@$03$03@Eigen@@$00$03$0A@@2@$00@Eigen@@QEBAAEBV?$Block@V?$Matrix@N$03$03$0A@$03$03@Eigen@@$00$03$0A@@2@XZ
	?rhs@?$Product@V?$Matrix@N$02$00$0A@$02$00@Eigen@@V?$Block@V?$Matrix@N$03$03$0A@$03$03@Eigen@@$00$03$0A@@2@$0A@@Eigen@@QEBAAEBV?$Block@V?$Matrix@N$03$03$0A@$03$03@Eigen@@$00$03$0A@@2@XZ
	?row@?$DenseBase@V?$Matrix@N$02$00$0A@$02$00@Eigen@@@Eigen@@QEBA?BV?$Block@$$CBV?$Matrix@N$02$00$0A@$02$00@Eigen@@$00$00$0A@@2@_J@Z
	?row@?$DenseBase@V?$Matrix@N$03$03$0A@$03$03@Eigen@@@Eigen@@QEAA?AV?$Block@V?$Matrix@N$03$03$0A@$03$03@Eigen@@$00$03$0A@@2@_J@Z
	?rowIndexByOuterInner@?$generic_dense_assignment_kernel@U?$evaluator@V?$Block@V?$Matrix@N$03$03$0A@$03$03@Eigen@@$02$00$00@Eigen@@@internal@Eigen@@U?$evaluator@V?$CwiseNullaryOp@U?$scalar_constant_op@N@internal@Eigen@@V?$Matrix@N$02$00$0A@$02$00@3@@Eigen@@@23@U?$assign_op@NN@23@$0A@@internal@Eigen@@SA_J_J0@Z
	?rowIndexByOuterInner@?$generic_dense_assignment_kernel@U?$evaluator@V?$Block@V?$Matrix@N$03$03$0A@$03$03@Eigen@@$02$00$00@Eigen@@@internal@Eigen@@U?$evaluator@V?$Matrix@N$02$00$0A@$02$00@Eigen@@@23@U?$add_assign_op@NN@23@$0A@@internal@Eigen@@SA_J_J0@Z
	?rowIndexByOuterInner@?$generic_dense_assignment_kernel@U?$evaluator@V?$Block@V?$Matrix@N$03$03$0A@$03$03@Eigen@@$02$00$00@Eigen@@@internal@Eigen@@U?$evaluator@V?$Matrix@N$02$00$0A@$02$00@Eigen@@@23@U?$assign_op@NN@23@$0A@@internal@Eigen@@SA_J_J0@Z
	?rowIndexByOuterInner@?$generic_dense_assignment_kernel@U?$evaluator@V?$Block@V?$Matrix@N$03$03$0A@$03$03@Eigen@@$02$02$0A@@Eigen@@@internal@Eigen@@U?$evaluator@V?$CwiseNullaryOp@U?$scalar_identity_op@N@internal@Eigen@@V?$Matrix@N$02$02$0A@$02$02@3@@Eigen@@@23@U?$assign_op@NN@23@$0A@@internal@Eigen@@SA_J_J0@Z
	?rowIndexByOuterInner@?$generic_dense_assignment_kernel@U?$evaluator@V?$Block@V?$Matrix@N$03$03$0A@$03$03@Eigen@@$02$02$0A@@Eigen@@@internal@Eigen@@U?$evaluator@V?$Matrix@N$02$02$0A@$02$02@Eigen@@@23@U?$assign_op@NN@23@$0A@@internal@Eigen@@SA_J_J0@Z
	?rowIndexByOuterInner@?$generic_dense_assignment_kernel@U?$evaluator@V?$Block@V?$Matrix@N$03$03$0A@$03$03@Eigen@@$02$03$0A@@Eigen@@@internal@Eigen@@U?$evaluator@V?$Matrix@N$02$03$0A@$02$03@Eigen@@@23@U?$add_assign_op@NN@23@$0A@@internal@Eigen@@SA_J_J0@Z
	?rowIndexByOuterInner@?$generic_dense_assignment_kernel@U?$evaluator@V?$Matrix@N$02$00$0A@$02$00@Eigen@@@internal@Eigen@@U?$evaluator@V?$Block@$$CBV?$Matrix@N$03$03$0A@$03$03@Eigen@@$02$00$00@Eigen@@@23@U?$assign_op@NN@23@$0A@@internal@Eigen@@SA_J_J0@Z
	?rowIndexByOuterInner@?$generic_dense_assignment_kernel@U?$evaluator@V?$Matrix@N$02$02$0A@$02$02@Eigen@@@internal@Eigen@@U123@U?$assign_op@NN@23@$0A@@internal@Eigen@@SA_J_J0@Z
	?rowIndexByOuterInner@?$generic_dense_assignment_kernel@U?$evaluator@V?$Matrix@N$02$03$0A@$02$03@Eigen@@@internal@Eigen@@U?$evaluator@V?$Product@V?$Matrix@N$02$00$0A@$02$00@Eigen@@V?$Block@V?$Matrix@N$03$03$0A@$03$03@Eigen@@$00$03$0A@@2@$00@Eigen@@@23@U?$assign_op@NN@23@$0A@@internal@Eigen@@SA_J_J0@Z
	?rowIndexByOuterInner@?$generic_dense_assignment_kernel@U?$evaluator@V?$Matrix@N$03$03$0A@$03$03@Eigen@@@internal@Eigen@@U123@U?$assign_op@NN@23@$0A@@internal@Eigen@@SA_J_J0@Z
	?rowOffset@?$evaluator@V?$Diagonal@$$CBV?$Block@$$CBV?$Matrix@N$03$03$0A@$03$03@Eigen@@$02$02$0A@@Eigen@@$0A@@Eigen@@@internal@Eigen@@AEBA_JXZ
	?rowStride@?$DenseCoeffsBase@V?$Block@$$CBV?$Matrix@N$03$03$0A@$03$03@Eigen@@$02$02$0A@@Eigen@@$01@Eigen@@QEBA_JXZ
	?rowStride@?$mapbase_evaluator@V?$Block@$$CBV?$Block@V?$Matrix@N$03$03$0A@$03$03@Eigen@@$00$03$0A@@Eigen@@$00$00$0A@@Eigen@@V?$Matrix@N$00$00$00$00$00@2@@internal@Eigen@@IEBA_JXZ
	?rowStride@?$mapbase_evaluator@V?$Block@$$CBV?$Matrix@N$02$00$0A@$02$00@Eigen@@$00$00$0A@@Eigen@@V?$Matrix@N$00$00$0A@$00$00@2@@internal@Eigen@@IEBA_JXZ
	?rowStride@?$mapbase_evaluator@V?$Block@$$CBV?$Matrix@N$03$03$0A@$03$03@Eigen@@$02$00$00@Eigen@@V?$Matrix@N$02$00$0A@$02$00@2@@internal@Eigen@@IEBA_JXZ
	?rowStride@?$mapbase_evaluator@V?$Block@$$CBV?$Matrix@N$03$03$0A@$03$03@Eigen@@$02$02$0A@@Eigen@@V?$Matrix@N$02$02$0A@$02$02@2@@internal@Eigen@@IEBA_JXZ
	?rowStride@?$mapbase_evaluator@V?$Block@V?$Matrix@N$03$03$0A@$03$03@Eigen@@$00$03$0A@@Eigen@@V?$Matrix@N$00$03$00$00$03@2@@internal@Eigen@@IEBA_JXZ
	?rowStride@?$mapbase_evaluator@V?$Block@V?$Matrix@N$03$03$0A@$03$03@Eigen@@$02$00$00@Eigen@@V?$Matrix@N$02$00$0A@$02$00@2@@internal@Eigen@@IEBA_JXZ
	?rowStride@?$mapbase_evaluator@V?$Block@V?$Matrix@N$03$03$0A@$03$03@Eigen@@$02$02$0A@@Eigen@@V?$Matrix@N$02$02$0A@$02$02@2@@internal@Eigen@@IEBA_JXZ
	?rowStride@?$mapbase_evaluator@V?$Block@V?$Matrix@N$03$03$0A@$03$03@Eigen@@$02$03$0A@@Eigen@@V?$Matrix@N$02$03$0A@$02$03@2@@internal@Eigen@@IEBA_JXZ
	?rows@?$CwiseNullaryOp@U?$scalar_constant_op@N@internal@Eigen@@V?$Matrix@N$00$02$00$00$02@3@@Eigen@@QEBA_JXZ
	?rows@?$CwiseNullaryOp@U?$scalar_constant_op@N@internal@Eigen@@V?$Matrix@N$02$00$0A@$02$00@3@@Eigen@@QEBA_JXZ
	?rows@?$CwiseNullaryOp@U?$scalar_identity_op@N@internal@Eigen@@V?$Matrix@N$02$02$0A@$02$02@3@@Eigen@@QEBA_JXZ
	?rows@?$DenseStorage@N$02$02$00$0A@@Eigen@@SA_JXZ
	?rows@?$DenseStorage@N$08$02$02$0A@@Eigen@@SA_JXZ
	?rows@?$DenseStorage@N$0BA@$03$03$0A@@Eigen@@SA_JXZ
	?rows@?$DenseStorage@N$0M@$02$03$0A@@Eigen@@SA_JXZ
	?rows@?$EigenBase@V?$Block@V?$Matrix@N$03$03$0A@$03$03@Eigen@@$00$02$0A@@Eigen@@@Eigen@@QEBA_JXZ
	?rows@?$EigenBase@V?$Block@V?$Matrix@N$03$03$0A@$03$03@Eigen@@$02$00$00@Eigen@@@Eigen@@QEBA_JXZ
	?rows@?$EigenBase@V?$Block@V?$Matrix@N$03$03$0A@$03$03@Eigen@@$02$02$0A@@Eigen@@@Eigen@@QEBA_JXZ
	?rows@?$EigenBase@V?$Block@V?$Matrix@N$03$03$0A@$03$03@Eigen@@$02$03$0A@@Eigen@@@Eigen@@QEBA_JXZ
	?rows@?$EigenBase@V?$Matrix@N$02$00$0A@$02$00@Eigen@@@Eigen@@QEBA_JXZ
	?rows@?$EigenBase@V?$Matrix@N$02$02$0A@$02$02@Eigen@@@Eigen@@QEBA_JXZ
	?rows@?$EigenBase@V?$Matrix@N$02$03$0A@$02$03@Eigen@@@Eigen@@QEBA_JXZ
	?rows@?$EigenBase@V?$Matrix@N$03$03$0A@$03$03@Eigen@@@Eigen@@QEBA_JXZ
	?rows@?$MapBase@V?$Block@$$CBV?$Matrix@N$03$03$0A@$03$03@Eigen@@$02$00$00@Eigen@@$0A@@Eigen@@QEBA_JXZ
	?rows@?$MapBase@V?$Block@V?$Matrix@N$03$03$0A@$03$03@Eigen@@$00$02$0A@@Eigen@@$0A@@Eigen@@QEBA_JXZ
	?rows@?$MapBase@V?$Block@V?$Matrix@N$03$03$0A@$03$03@Eigen@@$00$03$0A@@Eigen@@$0A@@Eigen@@QEBA_JXZ
	?rows@?$MapBase@V?$Block@V?$Matrix@N$03$03$0A@$03$03@Eigen@@$02$00$00@Eigen@@$0A@@Eigen@@QEBA_JXZ
	?rows@?$MapBase@V?$Block@V?$Matrix@N$03$03$0A@$03$03@Eigen@@$02$02$0A@@Eigen@@$0A@@Eigen@@QEBA_JXZ
	?rows@?$MapBase@V?$Block@V?$Matrix@N$03$03$0A@$03$03@Eigen@@$02$03$0A@@Eigen@@$0A@@Eigen@@QEBA_JXZ
	?rows@?$PlainObjectBase@V?$Matrix@N$02$00$0A@$02$00@Eigen@@@Eigen@@QEBA_JXZ
	?rows@?$PlainObjectBase@V?$Matrix@N$02$02$0A@$02$02@Eigen@@@Eigen@@QEBA_JXZ
	?rows@?$PlainObjectBase@V?$Matrix@N$02$03$0A@$02$03@Eigen@@@Eigen@@QEBA_JXZ
	?rows@?$PlainObjectBase@V?$Matrix@N$03$03$0A@$03$03@Eigen@@@Eigen@@QEBA_JXZ
	?rows@?$Product@V?$Matrix@N$02$00$0A@$02$00@Eigen@@V?$Block@V?$Matrix@N$03$03$0A@$03$03@Eigen@@$00$03$0A@@2@$00@Eigen@@QEBA_JXZ
	?rows@?$Product@V?$Matrix@N$02$00$0A@$02$00@Eigen@@V?$Block@V?$Matrix@N$03$03$0A@$03$03@Eigen@@$00$03$0A@@2@$0A@@Eigen@@QEBA_JXZ
	?run@?$Assignment@V?$Block@V?$Matrix@N$03$03$0A@$03$03@Eigen@@$00$02$0A@@Eigen@@V?$CwiseNullaryOp@U?$scalar_constant_op@N@internal@Eigen@@V?$Matrix@N$00$02$00$00$02@3@@2@U?$assign_op@NN@internal@2@UDense2Dense@52@X@internal@Eigen@@SAXAEAV?$Block@V?$Matrix@N$03$03$0A@$03$03@Eigen@@$00$02$0A@@3@AEBV?$CwiseNullaryOp@U?$scalar_constant_op@N@internal@Eigen@@V?$Matrix@N$00$02$00$00$02@3@@3@AEBU?$assign_op@NN@23@@Z
	?run@?$Assignment@V?$Block@V?$Matrix@N$03$03$0A@$03$03@Eigen@@$02$00$00@Eigen@@V?$CwiseNullaryOp@U?$scalar_constant_op@N@internal@Eigen@@V?$Matrix@N$02$00$0A@$02$00@3@@2@U?$assign_op@NN@internal@2@UDense2Dense@52@X@internal@Eigen@@SAXAEAV?$Block@V?$Matrix@N$03$03$0A@$03$03@Eigen@@$02$00$00@3@AEBV?$CwiseNullaryOp@U?$scalar_constant_op@N@internal@Eigen@@V?$Matrix@N$02$00$0A@$02$00@3@@3@AEBU?$assign_op@NN@23@@Z
	?run@?$Assignment@V?$Block@V?$Matrix@N$03$03$0A@$03$03@Eigen@@$02$00$00@Eigen@@V?$Matrix@N$02$00$0A@$02$00@2@U?$add_assign_op@NN@internal@2@UDense2Dense@52@X@internal@Eigen@@SAXAEAV?$Block@V?$Matrix@N$03$03$0A@$03$03@Eigen@@$02$00$00@3@AEBV?$Matrix@N$02$00$0A@$02$00@3@AEBU?$add_assign_op@NN@23@@Z
	?run@?$Assignment@V?$Block@V?$Matrix@N$03$03$0A@$03$03@Eigen@@$02$00$00@Eigen@@V?$Matrix@N$02$00$0A@$02$00@2@U?$assign_op@NN@internal@2@UDense2Dense@52@X@internal@Eigen@@SAXAEAV?$Block@V?$Matrix@N$03$03$0A@$03$03@Eigen@@$02$00$00@3@AEBV?$Matrix@N$02$00$0A@$02$00@3@AEBU?$assign_op@NN@23@@Z
	?run@?$Assignment@V?$Block@V?$Matrix@N$03$03$0A@$03$03@Eigen@@$02$02$0A@@Eigen@@V?$CwiseNullaryOp@U?$scalar_identity_op@N@internal@Eigen@@V?$Matrix@N$02$02$0A@$02$02@3@@2@U?$assign_op@NN@internal@2@UDense2Dense@52@X@internal@Eigen@@SAXAEAV?$Block@V?$Matrix@N$03$03$0A@$03$03@Eigen@@$02$02$0A@@3@AEBV?$CwiseNullaryOp@U?$scalar_identity_op@N@internal@Eigen@@V?$Matrix@N$02$02$0A@$02$02@3@@3@AEBU?$assign_op@NN@23@@Z
	?run@?$Assignment@V?$Block@V?$Matrix@N$03$03$0A@$03$03@Eigen@@$02$02$0A@@Eigen@@V?$Matrix@N$02$02$0A@$02$02@2@U?$assign_op@NN@internal@2@UDense2Dense@52@X@internal@Eigen@@SAXAEAV?$Block@V?$Matrix@N$03$03$0A@$03$03@Eigen@@$02$02$0A@@3@AEBV?$Matrix@N$02$02$0A@$02$02@3@AEBU?$assign_op@NN@23@@Z
	?run@?$Assignment@V?$Block@V?$Matrix@N$03$03$0A@$03$03@Eigen@@$02$03$0A@@Eigen@@V?$Matrix@N$02$03$0A@$02$03@2@U?$add_assign_op@NN@internal@2@UDense2Dense@52@X@internal@Eigen@@SAXAEAV?$Block@V?$Matrix@N$03$03$0A@$03$03@Eigen@@$02$03$0A@@3@AEBV?$Matrix@N$02$03$0A@$02$03@3@AEBU?$add_assign_op@NN@23@@Z
	?run@?$Assignment@V?$Matrix@N$02$00$0A@$02$00@Eigen@@V?$Block@$$CBV?$Matrix@N$03$03$0A@$03$03@Eigen@@$02$00$00@2@U?$assign_op@NN@internal@2@UDense2Dense@52@X@internal@Eigen@@SAXAEAV?$Matrix@N$02$00$0A@$02$00@3@AEBV?$Block@$$CBV?$Matrix@N$03$03$0A@$03$03@Eigen@@$02$00$00@3@AEBU?$assign_op@NN@23@@Z
	?run@?$Assignment@V?$Matrix@N$02$02$0A@$02$02@Eigen@@V12@U?$assign_op@NN@internal@2@UDense2Dense@42@X@internal@Eigen@@SAXAEAV?$Matrix@N$02$02$0A@$02$02@3@AEBV43@AEBU?$assign_op@NN@23@@Z
	?run@?$Assignment@V?$Matrix@N$02$03$0A@$02$03@Eigen@@V?$Product@V?$Matrix@N$02$00$0A@$02$00@Eigen@@V?$Block@V?$Matrix@N$03$03$0A@$03$03@Eigen@@$00$03$0A@@2@$00@2@U?$assign_op@NN@internal@2@UDense2Dense@52@X@internal@Eigen@@SAXAEAV?$Matrix@N$02$03$0A@$02$03@3@AEBV?$Product@V?$Matrix@N$02$00$0A@$02$00@Eigen@@V?$Block@V?$Matrix@N$03$03$0A@$03$03@Eigen@@$00$03$0A@@2@$00@3@AEBU?$assign_op@NN@23@@Z
	?run@?$Assignment@V?$Matrix@N$02$03$0A@$02$03@Eigen@@V?$Product@V?$Matrix@N$02$00$0A@$02$00@Eigen@@V?$Block@V?$Matrix@N$03$03$0A@$03$03@Eigen@@$00$03$0A@@2@$0A@@2@U?$assign_op@NN@internal@2@UDense2Dense@52@X@internal@Eigen@@SAXAEAV?$Matrix@N$02$03$0A@$02$03@3@AEBV?$Product@V?$Matrix@N$02$00$0A@$02$00@Eigen@@V?$Block@V?$Matrix@N$03$03$0A@$03$03@Eigen@@$00$03$0A@@2@$0A@@3@AEBU?$assign_op@NN@23@@Z
	?run@?$Assignment@V?$Matrix@N$03$03$0A@$03$03@Eigen@@V12@U?$assign_op@NN@internal@2@UDense2Dense@42@X@internal@Eigen@@SAXAEAV?$Matrix@N$03$03$0A@$03$03@3@AEBV43@AEBU?$assign_op@NN@23@@Z
	?run@?$copy_using_evaluator_DefaultTraversal_CompleteUnrolling@V?$generic_dense_assignment_kernel@U?$evaluator@V?$Block@V?$Matrix@N$03$03$0A@$03$03@Eigen@@$02$00$00@Eigen@@@internal@Eigen@@U?$evaluator@V?$CwiseNullaryOp@U?$scalar_constant_op@N@internal@Eigen@@V?$Matrix@N$02$00$0A@$02$00@3@@Eigen@@@23@U?$assign_op@NN@23@$0A@@internal@Eigen@@$01$02@internal@Eigen@@SAXAEAV?$generic_dense_assignment_kernel@U?$evaluator@V?$Block@V?$Matrix@N$03$03$0A@$03$03@Eigen@@$02$00$00@Eigen@@@internal@Eigen@@U?$evaluator@V?$CwiseNullaryOp@U?$scalar_constant_op@N@internal@Eigen@@V?$Matrix@N$02$00$0A@$02$00@3@@Eigen@@@23@U?$assign_op@NN@23@$0A@@23@@Z
	?run@?$copy_using_evaluator_DefaultTraversal_CompleteUnrolling@V?$generic_dense_assignment_kernel@U?$evaluator@V?$Block@V?$Matrix@N$03$03$0A@$03$03@Eigen@@$02$00$00@Eigen@@@internal@Eigen@@U?$evaluator@V?$CwiseNullaryOp@U?$scalar_constant_op@N@internal@Eigen@@V?$Matrix@N$02$00$0A@$02$00@3@@Eigen@@@23@U?$assign_op@NN@23@$0A@@internal@Eigen@@$02$02@internal@Eigen@@SAXAEAV?$generic_dense_assignment_kernel@U?$evaluator@V?$Block@V?$Matrix@N$03$03$0A@$03$03@Eigen@@$02$00$00@Eigen@@@internal@Eigen@@U?$evaluator@V?$CwiseNullaryOp@U?$scalar_constant_op@N@internal@Eigen@@V?$Matrix@N$02$00$0A@$02$00@3@@Eigen@@@23@U?$assign_op@NN@23@$0A@@23@@Z
	?run@?$copy_using_evaluator_DefaultTraversal_CompleteUnrolling@V?$generic_dense_assignment_kernel@U?$evaluator@V?$Block@V?$Matrix@N$03$03$0A@$03$03@Eigen@@$02$00$00@Eigen@@@internal@Eigen@@U?$evaluator@V?$Matrix@N$02$00$0A@$02$00@Eigen@@@23@U?$add_assign_op@NN@23@$0A@@internal@Eigen@@$01$02@internal@Eigen@@SAXAEAV?$generic_dense_assignment_kernel@U?$evaluator@V?$Block@V?$Matrix@N$03$03$0A@$03$03@Eigen@@$02$00$00@Eigen@@@internal@Eigen@@U?$evaluator@V?$Matrix@N$02$00$0A@$02$00@Eigen@@@23@U?$add_assign_op@NN@23@$0A@@23@@Z
	?run@?$copy_using_evaluator_DefaultTraversal_CompleteUnrolling@V?$generic_dense_assignment_kernel@U?$evaluator@V?$Block@V?$Matrix@N$03$03$0A@$03$03@Eigen@@$02$00$00@Eigen@@@internal@Eigen@@U?$evaluator@V?$Matrix@N$02$00$0A@$02$00@Eigen@@@23@U?$add_assign_op@NN@23@$0A@@internal@Eigen@@$02$02@internal@Eigen@@SAXAEAV?$generic_dense_assignment_kernel@U?$evaluator@V?$Block@V?$Matrix@N$03$03$0A@$03$03@Eigen@@$02$00$00@Eigen@@@internal@Eigen@@U?$evaluator@V?$Matrix@N$02$00$0A@$02$00@Eigen@@@23@U?$add_assign_op@NN@23@$0A@@23@@Z
	?run@?$copy_using_evaluator_DefaultTraversal_CompleteUnrolling@V?$generic_dense_assignment_kernel@U?$evaluator@V?$Block@V?$Matrix@N$03$03$0A@$03$03@Eigen@@$02$00$00@Eigen@@@internal@Eigen@@U?$evaluator@V?$Matrix@N$02$00$0A@$02$00@Eigen@@@23@U?$assign_op@NN@23@$0A@@internal@Eigen@@$01$02@internal@Eigen@@SAXAEAV?$generic_dense_assignment_kernel@U?$evaluator@V?$Block@V?$Matrix@N$03$03$0A@$03$03@Eigen@@$02$00$00@Eigen@@@internal@Eigen@@U?$evaluator@V?$Matrix@N$02$00$0A@$02$00@Eigen@@@23@U?$assign_op@NN@23@$0A@@23@@Z
	?run@?$copy_using_evaluator_DefaultTraversal_CompleteUnrolling@V?$generic_dense_assignment_kernel@U?$evaluator@V?$Block@V?$Matrix@N$03$03$0A@$03$03@Eigen@@$02$00$00@Eigen@@@internal@Eigen@@U?$evaluator@V?$Matrix@N$02$00$0A@$02$00@Eigen@@@23@U?$assign_op@NN@23@$0A@@internal@Eigen@@$02$02@internal@Eigen@@SAXAEAV?$generic_dense_assignment_kernel@U?$evaluator@V?$Block@V?$Matrix@N$03$03$0A@$03$03@Eigen@@$02$00$00@Eigen@@@internal@Eigen@@U?$evaluator@V?$Matrix@N$02$00$0A@$02$00@Eigen@@@23@U?$assign_op@NN@23@$0A@@23@@Z
	?run@?$copy_using_evaluator_DefaultTraversal_CompleteUnrolling@V?$generic_dense_assignment_kernel@U?$evaluator@V?$Block@V?$Matrix@N$03$03$0A@$03$03@Eigen@@$02$02$0A@@Eigen@@@internal@Eigen@@U?$evaluator@V?$CwiseNullaryOp@U?$scalar_identity_op@N@internal@Eigen@@V?$Matrix@N$02$02$0A@$02$02@3@@Eigen@@@23@U?$assign_op@NN@23@$0A@@internal@Eigen@@$00$08@internal@Eigen@@SAXAEAV?$generic_dense_assignment_kernel@U?$evaluator@V?$Block@V?$Matrix@N$03$03$0A@$03$03@Eigen@@$02$02$0A@@Eigen@@@internal@Eigen@@U?$evaluator@V?$CwiseNullaryOp@U?$scalar_identity_op@N@internal@Eigen@@V?$Matrix@N$02$02$0A@$02$02@3@@Eigen@@@23@U?$assign_op@NN@23@$0A@@23@@Z
	?run@?$copy_using_evaluator_DefaultTraversal_CompleteUnrolling@V?$generic_dense_assignment_kernel@U?$evaluator@V?$Block@V?$Matrix@N$03$03$0A@$03$03@Eigen@@$02$02$0A@@Eigen@@@internal@Eigen@@U?$evaluator@V?$CwiseNullaryOp@U?$scalar_identity_op@N@internal@Eigen@@V?$Matrix@N$02$02$0A@$02$02@3@@Eigen@@@23@U?$assign_op@NN@23@$0A@@internal@Eigen@@$01$08@internal@Eigen@@SAXAEAV?$generic_dense_assignment_kernel@U?$evaluator@V?$Block@V?$Matrix@N$03$03$0A@$03$03@Eigen@@$02$02$0A@@Eigen@@@internal@Eigen@@U?$evaluator@V?$CwiseNullaryOp@U?$scalar_identity_op@N@internal@Eigen@@V?$Matrix@N$02$02$0A@$02$02@3@@Eigen@@@23@U?$assign_op@NN@23@$0A@@23@@Z
	?run@?$copy_using_evaluator_DefaultTraversal_CompleteUnrolling@V?$generic_dense_assignment_kernel@U?$evaluator@V?$Block@V?$Matrix@N$03$03$0A@$03$03@Eigen@@$02$02$0A@@Eigen@@@internal@Eigen@@U?$evaluator@V?$CwiseNullaryOp@U?$scalar_identity_op@N@internal@Eigen@@V?$Matrix@N$02$02$0A@$02$02@3@@Eigen@@@23@U?$assign_op@NN@23@$0A@@internal@Eigen@@$02$08@internal@Eigen@@SAXAEAV?$generic_dense_assignment_kernel@U?$evaluator@V?$Block@V?$Matrix@N$03$03$0A@$03$03@Eigen@@$02$02$0A@@Eigen@@@internal@Eigen@@U?$evaluator@V?$CwiseNullaryOp@U?$scalar_identity_op@N@internal@Eigen@@V?$Matrix@N$02$02$0A@$02$02@3@@Eigen@@@23@U?$assign_op@NN@23@$0A@@23@@Z
	?run@?$copy_using_evaluator_DefaultTraversal_CompleteUnrolling@V?$generic_dense_assignment_kernel@U?$evaluator@V?$Block@V?$Matrix@N$03$03$0A@$03$03@Eigen@@$02$02$0A@@Eigen@@@internal@Eigen@@U?$evaluator@V?$CwiseNullaryOp@U?$scalar_identity_op@N@internal@Eigen@@V?$Matrix@N$02$02$0A@$02$02@3@@Eigen@@@23@U?$assign_op@NN@23@$0A@@internal@Eigen@@$03$08@internal@Eigen@@SAXAEAV?$generic_dense_assignment_kernel@U?$evaluator@V?$Block@V?$Matrix@N$03$03$0A@$03$03@Eigen@@$02$02$0A@@Eigen@@@internal@Eigen@@U?$evaluator@V?$CwiseNullaryOp@U?$scalar_identity_op@N@internal@Eigen@@V?$Matrix@N$02$02$0A@$02$02@3@@Eigen@@@23@U?$assign_op@NN@23@$0A@@23@@Z
	?run@?$copy_using_evaluator_DefaultTraversal_CompleteUnrolling@V?$generic_dense_assignment_kernel@U?$evaluator@V?$Block@V?$Matrix@N$03$03$0A@$03$03@Eigen@@$02$02$0A@@Eigen@@@internal@Eigen@@U?$evaluator@V?$CwiseNullaryOp@U?$scalar_identity_op@N@internal@Eigen@@V?$Matrix@N$02$02$0A@$02$02@3@@Eigen@@@23@U?$assign_op@NN@23@$0A@@internal@Eigen@@$04$08@internal@Eigen@@SAXAEAV?$generic_dense_assignment_kernel@U?$evaluator@V?$Block@V?$Matrix@N$03$03$0A@$03$03@Eigen@@$02$02$0A@@Eigen@@@internal@Eigen@@U?$evaluator@V?$CwiseNullaryOp@U?$scalar_identity_op@N@internal@Eigen@@V?$Matrix@N$02$02$0A@$02$02@3@@Eigen@@@23@U?$assign_op@NN@23@$0A@@23@@Z
	?run@?$copy_using_evaluator_DefaultTraversal_CompleteUnrolling@V?$generic_dense_assignment_kernel@U?$evaluator@V?$Block@V?$Matrix@N$03$03$0A@$03$03@Eigen@@$02$02$0A@@Eigen@@@internal@Eigen@@U?$evaluator@V?$CwiseNullaryOp@U?$scalar_identity_op@N@internal@Eigen@@V?$Matrix@N$02$02$0A@$02$02@3@@Eigen@@@23@U?$assign_op@NN@23@$0A@@internal@Eigen@@$05$08@internal@Eigen@@SAXAEAV?$generic_dense_assignment_kernel@U?$evaluator@V?$Block@V?$Matrix@N$03$03$0A@$03$03@Eigen@@$02$02$0A@@Eigen@@@internal@Eigen@@U?$evaluator@V?$CwiseNullaryOp@U?$scalar_identity_op@N@internal@Eigen@@V?$Matrix@N$02$02$0A@$02$02@3@@Eigen@@@23@U?$assign_op@NN@23@$0A@@23@@Z
	?run@?$copy_using_evaluator_DefaultTraversal_CompleteUnrolling@V?$generic_dense_assignment_kernel@U?$evaluator@V?$Block@V?$Matrix@N$03$03$0A@$03$03@Eigen@@$02$02$0A@@Eigen@@@internal@Eigen@@U?$evaluator@V?$CwiseNullaryOp@U?$scalar_identity_op@N@internal@Eigen@@V?$Matrix@N$02$02$0A@$02$02@3@@Eigen@@@23@U?$assign_op@NN@23@$0A@@internal@Eigen@@$06$08@internal@Eigen@@SAXAEAV?$generic_dense_assignment_kernel@U?$evaluator@V?$Block@V?$Matrix@N$03$03$0A@$03$03@Eigen@@$02$02$0A@@Eigen@@@internal@Eigen@@U?$evaluator@V?$CwiseNullaryOp@U?$scalar_identity_op@N@internal@Eigen@@V?$Matrix@N$02$02$0A@$02$02@3@@Eigen@@@23@U?$assign_op@NN@23@$0A@@23@@Z
	?run@?$copy_using_evaluator_DefaultTraversal_CompleteUnrolling@V?$generic_dense_assignment_kernel@U?$evaluator@V?$Block@V?$Matrix@N$03$03$0A@$03$03@Eigen@@$02$02$0A@@Eigen@@@internal@Eigen@@U?$evaluator@V?$CwiseNullaryOp@U?$scalar_identity_op@N@internal@Eigen@@V?$Matrix@N$02$02$0A@$02$02@3@@Eigen@@@23@U?$assign_op@NN@23@$0A@@internal@Eigen@@$07$08@internal@Eigen@@SAXAEAV?$generic_dense_assignment_kernel@U?$evaluator@V?$Block@V?$Matrix@N$03$03$0A@$03$03@Eigen@@$02$02$0A@@Eigen@@@internal@Eigen@@U?$evaluator@V?$CwiseNullaryOp@U?$scalar_identity_op@N@internal@Eigen@@V?$Matrix@N$02$02$0A@$02$02@3@@Eigen@@@23@U?$assign_op@NN@23@$0A@@23@@Z
	?run@?$copy_using_evaluator_DefaultTraversal_CompleteUnrolling@V?$generic_dense_assignment_kernel@U?$evaluator@V?$Block@V?$Matrix@N$03$03$0A@$03$03@Eigen@@$02$02$0A@@Eigen@@@internal@Eigen@@U?$evaluator@V?$CwiseNullaryOp@U?$scalar_identity_op@N@internal@Eigen@@V?$Matrix@N$02$02$0A@$02$02@3@@Eigen@@@23@U?$assign_op@NN@23@$0A@@internal@Eigen@@$08$08@internal@Eigen@@SAXAEAV?$generic_dense_assignment_kernel@U?$evaluator@V?$Block@V?$Matrix@N$03$03$0A@$03$03@Eigen@@$02$02$0A@@Eigen@@@internal@Eigen@@U?$evaluator@V?$CwiseNullaryOp@U?$scalar_identity_op@N@internal@Eigen@@V?$Matrix@N$02$02$0A@$02$02@3@@Eigen@@@23@U?$assign_op@NN@23@$0A@@23@@Z
	?run@?$copy_using_evaluator_DefaultTraversal_CompleteUnrolling@V?$generic_dense_assignment_kernel@U?$evaluator@V?$Block@V?$Matrix@N$03$03$0A@$03$03@Eigen@@$02$02$0A@@Eigen@@@internal@Eigen@@U?$evaluator@V?$CwiseNullaryOp@U?$scalar_identity_op@N@internal@Eigen@@V?$Matrix@N$02$02$0A@$02$02@3@@Eigen@@@23@U?$assign_op@NN@23@$0A@@internal@Eigen@@$0A@$08@internal@Eigen@@SAXAEAV?$generic_dense_assignment_kernel@U?$evaluator@V?$Block@V?$Matrix@N$03$03$0A@$03$03@Eigen@@$02$02$0A@@Eigen@@@internal@Eigen@@U?$evaluator@V?$CwiseNullaryOp@U?$scalar_identity_op@N@internal@Eigen@@V?$Matrix@N$02$02$0A@$02$02@3@@Eigen@@@23@U?$assign_op@NN@23@$0A@@23@@Z
	?run@?$copy_using_evaluator_DefaultTraversal_CompleteUnrolling@V?$generic_dense_assignment_kernel@U?$evaluator@V?$Matrix@N$02$00$0A@$02$00@Eigen@@@internal@Eigen@@U?$evaluator@V?$Block@$$CBV?$Matrix@N$03$03$0A@$03$03@Eigen@@$02$00$00@Eigen@@@23@U?$assign_op@NN@23@$0A@@internal@Eigen@@$01$02@internal@Eigen@@SAXAEAV?$generic_dense_assignment_kernel@U?$evaluator@V?$Matrix@N$02$00$0A@$02$00@Eigen@@@internal@Eigen@@U?$evaluator@V?$Block@$$CBV?$Matrix@N$03$03$0A@$03$03@Eigen@@$02$00$00@Eigen@@@23@U?$assign_op@NN@23@$0A@@23@@Z
	?run@?$copy_using_evaluator_DefaultTraversal_CompleteUnrolling@V?$generic_dense_assignment_kernel@U?$evaluator@V?$Matrix@N$02$00$0A@$02$00@Eigen@@@internal@Eigen@@U?$evaluator@V?$Block@$$CBV?$Matrix@N$03$03$0A@$03$03@Eigen@@$02$00$00@Eigen@@@23@U?$assign_op@NN@23@$0A@@internal@Eigen@@$02$02@internal@Eigen@@SAXAEAV?$generic_dense_assignment_kernel@U?$evaluator@V?$Matrix@N$02$00$0A@$02$00@Eigen@@@internal@Eigen@@U?$evaluator@V?$Block@$$CBV?$Matrix@N$03$03$0A@$03$03@Eigen@@$02$00$00@Eigen@@@23@U?$assign_op@NN@23@$0A@@23@@Z
	?run@?$copy_using_evaluator_DefaultTraversal_CompleteUnrolling@V?$generic_dense_assignment_kernel@U?$evaluator@V?$Matrix@N$02$02$0A@$02$02@Eigen@@@internal@Eigen@@U123@U?$assign_op@NN@23@$0A@@internal@Eigen@@$07$08@internal@Eigen@@SAXAEAV?$generic_dense_assignment_kernel@U?$evaluator@V?$Matrix@N$02$02$0A@$02$02@Eigen@@@internal@Eigen@@U123@U?$assign_op@NN@23@$0A@@23@@Z
	?run@?$copy_using_evaluator_DefaultTraversal_CompleteUnrolling@V?$generic_dense_assignment_kernel@U?$evaluator@V?$Matrix@N$02$02$0A@$02$02@Eigen@@@internal@Eigen@@U123@U?$assign_op@NN@23@$0A@@internal@Eigen@@$08$08@internal@Eigen@@SAXAEAV?$generic_dense_assignment_kernel@U?$evaluator@V?$Matrix@N$02$02$0A@$02$02@Eigen@@@internal@Eigen@@U123@U?$assign_op@NN@23@$0A@@23@@Z
	?run@?$copy_using_evaluator_DefaultTraversal_InnerUnrolling@V?$generic_dense_assignment_kernel@U?$evaluator@V?$Block@V?$Matrix@N$03$03$0A@$03$03@Eigen@@$02$02$0A@@Eigen@@@internal@Eigen@@U?$evaluator@V?$Matrix@N$02$02$0A@$02$02@Eigen@@@23@U?$assign_op@NN@23@$0A@@internal@Eigen@@$01$02@internal@Eigen@@SAXAEAV?$generic_dense_assignment_kernel@U?$evaluator@V?$Block@V?$Matrix@N$03$03$0A@$03$03@Eigen@@$02$02$0A@@Eigen@@@internal@Eigen@@U?$evaluator@V?$Matrix@N$02$02$0A@$02$02@Eigen@@@23@U?$assign_op@NN@23@$0A@@23@_J@Z
	?run@?$copy_using_evaluator_DefaultTraversal_InnerUnrolling@V?$generic_dense_assignment_kernel@U?$evaluator@V?$Block@V?$Matrix@N$03$03$0A@$03$03@Eigen@@$02$02$0A@@Eigen@@@internal@Eigen@@U?$evaluator@V?$Matrix@N$02$02$0A@$02$02@Eigen@@@23@U?$assign_op@NN@23@$0A@@internal@Eigen@@$02$02@internal@Eigen@@SAXAEAV?$generic_dense_assignment_kernel@U?$evaluator@V?$Block@V?$Matrix@N$03$03$0A@$03$03@Eigen@@$02$02$0A@@Eigen@@@internal@Eigen@@U?$evaluator@V?$Matrix@N$02$02$0A@$02$02@Eigen@@@23@U?$assign_op@NN@23@$0A@@23@_J@Z
	?run@?$copy_using_evaluator_DefaultTraversal_InnerUnrolling@V?$generic_dense_assignment_kernel@U?$evaluator@V?$Block@V?$Matrix@N$03$03$0A@$03$03@Eigen@@$02$03$0A@@Eigen@@@internal@Eigen@@U?$evaluator@V?$Matrix@N$02$03$0A@$02$03@Eigen@@@23@U?$add_assign_op@NN@23@$0A@@internal@Eigen@@$01$02@internal@Eigen@@SAXAEAV?$generic_dense_assignment_kernel@U?$evaluator@V?$Block@V?$Matrix@N$03$03$0A@$03$03@Eigen@@$02$03$0A@@Eigen@@@internal@Eigen@@U?$evaluator@V?$Matrix@N$02$03$0A@$02$03@Eigen@@@23@U?$add_assign_op@NN@23@$0A@@23@_J@Z
	?run@?$copy_using_evaluator_DefaultTraversal_InnerUnrolling@V?$generic_dense_assignment_kernel@U?$evaluator@V?$Block@V?$Matrix@N$03$03$0A@$03$03@Eigen@@$02$03$0A@@Eigen@@@internal@Eigen@@U?$evaluator@V?$Matrix@N$02$03$0A@$02$03@Eigen@@@23@U?$add_assign_op@NN@23@$0A@@internal@Eigen@@$02$02@internal@Eigen@@SAXAEAV?$generic_dense_assignment_kernel@U?$evaluator@V?$Block@V?$Matrix@N$03$03$0A@$03$03@Eigen@@$02$03$0A@@Eigen@@@internal@Eigen@@U?$evaluator@V?$Matrix@N$02$03$0A@$02$03@Eigen@@@23@U?$add_assign_op@NN@23@$0A@@23@_J@Z
	?run@?$copy_using_evaluator_DefaultTraversal_InnerUnrolling@V?$generic_dense_assignment_kernel@U?$evaluator@V?$Matrix@N$02$03$0A@$02$03@Eigen@@@internal@Eigen@@U?$evaluator@V?$Product@V?$Matrix@N$02$00$0A@$02$00@Eigen@@V?$Block@V?$Matrix@N$03$03$0A@$03$03@Eigen@@$00$03$0A@@2@$00@Eigen@@@23@U?$assign_op@NN@23@$0A@@internal@Eigen@@$01$02@internal@Eigen@@SAXAEAV?$generic_dense_assignment_kernel@U?$evaluator@V?$Matrix@N$02$03$0A@$02$03@Eigen@@@internal@Eigen@@U?$evaluator@V?$Product@V?$Matrix@N$02$00$0A@$02$00@Eigen@@V?$Block@V?$Matrix@N$03$03$0A@$03$03@Eigen@@$00$03$0A@@2@$00@Eigen@@@23@U?$assign_op@NN@23@$0A@@23@_J@Z
	?run@?$copy_using_evaluator_DefaultTraversal_InnerUnrolling@V?$generic_dense_assignment_kernel@U?$evaluator@V?$Matrix@N$02$03$0A@$02$03@Eigen@@@internal@Eigen@@U?$evaluator@V?$Product@V?$Matrix@N$02$00$0A@$02$00@Eigen@@V?$Block@V?$Matrix@N$03$03$0A@$03$03@Eigen@@$00$03$0A@@2@$00@Eigen@@@23@U?$assign_op@NN@23@$0A@@internal@Eigen@@$02$02@internal@Eigen@@SAXAEAV?$generic_dense_assignment_kernel@U?$evaluator@V?$Matrix@N$02$03$0A@$02$03@Eigen@@@internal@Eigen@@U?$evaluator@V?$Product@V?$Matrix@N$02$00$0A@$02$00@Eigen@@V?$Block@V?$Matrix@N$03$03$0A@$03$03@Eigen@@$00$03$0A@@2@$00@Eigen@@@23@U?$assign_op@NN@23@$0A@@23@_J@Z
	?run@?$copy_using_evaluator_LinearTraversal_CompleteUnrolling@V?$generic_dense_assignment_kernel@U?$evaluator@V?$Block@V?$Matrix@N$03$03$0A@$03$03@Eigen@@$00$02$0A@@Eigen@@@internal@Eigen@@U?$evaluator@V?$CwiseNullaryOp@U?$scalar_constant_op@N@internal@Eigen@@V?$Matrix@N$00$02$00$00$02@3@@Eigen@@@23@U?$assign_op@NN@23@$0A@@internal@Eigen@@$00$02@internal@Eigen@@SAXAEAV?$generic_dense_assignment_kernel@U?$evaluator@V?$Block@V?$Matrix@N$03$03$0A@$03$03@Eigen@@$00$02$0A@@Eigen@@@internal@Eigen@@U?$evaluator@V?$CwiseNullaryOp@U?$scalar_constant_op@N@internal@Eigen@@V?$Matrix@N$00$02$00$00$02@3@@Eigen@@@23@U?$assign_op@NN@23@$0A@@23@@Z
	?run@?$copy_using_evaluator_LinearTraversal_CompleteUnrolling@V?$generic_dense_assignment_kernel@U?$evaluator@V?$Block@V?$Matrix@N$03$03$0A@$03$03@Eigen@@$00$02$0A@@Eigen@@@internal@Eigen@@U?$evaluator@V?$CwiseNullaryOp@U?$scalar_constant_op@N@internal@Eigen@@V?$Matrix@N$00$02$00$00$02@3@@Eigen@@@23@U?$assign_op@NN@23@$0A@@internal@Eigen@@$01$02@internal@Eigen@@SAXAEAV?$generic_dense_assignment_kernel@U?$evaluator@V?$Block@V?$Matrix@N$03$03$0A@$03$03@Eigen@@$00$02$0A@@Eigen@@@internal@Eigen@@U?$evaluator@V?$CwiseNullaryOp@U?$scalar_constant_op@N@internal@Eigen@@V?$Matrix@N$00$02$00$00$02@3@@Eigen@@@23@U?$assign_op@NN@23@$0A@@23@@Z
	?run@?$copy_using_evaluator_LinearTraversal_CompleteUnrolling@V?$generic_dense_assignment_kernel@U?$evaluator@V?$Block@V?$Matrix@N$03$03$0A@$03$03@Eigen@@$00$02$0A@@Eigen@@@internal@Eigen@@U?$evaluator@V?$CwiseNullaryOp@U?$scalar_constant_op@N@internal@Eigen@@V?$Matrix@N$00$02$00$00$02@3@@Eigen@@@23@U?$assign_op@NN@23@$0A@@internal@Eigen@@$02$02@internal@Eigen@@SAXAEAV?$generic_dense_assignment_kernel@U?$evaluator@V?$Block@V?$Matrix@N$03$03$0A@$03$03@Eigen@@$00$02$0A@@Eigen@@@internal@Eigen@@U?$evaluator@V?$CwiseNullaryOp@U?$scalar_constant_op@N@internal@Eigen@@V?$Matrix@N$00$02$00$00$02@3@@Eigen@@@23@U?$assign_op@NN@23@$0A@@23@@Z
	?run@?$copy_using_evaluator_LinearTraversal_CompleteUnrolling@V?$generic_dense_assignment_kernel@U?$evaluator@V?$Block@V?$Matrix@N$03$03$0A@$03$03@Eigen@@$00$02$0A@@Eigen@@@internal@Eigen@@U?$evaluator@V?$CwiseNullaryOp@U?$scalar_constant_op@N@internal@Eigen@@V?$Matrix@N$00$02$00$00$02@3@@Eigen@@@23@U?$assign_op@NN@23@$0A@@internal@Eigen@@$0A@$02@internal@Eigen@@SAXAEAV?$generic_dense_assignment_kernel@U?$evaluator@V?$Block@V?$Matrix@N$03$03$0A@$03$03@Eigen@@$00$02$0A@@Eigen@@@internal@Eigen@@U?$evaluator@V?$CwiseNullaryOp@U?$scalar_constant_op@N@internal@Eigen@@V?$Matrix@N$00$02$00$00$02@3@@Eigen@@@23@U?$assign_op@NN@23@$0A@@23@@Z
	?run@?$copy_using_evaluator_innervec_CompleteUnrolling@V?$generic_dense_assignment_kernel@U?$evaluator@V?$Block@V?$Matrix@N$03$03$0A@$03$03@Eigen@@$02$00$00@Eigen@@@internal@Eigen@@U?$evaluator@V?$CwiseNullaryOp@U?$scalar_constant_op@N@internal@Eigen@@V?$Matrix@N$02$00$0A@$02$00@3@@Eigen@@@23@U?$assign_op@NN@23@$0A@@internal@Eigen@@$01$01@internal@Eigen@@SAXAEAV?$generic_dense_assignment_kernel@U?$evaluator@V?$Block@V?$Matrix@N$03$03$0A@$03$03@Eigen@@$02$00$00@Eigen@@@internal@Eigen@@U?$evaluator@V?$CwiseNullaryOp@U?$scalar_constant_op@N@internal@Eigen@@V?$Matrix@N$02$00$0A@$02$00@3@@Eigen@@@23@U?$assign_op@NN@23@$0A@@23@@Z
	?run@?$copy_using_evaluator_innervec_CompleteUnrolling@V?$generic_dense_assignment_kernel@U?$evaluator@V?$Block@V?$Matrix@N$03$03$0A@$03$03@Eigen@@$02$00$00@Eigen@@@internal@Eigen@@U?$evaluator@V?$CwiseNullaryOp@U?$scalar_constant_op@N@internal@Eigen@@V?$Matrix@N$02$00$0A@$02$00@3@@Eigen@@@23@U?$assign_op@NN@23@$0A@@internal@Eigen@@$0A@$01@internal@Eigen@@SAXAEAV?$generic_dense_assignment_kernel@U?$evaluator@V?$Block@V?$Matrix@N$03$03$0A@$03$03@Eigen@@$02$00$00@Eigen@@@internal@Eigen@@U?$evaluator@V?$CwiseNullaryOp@U?$scalar_constant_op@N@internal@Eigen@@V?$Matrix@N$02$00$0A@$02$00@3@@Eigen@@@23@U?$assign_op@NN@23@$0A@@23@@Z
	?run@?$copy_using_evaluator_innervec_CompleteUnrolling@V?$generic_dense_assignment_kernel@U?$evaluator@V?$Block@V?$Matrix@N$03$03$0A@$03$03@Eigen@@$02$00$00@Eigen@@@internal@Eigen@@U?$evaluator@V?$Matrix@N$02$00$0A@$02$00@Eigen@@@23@U?$add_assign_op@NN@23@$0A@@internal@Eigen@@$01$01@internal@Eigen@@SAXAEAV?$generic_dense_assignment_kernel@U?$evaluator@V?$Block@V?$Matrix@N$03$03$0A@$03$03@Eigen@@$02$00$00@Eigen@@@internal@Eigen@@U?$evaluator@V?$Matrix@N$02$00$0A@$02$00@Eigen@@@23@U?$add_assign_op@NN@23@$0A@@23@@Z
	?run@?$copy_using_evaluator_innervec_CompleteUnrolling@V?$generic_dense_assignment_kernel@U?$evaluator@V?$Block@V?$Matrix@N$03$03$0A@$03$03@Eigen@@$02$00$00@Eigen@@@internal@Eigen@@U?$evaluator@V?$Matrix@N$02$00$0A@$02$00@Eigen@@@23@U?$add_assign_op@NN@23@$0A@@internal@Eigen@@$0A@$01@internal@Eigen@@SAXAEAV?$generic_dense_assignment_kernel@U?$evaluator@V?$Block@V?$Matrix@N$03$03$0A@$03$03@Eigen@@$02$00$00@Eigen@@@internal@Eigen@@U?$evaluator@V?$Matrix@N$02$00$0A@$02$00@Eigen@@@23@U?$add_assign_op@NN@23@$0A@@23@@Z
	?run@?$copy_using_evaluator_innervec_CompleteUnrolling@V?$generic_dense_assignment_kernel@U?$evaluator@V?$Block@V?$Matrix@N$03$03$0A@$03$03@Eigen@@$02$00$00@Eigen@@@internal@Eigen@@U?$evaluator@V?$Matrix@N$02$00$0A@$02$00@Eigen@@@23@U?$assign_op@NN@23@$0A@@internal@Eigen@@$01$01@internal@Eigen@@SAXAEAV?$generic_dense_assignment_kernel@U?$evaluator@V?$Block@V?$Matrix@N$03$03$0A@$03$03@Eigen@@$02$00$00@Eigen@@@internal@Eigen@@U?$evaluator@V?$Matrix@N$02$00$0A@$02$00@Eigen@@@23@U?$assign_op@NN@23@$0A@@23@@Z
	?run@?$copy_using_evaluator_innervec_CompleteUnrolling@V?$generic_dense_assignment_kernel@U?$evaluator@V?$Block@V?$Matrix@N$03$03$0A@$03$03@Eigen@@$02$00$00@Eigen@@@internal@Eigen@@U?$evaluator@V?$Matrix@N$02$00$0A@$02$00@Eigen@@@23@U?$assign_op@NN@23@$0A@@internal@Eigen@@$0A@$01@internal@Eigen@@SAXAEAV?$generic_dense_assignment_kernel@U?$evaluator@V?$Block@V?$Matrix@N$03$03$0A@$03$03@Eigen@@$02$00$00@Eigen@@@internal@Eigen@@U?$evaluator@V?$Matrix@N$02$00$0A@$02$00@Eigen@@@23@U?$assign_op@NN@23@$0A@@23@@Z
	?run@?$copy_using_evaluator_innervec_CompleteUnrolling@V?$generic_dense_assignment_kernel@U?$evaluator@V?$Matrix@N$02$00$0A@$02$00@Eigen@@@internal@Eigen@@U?$evaluator@V?$Block@$$CBV?$Matrix@N$03$03$0A@$03$03@Eigen@@$02$00$00@Eigen@@@23@U?$assign_op@NN@23@$0A@@internal@Eigen@@$01$01@internal@Eigen@@SAXAEAV?$generic_dense_assignment_kernel@U?$evaluator@V?$Matrix@N$02$00$0A@$02$00@Eigen@@@internal@Eigen@@U?$evaluator@V?$Block@$$CBV?$Matrix@N$03$03$0A@$03$03@Eigen@@$02$00$00@Eigen@@@23@U?$assign_op@NN@23@$0A@@23@@Z
	?run@?$copy_using_evaluator_innervec_CompleteUnrolling@V?$generic_dense_assignment_kernel@U?$evaluator@V?$Matrix@N$02$00$0A@$02$00@Eigen@@@internal@Eigen@@U?$evaluator@V?$Block@$$CBV?$Matrix@N$03$03$0A@$03$03@Eigen@@$02$00$00@Eigen@@@23@U?$assign_op@NN@23@$0A@@internal@Eigen@@$0A@$01@internal@Eigen@@SAXAEAV?$generic_dense_assignment_kernel@U?$evaluator@V?$Matrix@N$02$00$0A@$02$00@Eigen@@@internal@Eigen@@U?$evaluator@V?$Block@$$CBV?$Matrix@N$03$03$0A@$03$03@Eigen@@$02$00$00@Eigen@@@23@U?$assign_op@NN@23@$0A@@23@@Z
	?run@?$copy_using_evaluator_innervec_CompleteUnrolling@V?$generic_dense_assignment_kernel@U?$evaluator@V?$Matrix@N$02$02$0A@$02$02@Eigen@@@internal@Eigen@@U123@U?$assign_op@NN@23@$0A@@internal@Eigen@@$01$07@internal@Eigen@@SAXAEAV?$generic_dense_assignment_kernel@U?$evaluator@V?$Matrix@N$02$02$0A@$02$02@Eigen@@@internal@Eigen@@U123@U?$assign_op@NN@23@$0A@@23@@Z
	?run@?$copy_using_evaluator_innervec_CompleteUnrolling@V?$generic_dense_assignment_kernel@U?$evaluator@V?$Matrix@N$02$02$0A@$02$02@Eigen@@@internal@Eigen@@U123@U?$assign_op@NN@23@$0A@@internal@Eigen@@$03$07@internal@Eigen@@SAXAEAV?$generic_dense_assignment_kernel@U?$evaluator@V?$Matrix@N$02$02$0A@$02$02@Eigen@@@internal@Eigen@@U123@U?$assign_op@NN@23@$0A@@23@@Z
	?run@?$copy_using_evaluator_innervec_CompleteUnrolling@V?$generic_dense_assignment_kernel@U?$evaluator@V?$Matrix@N$02$02$0A@$02$02@Eigen@@@internal@Eigen@@U123@U?$assign_op@NN@23@$0A@@internal@Eigen@@$05$07@internal@Eigen@@SAXAEAV?$generic_dense_assignment_kernel@U?$evaluator@V?$Matrix@N$02$02$0A@$02$02@Eigen@@@internal@Eigen@@U123@U?$assign_op@NN@23@$0A@@23@@Z
	?run@?$copy_using_evaluator_innervec_CompleteUnrolling@V?$generic_dense_assignment_kernel@U?$evaluator@V?$Matrix@N$02$02$0A@$02$02@Eigen@@@internal@Eigen@@U123@U?$assign_op@NN@23@$0A@@internal@Eigen@@$07$07@internal@Eigen@@SAXAEAV?$generic_dense_assignment_kernel@U?$evaluator@V?$Matrix@N$02$02$0A@$02$02@Eigen@@@internal@Eigen@@U123@U?$assign_op@NN@23@$0A@@23@@Z
	?run@?$copy_using_evaluator_innervec_CompleteUnrolling@V?$generic_dense_assignment_kernel@U?$evaluator@V?$Matrix@N$02$02$0A@$02$02@Eigen@@@internal@Eigen@@U123@U?$assign_op@NN@23@$0A@@internal@Eigen@@$0A@$07@internal@Eigen@@SAXAEAV?$generic_dense_assignment_kernel@U?$evaluator@V?$Matrix@N$02$02$0A@$02$02@Eigen@@@internal@Eigen@@U123@U?$assign_op@NN@23@$0A@@23@@Z
	?run@?$copy_using_evaluator_innervec_CompleteUnrolling@V?$generic_dense_assignment_kernel@U?$evaluator@V?$Matrix@N$03$03$0A@$03$03@Eigen@@@internal@Eigen@@U123@U?$assign_op@NN@23@$0A@@internal@Eigen@@$01$0BA@@internal@Eigen@@SAXAEAV?$generic_dense_assignment_kernel@U?$evaluator@V?$Matrix@N$03$03$0A@$03$03@Eigen@@@internal@Eigen@@U123@U?$assign_op@NN@23@$0A@@23@@Z
	?run@?$copy_using_evaluator_innervec_CompleteUnrolling@V?$generic_dense_assignment_kernel@U?$evaluator@V?$Matrix@N$03$03$0A@$03$03@Eigen@@@internal@Eigen@@U123@U?$assign_op@NN@23@$0A@@internal@Eigen@@$03$0BA@@internal@Eigen@@SAXAEAV?$generic_dense_assignment_kernel@U?$evaluator@V?$Matrix@N$03$03$0A@$03$03@Eigen@@@internal@Eigen@@U123@U?$assign_op@NN@23@$0A@@23@@Z
	?run@?$copy_using_evaluator_innervec_CompleteUnrolling@V?$generic_dense_assignment_kernel@U?$evaluator@V?$Matrix@N$03$03$0A@$03$03@Eigen@@@internal@Eigen@@U123@U?$assign_op@NN@23@$0A@@internal@Eigen@@$05$0BA@@internal@Eigen@@SAXAEAV?$generic_dense_assignment_kernel@U?$evaluator@V?$Matrix@N$03$03$0A@$03$03@Eigen@@@internal@Eigen@@U123@U?$assign_op@NN@23@$0A@@23@@Z
	?run@?$copy_using_evaluator_innervec_CompleteUnrolling@V?$generic_dense_assignment_kernel@U?$evaluator@V?$Matrix@N$03$03$0A@$03$03@Eigen@@@internal@Eigen@@U123@U?$assign_op@NN@23@$0A@@internal@Eigen@@$07$0BA@@internal@Eigen@@SAXAEAV?$generic_dense_assignment_kernel@U?$evaluator@V?$Matrix@N$03$03$0A@$03$03@Eigen@@@internal@Eigen@@U123@U?$assign_op@NN@23@$0A@@23@@Z
	?run@?$copy_using_evaluator_innervec_CompleteUnrolling@V?$generic_dense_assignment_kernel@U?$evaluator@V?$Matrix@N$03$03$0A@$03$03@Eigen@@@internal@Eigen@@U123@U?$assign_op@NN@23@$0A@@internal@Eigen@@$09$0BA@@internal@Eigen@@SAXAEAV?$generic_dense_assignment_kernel@U?$evaluator@V?$Matrix@N$03$03$0A@$03$03@Eigen@@@internal@Eigen@@U123@U?$assign_op@NN@23@$0A@@23@@Z
	?run@?$copy_using_evaluator_innervec_CompleteUnrolling@V?$generic_dense_assignment_kernel@U?$evaluator@V?$Matrix@N$03$03$0A@$03$03@Eigen@@@internal@Eigen@@U123@U?$assign_op@NN@23@$0A@@internal@Eigen@@$0A@$0BA@@internal@Eigen@@SAXAEAV?$generic_dense_assignment_kernel@U?$evaluator@V?$Matrix@N$03$03$0A@$03$03@Eigen@@@internal@Eigen@@U123@U?$assign_op@NN@23@$0A@@23@@Z
	?run@?$copy_using_evaluator_innervec_CompleteUnrolling@V?$generic_dense_assignment_kernel@U?$evaluator@V?$Matrix@N$03$03$0A@$03$03@Eigen@@@internal@Eigen@@U123@U?$assign_op@NN@23@$0A@@internal@Eigen@@$0BA@$0BA@@internal@Eigen@@SAXAEAV?$generic_dense_assignment_kernel@U?$evaluator@V?$Matrix@N$03$03$0A@$03$03@Eigen@@@internal@Eigen@@U123@U?$assign_op@NN@23@$0A@@23@@Z
	?run@?$copy_using_evaluator_innervec_CompleteUnrolling@V?$generic_dense_assignment_kernel@U?$evaluator@V?$Matrix@N$03$03$0A@$03$03@Eigen@@@internal@Eigen@@U123@U?$assign_op@NN@23@$0A@@internal@Eigen@@$0M@$0BA@@internal@Eigen@@SAXAEAV?$generic_dense_assignment_kernel@U?$evaluator@V?$Matrix@N$03$03$0A@$03$03@Eigen@@@internal@Eigen@@U123@U?$assign_op@NN@23@$0A@@23@@Z
	?run@?$copy_using_evaluator_innervec_CompleteUnrolling@V?$generic_dense_assignment_kernel@U?$evaluator@V?$Matrix@N$03$03$0A@$03$03@Eigen@@@internal@Eigen@@U123@U?$assign_op@NN@23@$0A@@internal@Eigen@@$0O@$0BA@@internal@Eigen@@SAXAEAV?$generic_dense_assignment_kernel@U?$evaluator@V?$Matrix@N$03$03$0A@$03$03@Eigen@@@internal@Eigen@@U123@U?$assign_op@NN@23@$0A@@23@@Z
	?run@?$copy_using_evaluator_innervec_InnerUnrolling@V?$generic_dense_assignment_kernel@U?$evaluator@V?$Block@V?$Matrix@N$03$03$0A@$03$03@Eigen@@$02$02$0A@@Eigen@@@internal@Eigen@@U?$evaluator@V?$Matrix@N$02$02$0A@$02$02@Eigen@@@23@U?$assign_op@NN@23@$0A@@internal@Eigen@@$01$01$0A@$0A@@internal@Eigen@@SAXAEAV?$generic_dense_assignment_kernel@U?$evaluator@V?$Block@V?$Matrix@N$03$03$0A@$03$03@Eigen@@$02$02$0A@@Eigen@@@internal@Eigen@@U?$evaluator@V?$Matrix@N$02$02$0A@$02$02@Eigen@@@23@U?$assign_op@NN@23@$0A@@23@_J@Z
	?run@?$copy_using_evaluator_innervec_InnerUnrolling@V?$generic_dense_assignment_kernel@U?$evaluator@V?$Block@V?$Matrix@N$03$03$0A@$03$03@Eigen@@$02$02$0A@@Eigen@@@internal@Eigen@@U?$evaluator@V?$Matrix@N$02$02$0A@$02$02@Eigen@@@23@U?$assign_op@NN@23@$0A@@internal@Eigen@@$0A@$01$0A@$0A@@internal@Eigen@@SAXAEAV?$generic_dense_assignment_kernel@U?$evaluator@V?$Block@V?$Matrix@N$03$03$0A@$03$03@Eigen@@$02$02$0A@@Eigen@@@internal@Eigen@@U?$evaluator@V?$Matrix@N$02$02$0A@$02$02@Eigen@@@23@U?$assign_op@NN@23@$0A@@23@_J@Z
	?run@?$copy_using_evaluator_innervec_InnerUnrolling@V?$generic_dense_assignment_kernel@U?$evaluator@V?$Block@V?$Matrix@N$03$03$0A@$03$03@Eigen@@$02$03$0A@@Eigen@@@internal@Eigen@@U?$evaluator@V?$Matrix@N$02$03$0A@$02$03@Eigen@@@23@U?$add_assign_op@NN@23@$0A@@internal@Eigen@@$01$01$0A@$0A@@internal@Eigen@@SAXAEAV?$generic_dense_assignment_kernel@U?$evaluator@V?$Block@V?$Matrix@N$03$03$0A@$03$03@Eigen@@$02$03$0A@@Eigen@@@internal@Eigen@@U?$evaluator@V?$Matrix@N$02$03$0A@$02$03@Eigen@@@23@U?$add_assign_op@NN@23@$0A@@23@_J@Z
	?run@?$copy_using_evaluator_innervec_InnerUnrolling@V?$generic_dense_assignment_kernel@U?$evaluator@V?$Block@V?$Matrix@N$03$03$0A@$03$03@Eigen@@$02$03$0A@@Eigen@@@internal@Eigen@@U?$evaluator@V?$Matrix@N$02$03$0A@$02$03@Eigen@@@23@U?$add_assign_op@NN@23@$0A@@internal@Eigen@@$0A@$01$0A@$0A@@internal@Eigen@@SAXAEAV?$generic_dense_assignment_kernel@U?$evaluator@V?$Block@V?$Matrix@N$03$03$0A@$03$03@Eigen@@$02$03$0A@@Eigen@@@internal@Eigen@@U?$evaluator@V?$Matrix@N$02$03$0A@$02$03@Eigen@@@23@U?$add_assign_op@NN@23@$0A@@23@_J@Z
	?run@?$copy_using_evaluator_innervec_InnerUnrolling@V?$generic_dense_assignment_kernel@U?$evaluator@V?$Matrix@N$02$03$0A@$02$03@Eigen@@@internal@Eigen@@U?$evaluator@V?$Product@V?$Matrix@N$02$00$0A@$02$00@Eigen@@V?$Block@V?$Matrix@N$03$03$0A@$03$03@Eigen@@$00$03$0A@@2@$00@Eigen@@@23@U?$assign_op@NN@23@$0A@@internal@Eigen@@$01$01$0A@$0A@@internal@Eigen@@SAXAEAV?$generic_dense_assignment_kernel@U?$evaluator@V?$Matrix@N$02$03$0A@$02$03@Eigen@@@internal@Eigen@@U?$evaluator@V?$Product@V?$Matrix@N$02$00$0A@$02$00@Eigen@@V?$Block@V?$Matrix@N$03$03$0A@$03$03@Eigen@@$00$03$0A@@2@$00@Eigen@@@23@U?$assign_op@NN@23@$0A@@23@_J@Z
	?run@?$copy_using_evaluator_innervec_InnerUnrolling@V?$generic_dense_assignment_kernel@U?$evaluator@V?$Matrix@N$02$03$0A@$02$03@Eigen@@@internal@Eigen@@U?$evaluator@V?$Product@V?$Matrix@N$02$00$0A@$02$00@Eigen@@V?$Block@V?$Matrix@N$03$03$0A@$03$03@Eigen@@$00$03$0A@@2@$00@Eigen@@@23@U?$assign_op@NN@23@$0A@@internal@Eigen@@$0A@$01$0A@$0A@@internal@Eigen@@SAXAEAV?$generic_dense_assignment_kernel@U?$evaluator@V?$Matrix@N$02$03$0A@$02$03@Eigen@@@internal@Eigen@@U?$evaluator@V?$Product@V?$Matrix@N$02$00$0A@$02$00@Eigen@@V?$Block@V?$Matrix@N$03$03$0A@$03$03@Eigen@@$00$03$0A@@2@$00@Eigen@@@23@U?$assign_op@NN@23@$0A@@23@_J@Z
	?run@?$dense_assignment_loop@V?$generic_dense_assignment_kernel@U?$evaluator@V?$Block@V?$Matrix@N$03$03$0A@$03$03@Eigen@@$00$02$0A@@Eigen@@@internal@Eigen@@U?$evaluator@V?$CwiseNullaryOp@U?$scalar_constant_op@N@internal@Eigen@@V?$Matrix@N$00$02$00$00$02@3@@Eigen@@@23@U?$assign_op@NN@23@$0A@@internal@Eigen@@$00$01@internal@Eigen@@SAXAEAV?$generic_dense_assignment_kernel@U?$evaluator@V?$Block@V?$Matrix@N$03$03$0A@$03$03@Eigen@@$00$02$0A@@Eigen@@@internal@Eigen@@U?$evaluator@V?$CwiseNullaryOp@U?$scalar_constant_op@N@internal@Eigen@@V?$Matrix@N$00$02$00$00$02@3@@Eigen@@@23@U?$assign_op@NN@23@$0A@@23@@Z
	?run@?$dense_assignment_loop@V?$generic_dense_assignment_kernel@U?$evaluator@V?$Block@V?$Matrix@N$03$03$0A@$03$03@Eigen@@$02$00$00@Eigen@@@internal@Eigen@@U?$evaluator@V?$CwiseNullaryOp@U?$scalar_constant_op@N@internal@Eigen@@V?$Matrix@N$02$00$0A@$02$00@3@@Eigen@@@23@U?$assign_op@NN@23@$0A@@internal@Eigen@@$02$01@internal@Eigen@@SAXAEAV?$generic_dense_assignment_kernel@U?$evaluator@V?$Block@V?$Matrix@N$03$03$0A@$03$03@Eigen@@$02$00$00@Eigen@@@internal@Eigen@@U?$evaluator@V?$CwiseNullaryOp@U?$scalar_constant_op@N@internal@Eigen@@V?$Matrix@N$02$00$0A@$02$00@3@@Eigen@@@23@U?$assign_op@NN@23@$0A@@23@@Z
	?run@?$dense_assignment_loop@V?$generic_dense_assignment_kernel@U?$evaluator@V?$Block@V?$Matrix@N$03$03$0A@$03$03@Eigen@@$02$00$00@Eigen@@@internal@Eigen@@U?$evaluator@V?$Matrix@N$02$00$0A@$02$00@Eigen@@@23@U?$add_assign_op@NN@23@$0A@@internal@Eigen@@$02$01@internal@Eigen@@SAXAEAV?$generic_dense_assignment_kernel@U?$evaluator@V?$Block@V?$Matrix@N$03$03$0A@$03$03@Eigen@@$02$00$00@Eigen@@@internal@Eigen@@U?$evaluator@V?$Matrix@N$02$00$0A@$02$00@Eigen@@@23@U?$add_assign_op@NN@23@$0A@@23@@Z
	?run@?$dense_assignment_loop@V?$generic_dense_assignment_kernel@U?$evaluator@V?$Block@V?$Matrix@N$03$03$0A@$03$03@Eigen@@$02$00$00@Eigen@@@internal@Eigen@@U?$evaluator@V?$Matrix@N$02$00$0A@$02$00@Eigen@@@23@U?$assign_op@NN@23@$0A@@internal@Eigen@@$02$01@internal@Eigen@@SAXAEAV?$generic_dense_assignment_kernel@U?$evaluator@V?$Block@V?$Matrix@N$03$03$0A@$03$03@Eigen@@$02$00$00@Eigen@@@internal@Eigen@@U?$evaluator@V?$Matrix@N$02$00$0A@$02$00@Eigen@@@23@U?$assign_op@NN@23@$0A@@23@@Z
	?run@?$dense_assignment_loop@V?$generic_dense_assignment_kernel@U?$evaluator@V?$Block@V?$Matrix@N$03$03$0A@$03$03@Eigen@@$02$02$0A@@Eigen@@@internal@Eigen@@U?$evaluator@V?$CwiseNullaryOp@U?$scalar_identity_op@N@internal@Eigen@@V?$Matrix@N$02$02$0A@$02$02@3@@Eigen@@@23@U?$assign_op@NN@23@$0A@@internal@Eigen@@$0A@$01@internal@Eigen@@SAXAEAV?$generic_dense_assignment_kernel@U?$evaluator@V?$Block@V?$Matrix@N$03$03$0A@$03$03@Eigen@@$02$02$0A@@Eigen@@@internal@Eigen@@U?$evaluator@V?$CwiseNullaryOp@U?$scalar_identity_op@N@internal@Eigen@@V?$Matrix@N$02$02$0A@$02$02@3@@Eigen@@@23@U?$assign_op@NN@23@$0A@@23@@Z
	?run@?$dense_assignment_loop@V?$generic_dense_assignment_kernel@U?$evaluator@V?$Block@V?$Matrix@N$03$03$0A@$03$03@Eigen@@$02$02$0A@@Eigen@@@internal@Eigen@@U?$evaluator@V?$Matrix@N$02$02$0A@$02$02@Eigen@@@23@U?$assign_op@NN@23@$0A@@internal@Eigen@@$03$00@internal@Eigen@@SAXAEAV?$generic_dense_assignment_kernel@U?$evaluator@V?$Block@V?$Matrix@N$03$03$0A@$03$03@Eigen@@$02$02$0A@@Eigen@@@internal@Eigen@@U?$evaluator@V?$Matrix@N$02$02$0A@$02$02@Eigen@@@23@U?$assign_op@NN@23@$0A@@23@@Z
	?run@?$dense_assignment_loop@V?$generic_dense_assignment_kernel@U?$evaluator@V?$Block@V?$Matrix@N$03$03$0A@$03$03@Eigen@@$02$03$0A@@Eigen@@@internal@Eigen@@U?$evaluator@V?$Matrix@N$02$03$0A@$02$03@Eigen@@@23@U?$add_assign_op@NN@23@$0A@@internal@Eigen@@$03$00@internal@Eigen@@SAXAEAV?$generic_dense_assignment_kernel@U?$evaluator@V?$Block@V?$Matrix@N$03$03$0A@$03$03@Eigen@@$02$03$0A@@Eigen@@@internal@Eigen@@U?$evaluator@V?$Matrix@N$02$03$0A@$02$03@Eigen@@@23@U?$add_assign_op@NN@23@$0A@@23@@Z
	?run@?$dense_assignment_loop@V?$generic_dense_assignment_kernel@U?$evaluator@V?$Matrix@N$02$00$0A@$02$00@Eigen@@@internal@Eigen@@U?$evaluator@V?$Block@$$CBV?$Matrix@N$03$03$0A@$03$03@Eigen@@$02$00$00@Eigen@@@23@U?$assign_op@NN@23@$0A@@internal@Eigen@@$02$01@internal@Eigen@@SAXAEAV?$generic_dense_assignment_kernel@U?$evaluator@V?$Matrix@N$02$00$0A@$02$00@Eigen@@@internal@Eigen@@U?$evaluator@V?$Block@$$CBV?$Matrix@N$03$03$0A@$03$03@Eigen@@$02$00$00@Eigen@@@23@U?$assign_op@NN@23@$0A@@23@@Z
	?run@?$dense_assignment_loop@V?$generic_dense_assignment_kernel@U?$evaluator@V?$Matrix@N$02$02$0A@$02$02@Eigen@@@internal@Eigen@@U123@U?$assign_op@NN@23@$0A@@internal@Eigen@@$02$01@internal@Eigen@@SAXAEAV?$generic_dense_assignment_kernel@U?$evaluator@V?$Matrix@N$02$02$0A@$02$02@Eigen@@@internal@Eigen@@U123@U?$assign_op@NN@23@$0A@@23@@Z
	?run@?$dense_assignment_loop@V?$generic_dense_assignment_kernel@U?$evaluator@V?$Matrix@N$02$03$0A@$02$03@Eigen@@@internal@Eigen@@U?$evaluator@V?$Product@V?$Matrix@N$02$00$0A@$02$00@Eigen@@V?$Block@V?$Matrix@N$03$03$0A@$03$03@Eigen@@$00$03$0A@@2@$00@Eigen@@@23@U?$assign_op@NN@23@$0A@@internal@Eigen@@$03$00@internal@Eigen@@SAXAEAV?$generic_dense_assignment_kernel@U?$evaluator@V?$Matrix@N$02$03$0A@$02$03@Eigen@@@internal@Eigen@@U?$evaluator@V?$Product@V?$Matrix@N$02$00$0A@$02$00@Eigen@@V?$Block@V?$Matrix@N$03$03$0A@$03$03@Eigen@@$00$03$0A@@2@$00@Eigen@@@23@U?$assign_op@NN@23@$0A@@23@@Z
	?run@?$dense_assignment_loop@V?$generic_dense_assignment_kernel@U?$evaluator@V?$Matrix@N$03$03$0A@$03$03@Eigen@@@internal@Eigen@@U123@U?$assign_op@NN@23@$0A@@internal@Eigen@@$01$01@internal@Eigen@@SAXAEAV?$generic_dense_assignment_kernel@U?$evaluator@V?$Matrix@N$03$03$0A@$03$03@Eigen@@@internal@Eigen@@U123@U?$assign_op@NN@23@$0A@@23@@Z
	?run@?$etor_product_packet_impl@$0A@$00U?$evaluator@V?$Matrix@N$02$00$0A@$02$00@Eigen@@@internal@Eigen@@U?$evaluator@V?$Block@V?$Matrix@N$03$03$0A@$03$03@Eigen@@$00$03$0A@@Eigen@@@23@U__m128d@@$0A@@internal@Eigen@@SAX_J0AEBU?$evaluator@V?$Matrix@N$02$00$0A@$02$00@Eigen@@@23@AEBU?$evaluator@V?$Block@V?$Matrix@N$03$03$0A@$03$03@Eigen@@$00$03$0A@@Eigen@@@23@0AEAU__m128d@@@Z
	?run@?$redux_novec_unroller@U?$scalar_sum_op@NN@internal@Eigen@@V?$redux_evaluator@V?$CwiseBinaryOp@U?$scalar_product_op@NN@internal@Eigen@@$$CBV?$Transpose@$$CBV?$Block@$$CBV?$Matrix@N$02$00$0A@$02$00@Eigen@@$00$00$0A@@Eigen@@@3@$$CBV?$Block@$$CBV?$Block@V?$Matrix@N$03$03$0A@$03$03@Eigen@@$00$03$0A@@Eigen@@$00$00$0A@@3@@Eigen@@@23@$0A@$00@internal@Eigen@@SANAEBV?$redux_evaluator@V?$CwiseBinaryOp@U?$scalar_product_op@NN@internal@Eigen@@$$CBV?$Transpose@$$CBV?$Block@$$CBV?$Matrix@N$02$00$0A@$02$00@Eigen@@$00$00$0A@@Eigen@@@3@$$CBV?$Block@$$CBV?$Block@V?$Matrix@N$03$03$0A@$03$03@Eigen@@$00$03$0A@@Eigen@@$00$00$0A@@3@@Eigen@@@23@AEBU?$scalar_sum_op@NN@23@@Z
	?run@?$redux_novec_unroller@U?$scalar_sum_op@NN@internal@Eigen@@V?$redux_evaluator@V?$Diagonal@$$CBV?$Block@$$CBV?$Matrix@N$03$03$0A@$03$03@Eigen@@$02$02$0A@@Eigen@@$0A@@Eigen@@@23@$00$00@internal@Eigen@@SANAEBV?$redux_evaluator@V?$Diagonal@$$CBV?$Block@$$CBV?$Matrix@N$03$03$0A@$03$03@Eigen@@$02$02$0A@@Eigen@@$0A@@Eigen@@@23@AEBU?$scalar_sum_op@NN@23@@Z
	?run@?$redux_novec_unroller@U?$scalar_sum_op@NN@internal@Eigen@@V?$redux_evaluator@V?$Diagonal@$$CBV?$Block@$$CBV?$Matrix@N$03$03$0A@$03$03@Eigen@@$02$02$0A@@Eigen@@$0A@@Eigen@@@23@$00$01@internal@Eigen@@SANAEBV?$redux_evaluator@V?$Diagonal@$$CBV?$Block@$$CBV?$Matrix@N$03$03$0A@$03$03@Eigen@@$02$02$0A@@Eigen@@$0A@@Eigen@@@23@AEBU?$scalar_sum_op@NN@23@@Z
	?run@?$redux_novec_unroller@U?$scalar_sum_op@NN@internal@Eigen@@V?$redux_evaluator@V?$Diagonal@$$CBV?$Block@$$CBV?$Matrix@N$03$03$0A@$03$03@Eigen@@$02$02$0A@@Eigen@@$0A@@Eigen@@@23@$01$00@internal@Eigen@@SANAEBV?$redux_evaluator@V?$Diagonal@$$CBV?$Block@$$CBV?$Matrix@N$03$03$0A@$03$03@Eigen@@$02$02$0A@@Eigen@@$0A@@Eigen@@@23@AEBU?$scalar_sum_op@NN@23@@Z
	?run@?$redux_novec_unroller@U?$scalar_sum_op@NN@internal@Eigen@@V?$redux_evaluator@V?$Diagonal@$$CBV?$Block@$$CBV?$Matrix@N$03$03$0A@$03$03@Eigen@@$02$02$0A@@Eigen@@$0A@@Eigen@@@23@$0A@$00@internal@Eigen@@SANAEBV?$redux_evaluator@V?$Diagonal@$$CBV?$Block@$$CBV?$Matrix@N$03$03$0A@$03$03@Eigen@@$02$02$0A@@Eigen@@$0A@@Eigen@@@23@AEBU?$scalar_sum_op@NN@23@@Z
	?run@?$redux_novec_unroller@U?$scalar_sum_op@NN@internal@Eigen@@V?$redux_evaluator@V?$Diagonal@$$CBV?$Block@$$CBV?$Matrix@N$03$03$0A@$03$03@Eigen@@$02$02$0A@@Eigen@@$0A@@Eigen@@@23@$0A@$02@internal@Eigen@@SANAEBV?$redux_evaluator@V?$Diagonal@$$CBV?$Block@$$CBV?$Matrix@N$03$03$0A@$03$03@Eigen@@$02$02$0A@@Eigen@@$0A@@Eigen@@@23@AEBU?$scalar_sum_op@NN@23@@Z
	?run@?$setIdentity_impl@V?$Block@V?$Matrix@N$03$03$0A@$03$03@Eigen@@$02$02$0A@@Eigen@@$0A@@internal@Eigen@@SAAEAV?$Block@V?$Matrix@N$03$03$0A@$03$03@Eigen@@$02$02$0A@@3@AEAV43@@Z
	?run@?$transform_take_affine_part@V?$Transform@N$02$00$0A@@Eigen@@@internal@Eigen@@SA?AV?$Block@V?$Matrix@N$03$03$0A@$03$03@Eigen@@$02$03$0A@@3@AEAV?$Matrix@N$03$03$0A@$03$03@3@@Z
	?scheduleUpdate@InteractiveRobot@@AEAAXXZ
	?seekoff@?$basic_stringbuf@DU?$char_traits@D@std@@V?$allocator@D@2@@std@@MEAA?AV?$fpos@U_Mbstatet@@@2@_JHH@Z
	?seekpos@?$basic_stringbuf@DU?$char_traits@D@std@@V?$allocator@D@2@@std@@MEAA?AV?$fpos@U_Mbstatet@@@2@V32@H@Z
	?select_on_container_copy_construction@?$_Default_allocator_traits@V?$allocator@D@std@@@std@@SA?AV?$allocator@D@2@AEBV32@@Z
	?select_on_container_copy_construction@?$_Default_allocator_traits@V?$allocator@U?$ColorRGBA_@V?$allocator@X@std@@@std_msgs@@@std@@@std@@SA?AV?$allocator@U?$ColorRGBA_@V?$allocator@X@std@@@std_msgs@@@2@AEBV32@@Z
	?select_on_container_copy_construction@?$_Default_allocator_traits@V?$allocator@U?$Marker_@V?$allocator@X@std@@@visualization_msgs@@@std@@@std@@SA?AV?$allocator@U?$Marker_@V?$allocator@X@std@@@visualization_msgs@@@2@AEBV32@@Z
	?select_on_container_copy_construction@?$_Default_allocator_traits@V?$allocator@U?$Point_@V?$allocator@X@std@@@geometry_msgs@@@std@@@std@@SA?AV?$allocator@U?$Point_@V?$allocator@X@std@@@geometry_msgs@@@2@AEBV32@@Z
	?serializedLength@?$ArraySerializer@I$02X@serialization@ros@@SAIAEBV?$array@I$02@boost@@@Z
	?serializedLength@?$ArraySerializer@N$03X@serialization@ros@@SAIAEBV?$array@N$03@boost@@@Z
	?serializedLength@?$Serializer@C@serialization@ros@@SAIAEBC@Z
	?serializedLength@?$Serializer@E@serialization@ros@@SAIAEBE@Z
	?serializedLength@?$Serializer@H@serialization@ros@@SAIAEBH@Z
	?serializedLength@?$Serializer@I@serialization@ros@@SAIAEBI@Z
	?serializedLength@?$Serializer@M@serialization@ros@@SAIAEBM@Z
	?serializedLength@?$Serializer@N@serialization@ros@@SAIAEBN@Z
	?serializedLength@?$Serializer@V?$basic_string@DU?$char_traits@D@std@@V?$allocator@D@2@@std@@@serialization@ros@@SAIAEBV?$basic_string@DU?$char_traits@D@std@@V?$allocator@D@2@@std@@@Z
	?serializedLength@?$Serializer@VDuration@ros@@@serialization@ros@@SAIAEBVDuration@3@@Z
	?serializedLength@?$Serializer@VTime@ros@@@serialization@ros@@SAIAEBVTime@3@@Z
	?serializedLength@?$VectorSerializer@NV?$allocator@N@std@@X@serialization@ros@@SAIAEBV?$vector@NV?$allocator@N@std@@@std@@@Z
	?serializedLength@?$VectorSerializer@U?$AttachedCollisionObject_@V?$allocator@X@std@@@moveit_msgs@@V?$allocator@U?$AttachedCollisionObject_@V?$allocator@X@std@@@moveit_msgs@@@std@@X@serialization@ros@@SAIAEBV?$vector@U?$AttachedCollisionObject_@V?$allocator@X@std@@@moveit_msgs@@V?$allocator@U?$AttachedCollisionObject_@V?$allocator@X@std@@@moveit_msgs@@@std@@@std@@@Z
	?serializedLength@?$VectorSerializer@U?$ColorRGBA_@V?$allocator@X@std@@@std_msgs@@V?$allocator@U?$ColorRGBA_@V?$allocator@X@std@@@std_msgs@@@std@@X@serialization@ros@@SAIAEBV?$vector@U?$ColorRGBA_@V?$allocator@X@std@@@std_msgs@@V?$allocator@U?$ColorRGBA_@V?$allocator@X@std@@@std_msgs@@@std@@@std@@@Z
	?serializedLength@?$VectorSerializer@U?$JointTrajectoryPoint_@V?$allocator@X@std@@@trajectory_msgs@@V?$allocator@U?$JointTrajectoryPoint_@V?$allocator@X@std@@@trajectory_msgs@@@std@@X@serialization@ros@@SAIAEBV?$vector@U?$JointTrajectoryPoint_@V?$allocator@X@std@@@trajectory_msgs@@V?$allocator@U?$JointTrajectoryPoint_@V?$allocator@X@std@@@trajectory_msgs@@@std@@@std@@@Z
	?serializedLength@?$VectorSerializer@U?$MeshTriangle_@V?$allocator@X@std@@@shape_msgs@@V?$allocator@U?$MeshTriangle_@V?$allocator@X@std@@@shape_msgs@@@std@@X@serialization@ros@@SAIAEBV?$vector@U?$MeshTriangle_@V?$allocator@X@std@@@shape_msgs@@V?$allocator@U?$MeshTriangle_@V?$allocator@X@std@@@shape_msgs@@@std@@@std@@@Z
	?serializedLength@?$VectorSerializer@U?$Mesh_@V?$allocator@X@std@@@shape_msgs@@V?$allocator@U?$Mesh_@V?$allocator@X@std@@@shape_msgs@@@std@@X@serialization@ros@@SAIAEBV?$vector@U?$Mesh_@V?$allocator@X@std@@@shape_msgs@@V?$allocator@U?$Mesh_@V?$allocator@X@std@@@shape_msgs@@@std@@@std@@@Z
	?serializedLength@?$VectorSerializer@U?$ObjectColor_@V?$allocator@X@std@@@moveit_msgs@@V?$allocator@U?$ObjectColor_@V?$allocator@X@std@@@moveit_msgs@@@std@@X@serialization@ros@@SAIAEBV?$vector@U?$ObjectColor_@V?$allocator@X@std@@@moveit_msgs@@V?$allocator@U?$ObjectColor_@V?$allocator@X@std@@@moveit_msgs@@@std@@@std@@@Z
	?serializedLength@?$VectorSerializer@U?$Plane_@V?$allocator@X@std@@@shape_msgs@@V?$allocator@U?$Plane_@V?$allocator@X@std@@@shape_msgs@@@std@@X@serialization@ros@@SAIAEBV?$vector@U?$Plane_@V?$allocator@X@std@@@shape_msgs@@V?$allocator@U?$Plane_@V?$allocator@X@std@@@shape_msgs@@@std@@@std@@@Z
	?serializedLength@?$VectorSerializer@U?$Point_@V?$allocator@X@std@@@geometry_msgs@@V?$allocator@U?$Point_@V?$allocator@X@std@@@geometry_msgs@@@std@@X@serialization@ros@@SAIAEBV?$vector@U?$Point_@V?$allocator@X@std@@@geometry_msgs@@V?$allocator@U?$Point_@V?$allocator@X@std@@@geometry_msgs@@@std@@@std@@@Z
	?serializedLength@?$VectorSerializer@U?$Pose_@V?$allocator@X@std@@@geometry_msgs@@V?$allocator@U?$Pose_@V?$allocator@X@std@@@geometry_msgs@@@std@@X@serialization@ros@@SAIAEBV?$vector@U?$Pose_@V?$allocator@X@std@@@geometry_msgs@@V?$allocator@U?$Pose_@V?$allocator@X@std@@@geometry_msgs@@@std@@@std@@@Z
	?serializedLength@?$VectorSerializer@U?$SolidPrimitive_@V?$allocator@X@std@@@shape_msgs@@V?$allocator@U?$SolidPrimitive_@V?$allocator@X@std@@@shape_msgs@@@std@@X@serialization@ros@@SAIAEBV?$vector@U?$SolidPrimitive_@V?$allocator@X@std@@@shape_msgs@@V?$allocator@U?$SolidPrimitive_@V?$allocator@X@std@@@shape_msgs@@@std@@@std@@@Z
	?serializedLength@?$VectorSerializer@U?$Transform_@V?$allocator@X@std@@@geometry_msgs@@V?$allocator@U?$Transform_@V?$allocator@X@std@@@geometry_msgs@@@std@@X@serialization@ros@@SAIAEBV?$vector@U?$Transform_@V?$allocator@X@std@@@geometry_msgs@@V?$allocator@U?$Transform_@V?$allocator@X@std@@@geometry_msgs@@@std@@@std@@@Z
	?serializedLength@?$VectorSerializer@U?$Twist_@V?$allocator@X@std@@@geometry_msgs@@V?$allocator@U?$Twist_@V?$allocator@X@std@@@geometry_msgs@@@std@@X@serialization@ros@@SAIAEBV?$vector@U?$Twist_@V?$allocator@X@std@@@geometry_msgs@@V?$allocator@U?$Twist_@V?$allocator@X@std@@@geometry_msgs@@@std@@@std@@@Z
	?serializedLength@?$VectorSerializer@U?$Wrench_@V?$allocator@X@std@@@geometry_msgs@@V?$allocator@U?$Wrench_@V?$allocator@X@std@@@geometry_msgs@@@std@@X@serialization@ros@@SAIAEBV?$vector@U?$Wrench_@V?$allocator@X@std@@@geometry_msgs@@V?$allocator@U?$Wrench_@V?$allocator@X@std@@@geometry_msgs@@@std@@@std@@@Z
	?serializedLength@?$VectorSerializer@V?$basic_string@DU?$char_traits@D@std@@V?$allocator@D@2@@std@@V?$allocator@V?$basic_string@DU?$char_traits@D@std@@V?$allocator@D@2@@std@@@2@X@serialization@ros@@SAIAEBV?$vector@V?$basic_string@DU?$char_traits@D@std@@V?$allocator@D@2@@std@@V?$allocator@V?$basic_string@DU?$char_traits@D@std@@V?$allocator@D@2@@std@@@2@@std@@@Z
	?setCallbackTimer@InteractiveRobot@@AEAA_N_N@Z
	?setConstant@?$DenseBase@V?$Block@V?$Matrix@N$03$03$0A@$03$03@Eigen@@$00$02$0A@@Eigen@@@Eigen@@QEAAAEAV?$Block@V?$Matrix@N$03$03$0A@$03$03@Eigen@@$00$02$0A@@2@AEBN@Z
	?setConstant@?$DenseBase@V?$Block@V?$Matrix@N$03$03$0A@$03$03@Eigen@@$02$00$00@Eigen@@@Eigen@@QEAAAEAV?$Block@V?$Matrix@N$03$03$0A@$03$03@Eigen@@$02$00$00@2@AEBN@Z
	?setFromIK@RobotState@core@moveit@@QEAA_NPEBVJointModelGroup@23@AEBV?$Transform@N$02$00$0A@@Eigen@@INAEBV?$function@$$A6A_NPEAVRobotState@core@moveit@@PEBVJointModelGroup@23@PEBN@Z@boost@@AEBUKinematicsQueryOptions@kinematics@@@Z
	?setGroup@InteractiveRobot@@QEAAXAEBV?$basic_string@DU?$char_traits@D@std@@V?$allocator@D@2@@std@@@Z
	?setGroupPose@InteractiveRobot@@QEAA_NAEBV?$Transform@N$02$00$0A@@Eigen@@@Z
	?setIdentity@?$MatrixBase@V?$Block@V?$Matrix@N$03$03$0A@$03$03@Eigen@@$02$02$0A@@Eigen@@@Eigen@@QEAAAEAV?$Block@V?$Matrix@N$03$03$0A@$03$03@Eigen@@$02$02$0A@@2@XZ
	?setWorldObjectPose@InteractiveRobot@@QEAAXAEBV?$Transform@N$02$00$0A@@Eigen@@@Z
	?setZero@?$DenseBase@V?$Block@V?$Matrix@N$03$03$0A@$03$03@Eigen@@$00$02$0A@@Eigen@@@Eigen@@QEAAAEAV?$Block@V?$Matrix@N$03$03$0A@$03$03@Eigen@@$00$02$0A@@2@XZ
	?setZero@?$DenseBase@V?$Block@V?$Matrix@N$03$03$0A@$03$03@Eigen@@$02$00$00@Eigen@@@Eigen@@QEAAAEAV?$Block@V?$Matrix@N$03$03$0A@$03$03@Eigen@@$02$00$00@2@XZ
	?size@?$EigenBase@V?$Matrix@N$02$00$0A@$02$00@Eigen@@@Eigen@@QEBA_JXZ
	?size@?$EigenBase@V?$Matrix@N$02$02$0A@$02$02@Eigen@@@Eigen@@QEBA_JXZ
	?size@?$EigenBase@V?$Matrix@N$02$03$0A@$02$03@Eigen@@@Eigen@@QEBA_JXZ
	?size@?$EigenBase@V?$Matrix@N$03$03$0A@$03$03@Eigen@@@Eigen@@QEBA_JXZ
	?size@?$basic_string@DU?$char_traits@D@std@@V?$allocator@D@2@@std@@QEBA_KXZ
	?size@?$vector@NV?$allocator@N@std@@@std@@QEBA_KXZ
	?size@?$vector@U?$AttachedCollisionObject_@V?$allocator@X@std@@@moveit_msgs@@V?$allocator@U?$AttachedCollisionObject_@V?$allocator@X@std@@@moveit_msgs@@@std@@@std@@QEBA_KXZ
	?size@?$vector@U?$ColorRGBA_@V?$allocator@X@std@@@std_msgs@@V?$allocator@U?$ColorRGBA_@V?$allocator@X@std@@@std_msgs@@@std@@@std@@QEBA_KXZ
	?size@?$vector@U?$JointTrajectoryPoint_@V?$allocator@X@std@@@trajectory_msgs@@V?$allocator@U?$JointTrajectoryPoint_@V?$allocator@X@std@@@trajectory_msgs@@@std@@@std@@QEBA_KXZ
	?size@?$vector@U?$MeshTriangle_@V?$allocator@X@std@@@shape_msgs@@V?$allocator@U?$MeshTriangle_@V?$allocator@X@std@@@shape_msgs@@@std@@@std@@QEBA_KXZ
	?size@?$vector@U?$Mesh_@V?$allocator@X@std@@@shape_msgs@@V?$allocator@U?$Mesh_@V?$allocator@X@std@@@shape_msgs@@@std@@@std@@QEBA_KXZ
	?size@?$vector@U?$ObjectColor_@V?$allocator@X@std@@@moveit_msgs@@V?$allocator@U?$ObjectColor_@V?$allocator@X@std@@@moveit_msgs@@@std@@@std@@QEBA_KXZ
	?size@?$vector@U?$Plane_@V?$allocator@X@std@@@shape_msgs@@V?$allocator@U?$Plane_@V?$allocator@X@std@@@shape_msgs@@@std@@@std@@QEBA_KXZ
	?size@?$vector@U?$Point_@V?$allocator@X@std@@@geometry_msgs@@V?$allocator@U?$Point_@V?$allocator@X@std@@@geometry_msgs@@@std@@@std@@QEBA_KXZ
	?size@?$vector@U?$Pose_@V?$allocator@X@std@@@geometry_msgs@@V?$allocator@U?$Pose_@V?$allocator@X@std@@@geometry_msgs@@@std@@@std@@QEBA_KXZ
	?size@?$vector@U?$SolidPrimitive_@V?$allocator@X@std@@@shape_msgs@@V?$allocator@U?$SolidPrimitive_@V?$allocator@X@std@@@shape_msgs@@@std@@@std@@QEBA_KXZ
	?size@?$vector@U?$Transform_@V?$allocator@X@std@@@geometry_msgs@@V?$allocator@U?$Transform_@V?$allocator@X@std@@@geometry_msgs@@@std@@@std@@QEBA_KXZ
	?size@?$vector@U?$Twist_@V?$allocator@X@std@@@geometry_msgs@@V?$allocator@U?$Twist_@V?$allocator@X@std@@@geometry_msgs@@@std@@@std@@QEBA_KXZ
	?size@?$vector@U?$Wrench_@V?$allocator@X@std@@@geometry_msgs@@V?$allocator@U?$Wrench_@V?$allocator@X@std@@@geometry_msgs@@@std@@@std@@QEBA_KXZ
	?size@?$vector@V?$basic_string@DU?$char_traits@D@std@@V?$allocator@D@2@@std@@V?$allocator@V?$basic_string@DU?$char_traits@D@std@@V?$allocator@D@2@@std@@@2@@std@@QEBA_KXZ
	?str@?$basic_stringbuf@DU?$char_traits@D@std@@V?$allocator@D@2@@std@@QEBA?AV?$basic_string@DU?$char_traits@D@std@@V?$allocator@D@2@@2@XZ
	?str@?$basic_stringstream@DU?$char_traits@D@std@@V?$allocator@D@2@@std@@QEBA?AV?$basic_string@DU?$char_traits@D@std@@V?$allocator@D@2@@2@XZ
	?sum@?$DenseBase@V?$CwiseBinaryOp@U?$scalar_product_op@NN@internal@Eigen@@$$CBV?$Transpose@$$CBV?$Block@$$CBV?$Matrix@N$02$00$0A@$02$00@Eigen@@$00$00$0A@@Eigen@@@3@$$CBV?$Block@$$CBV?$Block@V?$Matrix@N$03$03$0A@$03$03@Eigen@@$00$03$0A@@Eigen@@$00$00$0A@@3@@Eigen@@@Eigen@@QEBANXZ
	?sum@?$DenseBase@V?$Diagonal@$$CBV?$Block@$$CBV?$Matrix@N$03$03$0A@$03$03@Eigen@@$02$02$0A@@Eigen@@$0A@@Eigen@@@Eigen@@QEBANXZ
	?swap@?$function1@XAEBVSingleSubscriberPublisher@ros@@@boost@@QEAAXAEAV12@@Z
	?swap@?$shared_array@E@boost@@QEAAXAEAV12@@Z
	?swap@?$shared_ptr@VRobotModel@core@moveit@@@std@@QEAAXAEAV12@@Z
	?swap@?$shared_ptr@VRobotState@core@moveit@@@std@@QEAAXAEAV12@@Z
	?swap@shared_count@detail@boost@@QEAAXAEAV123@@Z
	?throw_exception_assert_compatibility@boost@@YAXAEBVexception@std@@@Z
	?toMsg@tf2@@YA?AU?$Point_@V?$allocator@X@std@@@geometry_msgs@@AEBV?$Matrix@N$02$00$0A@$02$00@Eigen@@@Z
	?toMsg@tf2@@YA?AU?$Pose_@V?$allocator@X@std@@@geometry_msgs@@AEBV?$Transform@N$02$00$0A@@Eigen@@@Z
	?toMsg@tf2@@YA?AU?$Quaternion_@V?$allocator@X@std@@@geometry_msgs@@AEBV?$Quaternion@N$0A@@Eigen@@@Z
	?toRotationMatrix@?$QuaternionBase@V?$Quaternion@N$0A@@Eigen@@@Eigen@@QEBA?AV?$Matrix@N$02$02$0A@$02$02@2@XZ
	?toRotationMatrix@?$RotationBase@V?$Quaternion@N$0A@@Eigen@@$02@Eigen@@QEBA?AV?$Matrix@N$02$02$0A@$02$02@2@XZ
	?to_char_type@?$_Narrow_char_traits@DH@std@@SADAEBH@Z
	?to_int_type@?$_Narrow_char_traits@DH@std@@SAHAEBD@Z
	?trace@?$MatrixBase@V?$Block@$$CBV?$Matrix@N$03$03$0A@$03$03@Eigen@@$02$02$0A@@Eigen@@@Eigen@@QEBANXZ
	?translation@?$Transform@N$02$00$0A@@Eigen@@QEAA?AV?$Block@V?$Matrix@N$03$03$0A@$03$03@Eigen@@$02$00$00@2@XZ
	?translation@?$Transform@N$02$00$0A@@Eigen@@QEBA?BV?$Block@$$CBV?$Matrix@N$03$03$0A@$03$03@Eigen@@$02$00$00@2@XZ
	?transpose@?$DenseBase@V?$Block@$$CBV?$Matrix@N$02$00$0A@$02$00@Eigen@@$00$00$0A@@Eigen@@@Eigen@@QEBA?BV?$Transpose@$$CBV?$Block@$$CBV?$Matrix@N$02$00$0A@$02$00@Eigen@@$00$00$0A@@Eigen@@@2@XZ
	?type_info@stl_type_index@typeindex@boost@@QEBAAEBV0@XZ
	?underflow@?$basic_stringbuf@DU?$char_traits@D@std@@V?$allocator@D@2@@std@@MEAAHXZ
	?unwrap@?$unwrapper@P6A?AVSerializedMessage@ros@@AEBU?$DisplayRobotState_@V?$allocator@X@std@@@moveit_msgs@@@Z@_bi@boost@@SAAEAP6A?AVSerializedMessage@ros@@AEBU?$DisplayRobotState_@V?$allocator@X@std@@@moveit_msgs@@@ZAEAP6A?AV45@0@ZJ@Z
	?unwrap@?$unwrapper@P6A?AVSerializedMessage@ros@@AEBU?$Marker_@V?$allocator@X@std@@@visualization_msgs@@@Z@_bi@boost@@SAAEAP6A?AVSerializedMessage@ros@@AEBU?$Marker_@V?$allocator@X@std@@@visualization_msgs@@@ZAEAP6A?AV45@0@ZJ@Z
	?unwrap@?$unwrapper@P6AXPEAVInteractiveRobot@@AEBV?$shared_ptr@$$CBU?$InteractiveMarkerFeedback_@V?$allocator@X@std@@@visualization_msgs@@@boost@@@Z@_bi@boost@@SAAEAP6AXPEAVInteractiveRobot@@AEBV?$shared_ptr@$$CBU?$InteractiveMarkerFeedback_@V?$allocator@X@std@@@visualization_msgs@@@3@@ZAEAP6AX01@ZJ@Z
	?unwrap@?$unwrapper@V?$mf1@XVInteractiveRobot@@AEBUTimerEvent@ros@@@_mfi@boost@@@_bi@boost@@SAAEAV?$mf1@XVInteractiveRobot@@AEBUTimerEvent@ros@@@_mfi@3@AEAV453@J@Z
	?updateAll@InteractiveRobot@@AEAAXXZ
	?updateCallback@InteractiveRobot@@AEAAXAEBUTimerEvent@ros@@@Z
	?value@?$DataType@U?$DisplayRobotState_@V?$allocator@X@std@@@moveit_msgs@@@message_traits@ros@@SAPEBDXZ
	?value@?$DataType@U?$Marker_@V?$allocator@X@std@@@visualization_msgs@@@message_traits@ros@@SAPEBDXZ
	?value@?$Definition@U?$DisplayRobotState_@V?$allocator@X@std@@@moveit_msgs@@@message_traits@ros@@SAPEBDXZ
	?value@?$Definition@U?$Marker_@V?$allocator@X@std@@@visualization_msgs@@@message_traits@ros@@SAPEBDXZ
	?value@?$MD5Sum@U?$DisplayRobotState_@V?$allocator@X@std@@@moveit_msgs@@@message_traits@ros@@SAPEBDXZ
	?value@?$MD5Sum@U?$Marker_@V?$allocator@X@std@@@visualization_msgs@@@message_traits@ros@@SAPEBDXZ
	?value@?$variable_if_dynamic@_J$00@internal@Eigen@@SA_JXZ
	?value@?$variable_if_dynamic@_J$02@internal@Eigen@@SA_JXZ
	?value@?$variable_if_dynamic@_J$03@internal@Eigen@@SA_JXZ
	?value@?$variable_if_dynamic@_J$0A@@internal@Eigen@@SA_JXZ
	?value@?$variable_if_dynamicindex@_J$0A@@internal@Eigen@@SA_JXZ
	?vector@?$Translation@N$02@Eigen@@QEBAAEBV?$Matrix@N$02$00$0A@$02$00@2@XZ
	?w@?$QuaternionBase@V?$Quaternion@N$0A@@Eigen@@@Eigen@@QEAAAEANXZ
	?w@?$QuaternionBase@V?$Quaternion@N$0A@@Eigen@@@Eigen@@QEBANXZ
	?weak_release@sp_counted_base@detail@boost@@QEAAXXZ
	?what@exception@std@@UEBAPEBDXZ
	?x@?$DenseCoeffsBase@V?$Block@$$CBV?$Matrix@N$03$03$0A@$03$03@Eigen@@$02$00$00@Eigen@@$0A@@Eigen@@QEBANXZ
	?x@?$DenseCoeffsBase@V?$Matrix@N$02$00$0A@$02$00@Eigen@@$00@Eigen@@QEAAAEANXZ
	?x@?$DenseCoeffsBase@V?$Matrix@N$02$00$0A@$02$00@Eigen@@$0A@@Eigen@@QEBAAEBNXZ
	?x@?$QuaternionBase@V?$Quaternion@N$0A@@Eigen@@@Eigen@@QEAAAEANXZ
	?x@?$QuaternionBase@V?$Quaternion@N$0A@@Eigen@@@Eigen@@QEBANXZ
	?y@?$DenseCoeffsBase@V?$Block@$$CBV?$Matrix@N$03$03$0A@$03$03@Eigen@@$02$00$00@Eigen@@$0A@@Eigen@@QEBANXZ
	?y@?$DenseCoeffsBase@V?$Matrix@N$02$00$0A@$02$00@Eigen@@$00@Eigen@@QEAAAEANXZ
	?y@?$DenseCoeffsBase@V?$Matrix@N$02$00$0A@$02$00@Eigen@@$0A@@Eigen@@QEBAAEBNXZ
	?y@?$QuaternionBase@V?$Quaternion@N$0A@@Eigen@@@Eigen@@QEAAAEANXZ
	?y@?$QuaternionBase@V?$Quaternion@N$0A@@Eigen@@@Eigen@@QEBANXZ
	?z@?$DenseCoeffsBase@V?$Block@$$CBV?$Matrix@N$03$03$0A@$03$03@Eigen@@$02$00$00@Eigen@@$0A@@Eigen@@QEBANXZ
	?z@?$DenseCoeffsBase@V?$Matrix@N$02$00$0A@$02$00@Eigen@@$00@Eigen@@QEAAAEANXZ
	?z@?$DenseCoeffsBase@V?$Matrix@N$02$00$0A@$02$00@Eigen@@$0A@@Eigen@@QEBAAEBNXZ
	?z@?$QuaternionBase@V?$Quaternion@N$0A@@Eigen@@@Eigen@@QEAAAEANXZ
	?z@?$QuaternionBase@V?$Quaternion@N$0A@@Eigen@@@Eigen@@QEBANXZ
	wmemcpy
